ARM GAS  C:\Users\DMYTRO~1.FED\AppData\Local\Temp\ccpn1oA7.s 			page 1


   1              		.syntax unified
   2              		.cpu cortex-m0plus
   3              		.fpu softvfp
   4              		.eabi_attribute 20, 1
   5              		.eabi_attribute 21, 1
   6              		.eabi_attribute 23, 3
   7              		.eabi_attribute 24, 1
   8              		.eabi_attribute 25, 1
   9              		.eabi_attribute 26, 1
  10              		.eabi_attribute 30, 1
  11              		.eabi_attribute 34, 0
  12              		.eabi_attribute 18, 4
  13              		.thumb
  14              		.syntax unified
  15              		.file	"audio.c"
  16              		.text
  17              	.Ltext0:
  18              		.cfi_sections	.debug_frame
  19              		.section	.text.Isr_TC_Handler,"ax",%progbits
  20              		.align	2
  21              		.global	Isr_TC_Handler
  22              		.code	16
  23              		.thumb_func
  24              		.type	Isr_TC_Handler, %function
  25              	Isr_TC_Handler:
  26              	.LFB33:
  27              		.file 1 "audio.c"
   1:audio.c       **** /** @file
   2:audio.c       ****  *  @brief Source file for low level audio functions
   3:audio.c       ****  */
   4:audio.c       **** #include <stdint.h>
   5:audio.c       **** #include <stdlib.h>
   6:audio.c       **** #include <stdbool.h>
   7:audio.c       **** #include "project.h"
   8:audio.c       **** #include "audio.h"
   9:audio.c       **** #include "assert.h"
  10:audio.c       **** 
  11:audio.c       **** #define MAX_VOL_VALUE  100U
  12:audio.c       **** #define MAX_FACTOR     14U
  13:audio.c       **** 
  14:audio.c       **** static bool play   = true;
  15:audio.c       **** static bool isInit = false;
  16:audio.c       **** static uint32_t volume = 0;
  17:audio.c       **** static uint8_t volumePerc = 0;
  18:audio.c       **** static audio_SampleRate_t sampleRate = AUDIO_SAMPLE_RATE_COUNT;
  19:audio.c       **** static uint32_t audio_SampleRateTPeriods[AUDIO_SAMPLE_RATE_COUNT];
  20:audio.c       **** static audio_SampleCb_t audio_OnTimerCb = NULL;
  21:audio.c       **** 
  22:audio.c       **** static void audio_PrintSampleRate(audio_SampleRate_t rate);
  23:audio.c       **** 
  24:audio.c       **** CY_ISR(Isr_TC_Handler)
  25:audio.c       **** {   
  28              		.loc 1 25 0
  29              		.cfi_startproc
  30              		@ args = 0, pretend = 0, frame = 0
  31              		@ frame_needed = 0, uses_anonymous_args = 0
  32 0000 10B5     		push	{r4, lr}
ARM GAS  C:\Users\DMYTRO~1.FED\AppData\Local\Temp\ccpn1oA7.s 			page 2


  33              		.cfi_def_cfa_offset 8
  34              		.cfi_offset 4, -8
  35              		.cfi_offset 14, -4
  26:audio.c       ****     Timer_audio_ClearInterrupt(Timer_audio_INTR_MASK_TC);
  36              		.loc 1 26 0
  37 0002 0120     		movs	r0, #1
  38 0004 FFF7FEFF 		bl	Timer_audio_ClearInterrupt
  39              	.LVL0:
  27:audio.c       ****     if ((NULL != audio_OnTimerCb) && (play))
  40              		.loc 1 27 0
  41 0008 044B     		ldr	r3, .L3
  42 000a 1B68     		ldr	r3, [r3]
  43 000c 002B     		cmp	r3, #0
  44 000e 04D0     		beq	.L1
  45              		.loc 1 27 0 is_stmt 0 discriminator 1
  46 0010 034A     		ldr	r2, .L3+4
  47 0012 1278     		ldrb	r2, [r2]
  48 0014 002A     		cmp	r2, #0
  49 0016 00D0     		beq	.L1
  28:audio.c       ****     {
  29:audio.c       ****         audio_OnTimerCb();
  50              		.loc 1 29 0 is_stmt 1
  51 0018 9847     		blx	r3
  52              	.LVL1:
  53              	.L1:
  30:audio.c       ****     }
  31:audio.c       **** }
  54              		.loc 1 31 0
  55              		@ sp needed
  56 001a 10BD     		pop	{r4, pc}
  57              	.L4:
  58              		.align	2
  59              	.L3:
  60 001c 00000000 		.word	.LANCHOR0
  61 0020 00000000 		.word	.LANCHOR1
  62              		.cfi_endproc
  63              	.LFE33:
  64              		.size	Isr_TC_Handler, .-Isr_TC_Handler
  65              		.section	.text.audio_PrintSampleRate,"ax",%progbits
  66              		.align	2
  67              		.code	16
  68              		.thumb_func
  69              		.type	audio_PrintSampleRate, %function
  70              	audio_PrintSampleRate:
  71              	.LFB43:
  32:audio.c       **** 
  33:audio.c       **** void audio_Play(uint8_t sample)
  34:audio.c       **** {
  35:audio.c       ****     uint32_t volumeChange = volume>>1;
  36:audio.c       ****     uint32_t tmp = 0;
  37:audio.c       ****      
  38:audio.c       ****     ASSERT(isInit);
  39:audio.c       ****     //attenuation volume adjusment of the input samples.
  40:audio.c       ****     //idea from https://www.microchip.com/forums/m932509.aspx
  41:audio.c       ****     if (volume&0x01)
  42:audio.c       ****     {
  43:audio.c       ****         volumeChange++;
ARM GAS  C:\Users\DMYTRO~1.FED\AppData\Local\Temp\ccpn1oA7.s 			page 3


  44:audio.c       ****         tmp = sample >> volumeChange;
  45:audio.c       ****         tmp = tmp + (tmp >> 1);
  46:audio.c       ****     } else
  47:audio.c       ****     {
  48:audio.c       ****         tmp = sample >> volumeChange;
  49:audio.c       ****     }
  50:audio.c       **** 
  51:audio.c       ****     PWM_WriteCompare(tmp & 0xff); 
  52:audio.c       **** }
  53:audio.c       **** 
  54:audio.c       **** void audio_Start(void)
  55:audio.c       **** {
  56:audio.c       ****     ASSERT(isInit);
  57:audio.c       ****     
  58:audio.c       ****     play = true;
  59:audio.c       ****     uartPrintf("Audio: Started\r\n");
  60:audio.c       **** }
  61:audio.c       **** 
  62:audio.c       **** void audio_Stop(void)
  63:audio.c       **** {
  64:audio.c       ****     ASSERT(isInit);
  65:audio.c       ****     
  66:audio.c       ****     play = false;
  67:audio.c       ****     audio_Play(0);
  68:audio.c       ****     uartPrintf("Audio: Stopped\r\n");
  69:audio.c       **** }
  70:audio.c       **** 
  71:audio.c       **** bool audio_SetSampleRate(audio_SampleRate_t rate)
  72:audio.c       **** {
  73:audio.c       ****     bool result = false;
  74:audio.c       ****     
  75:audio.c       ****     ASSERT(isInit);
  76:audio.c       ****     if (AUDIO_SAMPLE_RATE_COUNT > rate)
  77:audio.c       ****     {
  78:audio.c       ****         result = true;
  79:audio.c       ****         sampleRate = rate;
  80:audio.c       ****         Timer_audio_Stop();
  81:audio.c       ****         Timer_audio_WritePeriod(audio_SampleRateTPeriods[sampleRate]);
  82:audio.c       ****         Timer_audio_Start();
  83:audio.c       ****         PWM_WriteCompare(0);
  84:audio.c       ****         uartPrintf("Audio: Timer rate %d\r\n", audio_SampleRateTPeriods[sampleRate]);
  85:audio.c       ****         audio_PrintSampleRate(sampleRate);
  86:audio.c       ****     }
  87:audio.c       ****     
  88:audio.c       ****     return result;
  89:audio.c       **** }
  90:audio.c       **** 
  91:audio.c       **** audio_SampleRate_t audio_GetSampleRate(void)
  92:audio.c       **** {
  93:audio.c       ****     ASSERT(isInit);
  94:audio.c       ****     return sampleRate;
  95:audio.c       **** }
  96:audio.c       **** 
  97:audio.c       **** bool audio_SetCallback(audio_SampleCb_t cb)
  98:audio.c       **** {
  99:audio.c       ****     ASSERT(isInit);
 100:audio.c       ****     bool result = false;
ARM GAS  C:\Users\DMYTRO~1.FED\AppData\Local\Temp\ccpn1oA7.s 			page 4


 101:audio.c       ****     
 102:audio.c       ****     if (cb != NULL)
 103:audio.c       ****     {
 104:audio.c       ****         result = true;
 105:audio.c       ****         audio_OnTimerCb = cb;
 106:audio.c       ****         uartPrintf("Audio: Callback set.\r\n");
 107:audio.c       ****     }
 108:audio.c       **** 
 109:audio.c       ****     return result;
 110:audio.c       **** }
 111:audio.c       **** 
 112:audio.c       **** void audio_Init(void)
 113:audio.c       **** {
 114:audio.c       ****     /* To avoid update and position bugs */
 115:audio.c       ****     audio_SampleRateTPeriods[AUDIO_SAMPLE_RATE_4K]  = 256;
 116:audio.c       ****     audio_SampleRateTPeriods[AUDIO_SAMPLE_RATE_8K]  = 128;
 117:audio.c       ****     audio_SampleRateTPeriods[AUDIO_SAMPLE_RATE_16K] = 64;
 118:audio.c       ****     audio_SampleRateTPeriods[AUDIO_SAMPLE_RATE_32K] = 32;
 119:audio.c       ****     audio_SampleRateTPeriods[AUDIO_SAMPLE_RATE_64K] = 16;
 120:audio.c       ****     
 121:audio.c       ****     isInit = true;
 122:audio.c       **** 
 123:audio.c       ****     Isr_TC_StartEx(Isr_TC_Handler);
 124:audio.c       ****     PWM_Start();
 125:audio.c       ****     
 126:audio.c       ****     ASSERT(true == audio_SetSampleRate(AUDIO_SAMPLE_RATE_DEFAULT));
 127:audio.c       ****     Timer_audio_Start();
 128:audio.c       ****     uartPrintf("Audio: Inited.\r\n");
 129:audio.c       ****     audio_SetVolume(50);
 130:audio.c       **** }
 131:audio.c       **** 
 132:audio.c       **** bool audio_SetVolume(uint8_t perc)
 133:audio.c       **** {
 134:audio.c       ****     bool result = false;
 135:audio.c       ****     ASSERT(isInit);
 136:audio.c       ****     
 137:audio.c       ****     if (MAX_VOL_VALUE >= perc)
 138:audio.c       ****     {
 139:audio.c       ****         result = true;
 140:audio.c       ****         volumePerc = perc;
 141:audio.c       ****         volume = MAX_FACTOR - (perc * MAX_FACTOR ) / 100; 
 142:audio.c       ****         uartPrintf("Audio: Set volume %d %d.\r\n", perc, volume);
 143:audio.c       ****     }
 144:audio.c       ****       
 145:audio.c       ****     return result;
 146:audio.c       **** }
 147:audio.c       **** 
 148:audio.c       **** uint8_t audio_GetVolume(void)
 149:audio.c       **** {
 150:audio.c       ****     uint8_t retval = volumePerc;
 151:audio.c       ****     
 152:audio.c       ****     ASSERT(isInit);
 153:audio.c       ****     
 154:audio.c       ****     return retval;
 155:audio.c       **** }
 156:audio.c       **** 
 157:audio.c       **** static void audio_PrintSampleRate(audio_SampleRate_t rate)
ARM GAS  C:\Users\DMYTRO~1.FED\AppData\Local\Temp\ccpn1oA7.s 			page 5


 158:audio.c       **** {
  72              		.loc 1 158 0
  73              		.cfi_startproc
  74              		@ args = 0, pretend = 0, frame = 0
  75              		@ frame_needed = 0, uses_anonymous_args = 0
  76              	.LVL2:
  77 0000 10B5     		push	{r4, lr}
  78              		.cfi_def_cfa_offset 8
  79              		.cfi_offset 4, -8
  80              		.cfi_offset 14, -4
 159:audio.c       ****     switch (rate)
  81              		.loc 1 159 0
  82 0002 0428     		cmp	r0, #4
  83 0004 17D8     		bhi	.L6
  84 0006 8000     		lsls	r0, r0, #2
  85              	.LVL3:
  86 0008 0D4B     		ldr	r3, .L14
  87 000a 1B58     		ldr	r3, [r3, r0]
  88 000c 9F46     		mov	pc, r3
  89              		.section	.rodata
  90              		.align	2
  91              	.L8:
  92 0000 0E000000 		.word	.L7
  93 0004 16000000 		.word	.L9
  94 0008 1E000000 		.word	.L10
  95 000c 26000000 		.word	.L11
  96 0010 2E000000 		.word	.L12
  97              		.section	.text.audio_PrintSampleRate
  98              	.L7:
 160:audio.c       ****     {
 161:audio.c       ****         case AUDIO_SAMPLE_RATE_4K:
 162:audio.c       ****             uartPrintf("Audio: Rate 4K\r\n");
  99              		.loc 1 162 0
 100 000e 0D48     		ldr	r0, .L14+4
 101 0010 FFF7FEFF 		bl	uartPrintf
 102              	.LVL4:
 163:audio.c       ****             break;
 103              		.loc 1 163 0
 104 0014 13E0     		b	.L5
 105              	.L9:
 164:audio.c       ****         
 165:audio.c       ****         case AUDIO_SAMPLE_RATE_8K:
 166:audio.c       ****             uartPrintf("Audio: Rate 8K\r\n");
 106              		.loc 1 166 0
 107 0016 0C48     		ldr	r0, .L14+8
 108 0018 FFF7FEFF 		bl	uartPrintf
 109              	.LVL5:
 167:audio.c       ****             break;
 110              		.loc 1 167 0
 111 001c 0FE0     		b	.L5
 112              	.L10:
 168:audio.c       ****         
 169:audio.c       ****         case AUDIO_SAMPLE_RATE_16K:
 170:audio.c       ****             uartPrintf("Audio: Rate 16K\r\n");
 113              		.loc 1 170 0
 114 001e 0B48     		ldr	r0, .L14+12
 115 0020 FFF7FEFF 		bl	uartPrintf
ARM GAS  C:\Users\DMYTRO~1.FED\AppData\Local\Temp\ccpn1oA7.s 			page 6


 116              	.LVL6:
 171:audio.c       ****             break;
 117              		.loc 1 171 0
 118 0024 0BE0     		b	.L5
 119              	.L11:
 172:audio.c       ****         
 173:audio.c       ****         case AUDIO_SAMPLE_RATE_32K:
 174:audio.c       ****             uartPrintf("Audio: Rate 32K\r\n");
 120              		.loc 1 174 0
 121 0026 0A48     		ldr	r0, .L14+16
 122 0028 FFF7FEFF 		bl	uartPrintf
 123              	.LVL7:
 175:audio.c       ****             break;
 124              		.loc 1 175 0
 125 002c 07E0     		b	.L5
 126              	.L12:
 176:audio.c       ****         
 177:audio.c       ****         case AUDIO_SAMPLE_RATE_64K:
 178:audio.c       ****             uartPrintf("Audio: Rate 64K\r\n");
 127              		.loc 1 178 0
 128 002e 0948     		ldr	r0, .L14+20
 129 0030 FFF7FEFF 		bl	uartPrintf
 130              	.LVL8:
 179:audio.c       ****             break;
 131              		.loc 1 179 0
 132 0034 03E0     		b	.L5
 133              	.LVL9:
 134              	.L6:
 180:audio.c       ****     
 181:audio.c       ****         default:
 182:audio.c       ****             uartPrintf("Audio: Unknown rate %d\r\n", rate);
 135              		.loc 1 182 0
 136 0036 0100     		movs	r1, r0
 137 0038 0748     		ldr	r0, .L14+24
 138              	.LVL10:
 139 003a FFF7FEFF 		bl	uartPrintf
 140              	.LVL11:
 141              	.L5:
 183:audio.c       ****             break;
 184:audio.c       ****     }
 185:audio.c       **** }...
 142              		.loc 1 185 0
 143              		@ sp needed
 144 003e 10BD     		pop	{r4, pc}
 145              	.L15:
 146              		.align	2
 147              	.L14:
 148 0040 00000000 		.word	.L8
 149 0044 00000000 		.word	.LC3
 150 0048 14000000 		.word	.LC5
 151 004c 28000000 		.word	.LC7
 152 0050 3C000000 		.word	.LC9
 153 0054 50000000 		.word	.LC11
 154 0058 64000000 		.word	.LC13
 155              		.cfi_endproc
 156              	.LFE43:
 157              		.size	audio_PrintSampleRate, .-audio_PrintSampleRate
ARM GAS  C:\Users\DMYTRO~1.FED\AppData\Local\Temp\ccpn1oA7.s 			page 7


 158              		.section	.text.audio_Play,"ax",%progbits
 159              		.align	2
 160              		.global	audio_Play
 161              		.code	16
 162              		.thumb_func
 163              		.type	audio_Play, %function
 164              	audio_Play:
 165              	.LFB34:
  34:audio.c       **** {
 166              		.loc 1 34 0
 167              		.cfi_startproc
 168              		@ args = 0, pretend = 0, frame = 0
 169              		@ frame_needed = 0, uses_anonymous_args = 0
 170              	.LVL12:
 171 0000 10B5     		push	{r4, lr}
 172              		.cfi_def_cfa_offset 8
 173              		.cfi_offset 4, -8
 174              		.cfi_offset 14, -4
  35:audio.c       ****     uint32_t volumeChange = volume>>1;
 175              		.loc 1 35 0
 176 0002 0C49     		ldr	r1, .L21
 177 0004 4A68     		ldr	r2, [r1, #4]
 178 0006 5308     		lsrs	r3, r2, #1
 179              	.LVL13:
  38:audio.c       ****     ASSERT(isInit);
 180              		.loc 1 38 0
 181 0008 097A     		ldrb	r1, [r1, #8]
 182 000a 0029     		cmp	r1, #0
 183 000c 05D1     		bne	.L17
  38:audio.c       ****     ASSERT(isInit);
 184              		.loc 1 38 0 is_stmt 0 discriminator 1
 185 000e 2622     		movs	r2, #38
 186 0010 0949     		ldr	r1, .L21+4
 187 0012 0A48     		ldr	r0, .L21+8
 188              	.LVL14:
 189 0014 FFF7FEFF 		bl	uartPrintf
 190              	.LVL15:
 191              	.L18:
 192 0018 FEE7     		b	.L18
 193              	.LVL16:
 194              	.L17:
  41:audio.c       ****     if (volume&0x01)
 195              		.loc 1 41 0 is_stmt 1
 196 001a D207     		lsls	r2, r2, #31
 197 001c 04D5     		bpl	.L19
  43:audio.c       ****         volumeChange++;
 198              		.loc 1 43 0
 199 001e 0133     		adds	r3, r3, #1
 200              	.LVL17:
  44:audio.c       ****         tmp = sample >> volumeChange;
 201              		.loc 1 44 0
 202 0020 1841     		asrs	r0, r0, r3
 203              	.LVL18:
  45:audio.c       ****         tmp = tmp + (tmp >> 1);
 204              		.loc 1 45 0
 205 0022 4308     		lsrs	r3, r0, #1
 206              	.LVL19:
ARM GAS  C:\Users\DMYTRO~1.FED\AppData\Local\Temp\ccpn1oA7.s 			page 8


 207 0024 C018     		adds	r0, r0, r3
 208              	.LVL20:
 209 0026 00E0     		b	.L20
 210              	.LVL21:
 211              	.L19:
  48:audio.c       ****         tmp = sample >> volumeChange;
 212              		.loc 1 48 0
 213 0028 1841     		asrs	r0, r0, r3
 214              	.LVL22:
 215              	.L20:
  51:audio.c       ****     PWM_WriteCompare(tmp & 0xff); 
 216              		.loc 1 51 0
 217 002a FF23     		movs	r3, #255
 218 002c 1840     		ands	r0, r3
 219              	.LVL23:
 220 002e FFF7FEFF 		bl	PWM_WriteCompare
 221              	.LVL24:
  52:audio.c       **** }
 222              		.loc 1 52 0
 223              		@ sp needed
 224 0032 10BD     		pop	{r4, pc}
 225              	.L22:
 226              		.align	2
 227              	.L21:
 228 0034 00000000 		.word	.LANCHOR0
 229 0038 80000000 		.word	.LC16
 230 003c 88000000 		.word	.LC18
 231              		.cfi_endproc
 232              	.LFE34:
 233              		.size	audio_Play, .-audio_Play
 234              		.section	.text.audio_Start,"ax",%progbits
 235              		.align	2
 236              		.global	audio_Start
 237              		.code	16
 238              		.thumb_func
 239              		.type	audio_Start, %function
 240              	audio_Start:
 241              	.LFB35:
  55:audio.c       **** {
 242              		.loc 1 55 0
 243              		.cfi_startproc
 244              		@ args = 0, pretend = 0, frame = 0
 245              		@ frame_needed = 0, uses_anonymous_args = 0
 246 0000 10B5     		push	{r4, lr}
 247              		.cfi_def_cfa_offset 8
 248              		.cfi_offset 4, -8
 249              		.cfi_offset 14, -4
  56:audio.c       ****     ASSERT(isInit);
 250              		.loc 1 56 0
 251 0002 084B     		ldr	r3, .L26
 252 0004 1B7A     		ldrb	r3, [r3, #8]
 253 0006 002B     		cmp	r3, #0
 254 0008 05D1     		bne	.L24
  56:audio.c       ****     ASSERT(isInit);
 255              		.loc 1 56 0 is_stmt 0 discriminator 1
 256 000a 3822     		movs	r2, #56
 257 000c 0649     		ldr	r1, .L26+4
ARM GAS  C:\Users\DMYTRO~1.FED\AppData\Local\Temp\ccpn1oA7.s 			page 9


 258 000e 0748     		ldr	r0, .L26+8
 259 0010 FFF7FEFF 		bl	uartPrintf
 260              	.LVL25:
 261              	.L25:
 262 0014 FEE7     		b	.L25
 263              	.L24:
  58:audio.c       ****     play = true;
 264              		.loc 1 58 0 is_stmt 1
 265 0016 0122     		movs	r2, #1
 266 0018 054B     		ldr	r3, .L26+12
 267 001a 1A70     		strb	r2, [r3]
  59:audio.c       ****     uartPrintf("Audio: Started\r\n");
 268              		.loc 1 59 0
 269 001c 0548     		ldr	r0, .L26+16
 270 001e FFF7FEFF 		bl	uartPrintf
 271              	.LVL26:
  60:audio.c       **** }
 272              		.loc 1 60 0
 273              		@ sp needed
 274 0022 10BD     		pop	{r4, pc}
 275              	.L27:
 276              		.align	2
 277              	.L26:
 278 0024 00000000 		.word	.LANCHOR0
 279 0028 80000000 		.word	.LC16
 280 002c 88000000 		.word	.LC18
 281 0030 00000000 		.word	.LANCHOR1
 282 0034 B4000000 		.word	.LC24
 283              		.cfi_endproc
 284              	.LFE35:
 285              		.size	audio_Start, .-audio_Start
 286              		.section	.text.audio_Stop,"ax",%progbits
 287              		.align	2
 288              		.global	audio_Stop
 289              		.code	16
 290              		.thumb_func
 291              		.type	audio_Stop, %function
 292              	audio_Stop:
 293              	.LFB36:
  63:audio.c       **** {
 294              		.loc 1 63 0
 295              		.cfi_startproc
 296              		@ args = 0, pretend = 0, frame = 0
 297              		@ frame_needed = 0, uses_anonymous_args = 0
 298 0000 10B5     		push	{r4, lr}
 299              		.cfi_def_cfa_offset 8
 300              		.cfi_offset 4, -8
 301              		.cfi_offset 14, -4
  64:audio.c       ****     ASSERT(isInit);
 302              		.loc 1 64 0
 303 0002 0A4B     		ldr	r3, .L31
 304 0004 1B7A     		ldrb	r3, [r3, #8]
 305 0006 002B     		cmp	r3, #0
 306 0008 05D1     		bne	.L29
  64:audio.c       ****     ASSERT(isInit);
 307              		.loc 1 64 0 is_stmt 0 discriminator 1
 308 000a 4022     		movs	r2, #64
ARM GAS  C:\Users\DMYTRO~1.FED\AppData\Local\Temp\ccpn1oA7.s 			page 10


 309 000c 0849     		ldr	r1, .L31+4
 310 000e 0948     		ldr	r0, .L31+8
 311 0010 FFF7FEFF 		bl	uartPrintf
 312              	.LVL27:
 313              	.L30:
 314 0014 FEE7     		b	.L30
 315              	.L29:
  66:audio.c       ****     play = false;
 316              		.loc 1 66 0 is_stmt 1
 317 0016 0022     		movs	r2, #0
 318 0018 074B     		ldr	r3, .L31+12
 319 001a 1A70     		strb	r2, [r3]
  67:audio.c       ****     audio_Play(0);
 320              		.loc 1 67 0
 321 001c 0020     		movs	r0, #0
 322 001e FFF7FEFF 		bl	audio_Play
 323              	.LVL28:
  68:audio.c       ****     uartPrintf("Audio: Stopped\r\n");
 324              		.loc 1 68 0
 325 0022 0648     		ldr	r0, .L31+16
 326 0024 FFF7FEFF 		bl	uartPrintf
 327              	.LVL29:
  69:audio.c       **** }
 328              		.loc 1 69 0
 329              		@ sp needed
 330 0028 10BD     		pop	{r4, pc}
 331              	.L32:
 332 002a C046     		.align	2
 333              	.L31:
 334 002c 00000000 		.word	.LANCHOR0
 335 0030 80000000 		.word	.LC16
 336 0034 88000000 		.word	.LC18
 337 0038 00000000 		.word	.LANCHOR1
 338 003c C8000000 		.word	.LC30
 339              		.cfi_endproc
 340              	.LFE36:
 341              		.size	audio_Stop, .-audio_Stop
 342              		.section	.text.audio_SetSampleRate,"ax",%progbits
 343              		.align	2
 344              		.global	audio_SetSampleRate
 345              		.code	16
 346              		.thumb_func
 347              		.type	audio_SetSampleRate, %function
 348              	audio_SetSampleRate:
 349              	.LFB37:
  72:audio.c       **** {
 350              		.loc 1 72 0
 351              		.cfi_startproc
 352              		@ args = 0, pretend = 0, frame = 0
 353              		@ frame_needed = 0, uses_anonymous_args = 0
 354              	.LVL30:
 355 0000 70B5     		push	{r4, r5, r6, lr}
 356              		.cfi_def_cfa_offset 16
 357              		.cfi_offset 4, -16
 358              		.cfi_offset 5, -12
 359              		.cfi_offset 6, -8
 360              		.cfi_offset 14, -4
ARM GAS  C:\Users\DMYTRO~1.FED\AppData\Local\Temp\ccpn1oA7.s 			page 11


 361              	.LVL31:
  75:audio.c       ****     ASSERT(isInit);
 362              		.loc 1 75 0
 363 0002 154B     		ldr	r3, .L38
 364 0004 1B7A     		ldrb	r3, [r3, #8]
 365 0006 002B     		cmp	r3, #0
 366 0008 05D1     		bne	.L34
  75:audio.c       ****     ASSERT(isInit);
 367              		.loc 1 75 0 is_stmt 0 discriminator 1
 368 000a 4B22     		movs	r2, #75
 369 000c 1349     		ldr	r1, .L38+4
 370 000e 1448     		ldr	r0, .L38+8
 371              	.LVL32:
 372 0010 FFF7FEFF 		bl	uartPrintf
 373              	.LVL33:
 374              	.L35:
 375 0014 FEE7     		b	.L35
 376              	.LVL34:
 377              	.L34:
  76:audio.c       ****     if (AUDIO_SAMPLE_RATE_COUNT > rate)
 378              		.loc 1 76 0 is_stmt 1
 379 0016 0428     		cmp	r0, #4
 380 0018 1BD8     		bhi	.L37
 381              	.LVL35:
  79:audio.c       ****         sampleRate = rate;
 382              		.loc 1 79 0
 383 001a 124C     		ldr	r4, .L38+12
 384 001c 6070     		strb	r0, [r4, #1]
  80:audio.c       ****         Timer_audio_Stop();
 385              		.loc 1 80 0
 386 001e FFF7FEFF 		bl	Timer_audio_Stop
 387              	.LVL36:
  81:audio.c       ****         Timer_audio_WritePeriod(audio_SampleRateTPeriods[sampleRate]);
 388              		.loc 1 81 0
 389 0022 0D4D     		ldr	r5, .L38
 390 0024 6378     		ldrb	r3, [r4, #1]
 391 0026 9B00     		lsls	r3, r3, #2
 392 0028 EB18     		adds	r3, r5, r3
 393 002a D868     		ldr	r0, [r3, #12]
 394 002c FFF7FEFF 		bl	Timer_audio_WritePeriod
 395              	.LVL37:
  82:audio.c       ****         Timer_audio_Start();
 396              		.loc 1 82 0
 397 0030 FFF7FEFF 		bl	Timer_audio_Start
 398              	.LVL38:
  83:audio.c       ****         PWM_WriteCompare(0);
 399              		.loc 1 83 0
 400 0034 0020     		movs	r0, #0
 401 0036 FFF7FEFF 		bl	PWM_WriteCompare
 402              	.LVL39:
  84:audio.c       ****         uartPrintf("Audio: Timer rate %d\r\n", audio_SampleRateTPeriods[sampleRate]);
 403              		.loc 1 84 0
 404 003a 6378     		ldrb	r3, [r4, #1]
 405 003c 9B00     		lsls	r3, r3, #2
 406 003e EB18     		adds	r3, r5, r3
 407 0040 D968     		ldr	r1, [r3, #12]
 408 0042 0948     		ldr	r0, .L38+16
ARM GAS  C:\Users\DMYTRO~1.FED\AppData\Local\Temp\ccpn1oA7.s 			page 12


 409 0044 FFF7FEFF 		bl	uartPrintf
 410              	.LVL40:
  85:audio.c       ****         audio_PrintSampleRate(sampleRate);
 411              		.loc 1 85 0
 412 0048 6078     		ldrb	r0, [r4, #1]
 413 004a FFF7FEFF 		bl	audio_PrintSampleRate
 414              	.LVL41:
  78:audio.c       ****         result = true;
 415              		.loc 1 78 0
 416 004e 0120     		movs	r0, #1
 417 0050 00E0     		b	.L36
 418              	.LVL42:
 419              	.L37:
  73:audio.c       ****     bool result = false;
 420              		.loc 1 73 0
 421 0052 0020     		movs	r0, #0
 422              	.LVL43:
 423              	.L36:
  89:audio.c       **** }
 424              		.loc 1 89 0
 425              		@ sp needed
 426 0054 70BD     		pop	{r4, r5, r6, pc}
 427              	.L39:
 428 0056 C046     		.align	2
 429              	.L38:
 430 0058 00000000 		.word	.LANCHOR0
 431 005c 80000000 		.word	.LC16
 432 0060 88000000 		.word	.LC18
 433 0064 00000000 		.word	.LANCHOR1
 434 0068 DC000000 		.word	.LC36
 435              		.cfi_endproc
 436              	.LFE37:
 437              		.size	audio_SetSampleRate, .-audio_SetSampleRate
 438              		.section	.text.audio_GetSampleRate,"ax",%progbits
 439              		.align	2
 440              		.global	audio_GetSampleRate
 441              		.code	16
 442              		.thumb_func
 443              		.type	audio_GetSampleRate, %function
 444              	audio_GetSampleRate:
 445              	.LFB38:
  92:audio.c       **** {
 446              		.loc 1 92 0
 447              		.cfi_startproc
 448              		@ args = 0, pretend = 0, frame = 0
 449              		@ frame_needed = 0, uses_anonymous_args = 0
 450 0000 10B5     		push	{r4, lr}
 451              		.cfi_def_cfa_offset 8
 452              		.cfi_offset 4, -8
 453              		.cfi_offset 14, -4
  93:audio.c       ****     ASSERT(isInit);
 454              		.loc 1 93 0
 455 0002 064B     		ldr	r3, .L43
 456 0004 1B7A     		ldrb	r3, [r3, #8]
 457 0006 002B     		cmp	r3, #0
 458 0008 05D1     		bne	.L41
  93:audio.c       ****     ASSERT(isInit);
ARM GAS  C:\Users\DMYTRO~1.FED\AppData\Local\Temp\ccpn1oA7.s 			page 13


 459              		.loc 1 93 0 is_stmt 0 discriminator 1
 460 000a 5D22     		movs	r2, #93
 461 000c 0449     		ldr	r1, .L43+4
 462 000e 0548     		ldr	r0, .L43+8
 463 0010 FFF7FEFF 		bl	uartPrintf
 464              	.LVL44:
 465              	.L42:
 466 0014 FEE7     		b	.L42
 467              	.L41:
  94:audio.c       ****     return sampleRate;
 468              		.loc 1 94 0 is_stmt 1
 469 0016 044B     		ldr	r3, .L43+12
 470 0018 5878     		ldrb	r0, [r3, #1]
  95:audio.c       **** }
 471              		.loc 1 95 0
 472              		@ sp needed
 473 001a 10BD     		pop	{r4, pc}
 474              	.L44:
 475              		.align	2
 476              	.L43:
 477 001c 00000000 		.word	.LANCHOR0
 478 0020 80000000 		.word	.LC16
 479 0024 88000000 		.word	.LC18
 480 0028 00000000 		.word	.LANCHOR1
 481              		.cfi_endproc
 482              	.LFE38:
 483              		.size	audio_GetSampleRate, .-audio_GetSampleRate
 484              		.section	.text.audio_SetCallback,"ax",%progbits
 485              		.align	2
 486              		.global	audio_SetCallback
 487              		.code	16
 488              		.thumb_func
 489              		.type	audio_SetCallback, %function
 490              	audio_SetCallback:
 491              	.LFB39:
  98:audio.c       **** {
 492              		.loc 1 98 0
 493              		.cfi_startproc
 494              		@ args = 0, pretend = 0, frame = 0
 495              		@ frame_needed = 0, uses_anonymous_args = 0
 496              	.LVL45:
 497 0000 10B5     		push	{r4, lr}
 498              		.cfi_def_cfa_offset 8
 499              		.cfi_offset 4, -8
 500              		.cfi_offset 14, -4
  99:audio.c       ****     ASSERT(isInit);
 501              		.loc 1 99 0
 502 0002 0A4B     		ldr	r3, .L50
 503 0004 1B7A     		ldrb	r3, [r3, #8]
 504 0006 002B     		cmp	r3, #0
 505 0008 05D1     		bne	.L46
  99:audio.c       ****     ASSERT(isInit);
 506              		.loc 1 99 0 is_stmt 0 discriminator 1
 507 000a 6322     		movs	r2, #99
 508 000c 0849     		ldr	r1, .L50+4
 509 000e 0948     		ldr	r0, .L50+8
 510              	.LVL46:
ARM GAS  C:\Users\DMYTRO~1.FED\AppData\Local\Temp\ccpn1oA7.s 			page 14


 511 0010 FFF7FEFF 		bl	uartPrintf
 512              	.LVL47:
 513              	.L47:
 514 0014 FEE7     		b	.L47
 515              	.LVL48:
 516              	.L46:
 102:audio.c       ****     if (cb != NULL)
 517              		.loc 1 102 0 is_stmt 1
 518 0016 0028     		cmp	r0, #0
 519 0018 06D0     		beq	.L49
 520              	.LVL49:
 105:audio.c       ****         audio_OnTimerCb = cb;
 521              		.loc 1 105 0
 522 001a 044B     		ldr	r3, .L50
 523 001c 1860     		str	r0, [r3]
 106:audio.c       ****         uartPrintf("Audio: Callback set.\r\n");
 524              		.loc 1 106 0
 525 001e 0648     		ldr	r0, .L50+12
 526              	.LVL50:
 527 0020 FFF7FEFF 		bl	uartPrintf
 528              	.LVL51:
 104:audio.c       ****         result = true;
 529              		.loc 1 104 0
 530 0024 0120     		movs	r0, #1
 531 0026 00E0     		b	.L48
 532              	.LVL52:
 533              	.L49:
 100:audio.c       ****     bool result = false;
 534              		.loc 1 100 0
 535 0028 0020     		movs	r0, #0
 536              	.LVL53:
 537              	.L48:
 110:audio.c       **** }
 538              		.loc 1 110 0
 539              		@ sp needed
 540 002a 10BD     		pop	{r4, pc}
 541              	.L51:
 542              		.align	2
 543              	.L50:
 544 002c 00000000 		.word	.LANCHOR0
 545 0030 80000000 		.word	.LC16
 546 0034 88000000 		.word	.LC18
 547 0038 F4000000 		.word	.LC45
 548              		.cfi_endproc
 549              	.LFE39:
 550              		.size	audio_SetCallback, .-audio_SetCallback
 551              		.global	__aeabi_uidiv
 552              		.section	.text.audio_SetVolume,"ax",%progbits
 553              		.align	2
 554              		.global	audio_SetVolume
 555              		.code	16
 556              		.thumb_func
 557              		.type	audio_SetVolume, %function
 558              	audio_SetVolume:
 559              	.LFB41:
 133:audio.c       **** {
 560              		.loc 1 133 0
ARM GAS  C:\Users\DMYTRO~1.FED\AppData\Local\Temp\ccpn1oA7.s 			page 15


 561              		.cfi_startproc
 562              		@ args = 0, pretend = 0, frame = 0
 563              		@ frame_needed = 0, uses_anonymous_args = 0
 564              	.LVL54:
 565 0000 70B5     		push	{r4, r5, r6, lr}
 566              		.cfi_def_cfa_offset 16
 567              		.cfi_offset 4, -16
 568              		.cfi_offset 5, -12
 569              		.cfi_offset 6, -8
 570              		.cfi_offset 14, -4
 571 0002 0400     		movs	r4, r0
 572              	.LVL55:
 135:audio.c       ****     ASSERT(isInit);
 573              		.loc 1 135 0
 574 0004 0F4B     		ldr	r3, .L57
 575 0006 1B7A     		ldrb	r3, [r3, #8]
 576 0008 002B     		cmp	r3, #0
 577 000a 05D1     		bne	.L53
 135:audio.c       ****     ASSERT(isInit);
 578              		.loc 1 135 0 is_stmt 0 discriminator 1
 579 000c 8722     		movs	r2, #135
 580 000e 0E49     		ldr	r1, .L57+4
 581 0010 0E48     		ldr	r0, .L57+8
 582              	.LVL56:
 583 0012 FFF7FEFF 		bl	uartPrintf
 584              	.LVL57:
 585              	.L54:
 586 0016 FEE7     		b	.L54
 587              	.LVL58:
 588              	.L53:
 137:audio.c       ****     if (MAX_VOL_VALUE >= perc)
 589              		.loc 1 137 0 is_stmt 1
 590 0018 6428     		cmp	r0, #100
 591 001a 11D8     		bhi	.L56
 592              	.LVL59:
 140:audio.c       ****         volumePerc = perc;
 593              		.loc 1 140 0
 594 001c 094D     		ldr	r5, .L57
 595 001e 2023     		movs	r3, #32
 596 0020 E854     		strb	r0, [r5, r3]
 141:audio.c       ****         volume = MAX_FACTOR - (perc * MAX_FACTOR ) / 100; 
 597              		.loc 1 141 0
 598 0022 C300     		lsls	r3, r0, #3
 599 0024 1B1A     		subs	r3, r3, r0
 600 0026 5800     		lsls	r0, r3, #1
 601              	.LVL60:
 602 0028 6421     		movs	r1, #100
 603 002a FFF7FEFF 		bl	__aeabi_uidiv
 604              	.LVL61:
 605 002e 0E23     		movs	r3, #14
 606 0030 1A1A     		subs	r2, r3, r0
 607 0032 6A60     		str	r2, [r5, #4]
 142:audio.c       ****         uartPrintf("Audio: Set volume %d %d.\r\n", perc, volume);
 608              		.loc 1 142 0
 609 0034 2100     		movs	r1, r4
 610 0036 0648     		ldr	r0, .L57+12
 611 0038 FFF7FEFF 		bl	uartPrintf
ARM GAS  C:\Users\DMYTRO~1.FED\AppData\Local\Temp\ccpn1oA7.s 			page 16


 612              	.LVL62:
 139:audio.c       ****         result = true;
 613              		.loc 1 139 0
 614 003c 0120     		movs	r0, #1
 615 003e 00E0     		b	.L55
 616              	.LVL63:
 617              	.L56:
 134:audio.c       ****     bool result = false;
 618              		.loc 1 134 0
 619 0040 0020     		movs	r0, #0
 620              	.LVL64:
 621              	.L55:
 146:audio.c       **** }
 622              		.loc 1 146 0
 623              		@ sp needed
 624 0042 70BD     		pop	{r4, r5, r6, pc}
 625              	.L58:
 626              		.align	2
 627              	.L57:
 628 0044 00000000 		.word	.LANCHOR0
 629 0048 80000000 		.word	.LC16
 630 004c 88000000 		.word	.LC18
 631 0050 0C010000 		.word	.LC50
 632              		.cfi_endproc
 633              	.LFE41:
 634              		.size	audio_SetVolume, .-audio_SetVolume
 635              		.section	.text.audio_Init,"ax",%progbits
 636              		.align	2
 637              		.global	audio_Init
 638              		.code	16
 639              		.thumb_func
 640              		.type	audio_Init, %function
 641              	audio_Init:
 642              	.LFB40:
 113:audio.c       **** {
 643              		.loc 1 113 0
 644              		.cfi_startproc
 645              		@ args = 0, pretend = 0, frame = 0
 646              		@ frame_needed = 0, uses_anonymous_args = 0
 647 0000 10B5     		push	{r4, lr}
 648              		.cfi_def_cfa_offset 8
 649              		.cfi_offset 4, -8
 650              		.cfi_offset 14, -4
 115:audio.c       ****     audio_SampleRateTPeriods[AUDIO_SAMPLE_RATE_4K]  = 256;
 651              		.loc 1 115 0
 652 0002 134B     		ldr	r3, .L62
 653 0004 8022     		movs	r2, #128
 654 0006 5200     		lsls	r2, r2, #1
 655 0008 DA60     		str	r2, [r3, #12]
 116:audio.c       ****     audio_SampleRateTPeriods[AUDIO_SAMPLE_RATE_8K]  = 128;
 656              		.loc 1 116 0
 657 000a 803A     		subs	r2, r2, #128
 658 000c 1A61     		str	r2, [r3, #16]
 117:audio.c       ****     audio_SampleRateTPeriods[AUDIO_SAMPLE_RATE_16K] = 64;
 659              		.loc 1 117 0
 660 000e 403A     		subs	r2, r2, #64
 661 0010 5A61     		str	r2, [r3, #20]
ARM GAS  C:\Users\DMYTRO~1.FED\AppData\Local\Temp\ccpn1oA7.s 			page 17


 118:audio.c       ****     audio_SampleRateTPeriods[AUDIO_SAMPLE_RATE_32K] = 32;
 662              		.loc 1 118 0
 663 0012 203A     		subs	r2, r2, #32
 664 0014 9A61     		str	r2, [r3, #24]
 119:audio.c       ****     audio_SampleRateTPeriods[AUDIO_SAMPLE_RATE_64K] = 16;
 665              		.loc 1 119 0
 666 0016 103A     		subs	r2, r2, #16
 667 0018 DA61     		str	r2, [r3, #28]
 121:audio.c       ****     isInit = true;
 668              		.loc 1 121 0
 669 001a 0F3A     		subs	r2, r2, #15
 670 001c 1A72     		strb	r2, [r3, #8]
 123:audio.c       ****     Isr_TC_StartEx(Isr_TC_Handler);
 671              		.loc 1 123 0
 672 001e 0D48     		ldr	r0, .L62+4
 673 0020 FFF7FEFF 		bl	Isr_TC_StartEx
 674              	.LVL65:
 124:audio.c       ****     PWM_Start();
 675              		.loc 1 124 0
 676 0024 FFF7FEFF 		bl	PWM_Start
 677              	.LVL66:
 126:audio.c       ****     ASSERT(true == audio_SetSampleRate(AUDIO_SAMPLE_RATE_DEFAULT));
 678              		.loc 1 126 0
 679 0028 0220     		movs	r0, #2
 680 002a FFF7FEFF 		bl	audio_SetSampleRate
 681              	.LVL67:
 682 002e 0028     		cmp	r0, #0
 683 0030 05D1     		bne	.L60
 126:audio.c       ****     ASSERT(true == audio_SetSampleRate(AUDIO_SAMPLE_RATE_DEFAULT));
 684              		.loc 1 126 0 is_stmt 0 discriminator 1
 685 0032 7E22     		movs	r2, #126
 686 0034 0849     		ldr	r1, .L62+8
 687 0036 0948     		ldr	r0, .L62+12
 688 0038 FFF7FEFF 		bl	uartPrintf
 689              	.LVL68:
 690              	.L61:
 691 003c FEE7     		b	.L61
 692              	.L60:
 127:audio.c       ****     Timer_audio_Start();
 693              		.loc 1 127 0 is_stmt 1
 694 003e FFF7FEFF 		bl	Timer_audio_Start
 695              	.LVL69:
 128:audio.c       ****     uartPrintf("Audio: Inited.\r\n");
 696              		.loc 1 128 0
 697 0042 0748     		ldr	r0, .L62+16
 698 0044 FFF7FEFF 		bl	uartPrintf
 699              	.LVL70:
 129:audio.c       ****     audio_SetVolume(50);
 700              		.loc 1 129 0
 701 0048 3220     		movs	r0, #50
 702 004a FFF7FEFF 		bl	audio_SetVolume
 703              	.LVL71:
 130:audio.c       **** }
 704              		.loc 1 130 0
 705              		@ sp needed
 706 004e 10BD     		pop	{r4, pc}
 707              	.L63:
ARM GAS  C:\Users\DMYTRO~1.FED\AppData\Local\Temp\ccpn1oA7.s 			page 18


 708              		.align	2
 709              	.L62:
 710 0050 00000000 		.word	.LANCHOR0
 711 0054 00000000 		.word	Isr_TC_Handler
 712 0058 80000000 		.word	.LC16
 713 005c 88000000 		.word	.LC18
 714 0060 28010000 		.word	.LC56
 715              		.cfi_endproc
 716              	.LFE40:
 717              		.size	audio_Init, .-audio_Init
 718              		.section	.text.audio_GetVolume,"ax",%progbits
 719              		.align	2
 720              		.global	audio_GetVolume
 721              		.code	16
 722              		.thumb_func
 723              		.type	audio_GetVolume, %function
 724              	audio_GetVolume:
 725              	.LFB42:
 149:audio.c       **** {
 726              		.loc 1 149 0
 727              		.cfi_startproc
 728              		@ args = 0, pretend = 0, frame = 0
 729              		@ frame_needed = 0, uses_anonymous_args = 0
 730 0000 10B5     		push	{r4, lr}
 731              		.cfi_def_cfa_offset 8
 732              		.cfi_offset 4, -8
 733              		.cfi_offset 14, -4
 150:audio.c       ****     uint8_t retval = volumePerc;
 734              		.loc 1 150 0
 735 0002 064B     		ldr	r3, .L67
 736 0004 2022     		movs	r2, #32
 737 0006 985C     		ldrb	r0, [r3, r2]
 738              	.LVL72:
 152:audio.c       ****     ASSERT(isInit);
 739              		.loc 1 152 0
 740 0008 1B7A     		ldrb	r3, [r3, #8]
 741 000a 002B     		cmp	r3, #0
 742 000c 05D1     		bne	.L65
 152:audio.c       ****     ASSERT(isInit);
 743              		.loc 1 152 0 is_stmt 0 discriminator 1
 744 000e 7832     		adds	r2, r2, #120
 745 0010 0349     		ldr	r1, .L67+4
 746 0012 0448     		ldr	r0, .L67+8
 747              	.LVL73:
 748 0014 FFF7FEFF 		bl	uartPrintf
 749              	.LVL74:
 750              	.L66:
 751 0018 FEE7     		b	.L66
 752              	.LVL75:
 753              	.L65:
 155:audio.c       **** }
 754              		.loc 1 155 0 is_stmt 1
 755              		@ sp needed
 756 001a 10BD     		pop	{r4, pc}
 757              	.L68:
 758              		.align	2
 759              	.L67:
ARM GAS  C:\Users\DMYTRO~1.FED\AppData\Local\Temp\ccpn1oA7.s 			page 19


 760 001c 00000000 		.word	.LANCHOR0
 761 0020 80000000 		.word	.LC16
 762 0024 88000000 		.word	.LC18
 763              		.cfi_endproc
 764              	.LFE42:
 765              		.size	audio_GetVolume, .-audio_GetVolume
 766              		.data
 767              		.set	.LANCHOR1,. + 0
 768              		.type	play, %object
 769              		.size	play, 1
 770              	play:
 771 0000 01       		.byte	1
 772              		.type	sampleRate, %object
 773              		.size	sampleRate, 1
 774              	sampleRate:
 775 0001 05       		.byte	5
 776              		.section	.rodata.str1.4,"aMS",%progbits,1
 777              		.align	2
 778              	.LC3:
 779 0000 41756469 		.ascii	"Audio: Rate 4K\015\012\000"
 779      6F3A2052 
 779      61746520 
 779      344B0D0A 
 779      00
 780 0011 000000   		.space	3
 781              	.LC5:
 782 0014 41756469 		.ascii	"Audio: Rate 8K\015\012\000"
 782      6F3A2052 
 782      61746520 
 782      384B0D0A 
 782      00
 783 0025 000000   		.space	3
 784              	.LC7:
 785 0028 41756469 		.ascii	"Audio: Rate 16K\015\012\000"
 785      6F3A2052 
 785      61746520 
 785      31364B0D 
 785      0A00
 786 003a 0000     		.space	2
 787              	.LC9:
 788 003c 41756469 		.ascii	"Audio: Rate 32K\015\012\000"
 788      6F3A2052 
 788      61746520 
 788      33324B0D 
 788      0A00
 789 004e 0000     		.space	2
 790              	.LC11:
 791 0050 41756469 		.ascii	"Audio: Rate 64K\015\012\000"
 791      6F3A2052 
 791      61746520 
 791      36344B0D 
 791      0A00
 792 0062 0000     		.space	2
 793              	.LC13:
 794 0064 41756469 		.ascii	"Audio: Unknown rate %d\015\012\000"
 794      6F3A2055 
 794      6E6B6E6F 
ARM GAS  C:\Users\DMYTRO~1.FED\AppData\Local\Temp\ccpn1oA7.s 			page 20


 794      776E2072 
 794      61746520 
 795 007d 000000   		.space	3
 796              	.LC16:
 797 0080 61756469 		.ascii	"audio.c\000"
 797      6F2E6300 
 798              	.LC18:
 799 0088 52756E74 		.ascii	"RuntimeError: Assert in file: %s line: %d\015\012\000"
 799      696D6545 
 799      72726F72 
 799      3A204173 
 799      73657274 
 800              	.LC24:
 801 00b4 41756469 		.ascii	"Audio: Started\015\012\000"
 801      6F3A2053 
 801      74617274 
 801      65640D0A 
 801      00
 802 00c5 000000   		.space	3
 803              	.LC30:
 804 00c8 41756469 		.ascii	"Audio: Stopped\015\012\000"
 804      6F3A2053 
 804      746F7070 
 804      65640D0A 
 804      00
 805 00d9 000000   		.space	3
 806              	.LC36:
 807 00dc 41756469 		.ascii	"Audio: Timer rate %d\015\012\000"
 807      6F3A2054 
 807      696D6572 
 807      20726174 
 807      65202564 
 808 00f3 00       		.space	1
 809              	.LC45:
 810 00f4 41756469 		.ascii	"Audio: Callback set.\015\012\000"
 810      6F3A2043 
 810      616C6C62 
 810      61636B20 
 810      7365742E 
 811 010b 00       		.space	1
 812              	.LC50:
 813 010c 41756469 		.ascii	"Audio: Set volume %d %d.\015\012\000"
 813      6F3A2053 
 813      65742076 
 813      6F6C756D 
 813      65202564 
 814 0127 00       		.space	1
 815              	.LC56:
 816 0128 41756469 		.ascii	"Audio: Inited.\015\012\000"
 816      6F3A2049 
 816      6E697465 
 816      642E0D0A 
 816      00
 817              		.bss
 818              		.align	2
 819              		.set	.LANCHOR0,. + 0
 820              		.type	audio_OnTimerCb, %object
ARM GAS  C:\Users\DMYTRO~1.FED\AppData\Local\Temp\ccpn1oA7.s 			page 21


 821              		.size	audio_OnTimerCb, 4
 822              	audio_OnTimerCb:
 823 0000 00000000 		.space	4
 824              		.type	volume, %object
 825              		.size	volume, 4
 826              	volume:
 827 0004 00000000 		.space	4
 828              		.type	isInit, %object
 829              		.size	isInit, 1
 830              	isInit:
 831 0008 00       		.space	1
 832 0009 000000   		.space	3
 833              		.type	audio_SampleRateTPeriods, %object
 834              		.size	audio_SampleRateTPeriods, 20
 835              	audio_SampleRateTPeriods:
 836 000c 00000000 		.space	20
 836      00000000 
 836      00000000 
 836      00000000 
 836      00000000 
 837              		.type	volumePerc, %object
 838              		.size	volumePerc, 1
 839              	volumePerc:
 840 0020 00       		.space	1
 841              		.text
 842              	.Letext0:
 843              		.file 2 "c:\\program files (x86)\\cypress\\psoc creator\\4.2\\psoc creator\\import\\gnu\\arm\\5.4.
 844              		.file 3 "c:\\program files (x86)\\cypress\\psoc creator\\4.2\\psoc creator\\import\\gnu\\arm\\5.4.
 845              		.file 4 "Generated_Source\\PSoC4/cytypes.h"
 846              		.file 5 "audio.h"
 847              		.file 6 "Generated_Source\\PSoC4/Timer_audio.h"
 848              		.file 7 "uartPrint.h"
 849              		.file 8 "Generated_Source\\PSoC4/PWM.h"
 850              		.file 9 "Generated_Source\\PSoC4/Isr_TC.h"