ARM GAS  C:\Users\DMYTRO~1.FED\AppData\Local\Temp\ccu1HwMx.s 			page 1


   1              		.syntax unified
   2              		.cpu cortex-m0plus
   3              		.fpu softvfp
   4              		.eabi_attribute 20, 1
   5              		.eabi_attribute 21, 1
   6              		.eabi_attribute 23, 3
   7              		.eabi_attribute 24, 1
   8              		.eabi_attribute 25, 1
   9              		.eabi_attribute 26, 1
  10              		.eabi_attribute 30, 1
  11              		.eabi_attribute 34, 0
  12              		.eabi_attribute 18, 4
  13              		.thumb
  14              		.syntax unified
  15              		.file	"buffer.c"
  16              		.text
  17              	.Ltext0:
  18              		.cfi_sections	.debug_frame
  19              		.section	.text.buffer_GetNext,"ax",%progbits
  20              		.align	2
  21              		.global	buffer_GetNext
  22              		.code	16
  23              		.thumb_func
  24              		.type	buffer_GetNext, %function
  25              	buffer_GetNext:
  26              	.LFB1:
  27              		.file 1 "buffer.c"
   1:buffer.c      **** /** @file
   2:buffer.c      ****  *  @brief Source file with cicle buffer functions
   3:buffer.c      ****  */  
   4:buffer.c      **** #include <stdlib.h>
   5:buffer.c      **** #include "buffer.h"
   6:buffer.c      **** #include "assert.h"
   7:buffer.c      **** 
   8:buffer.c      **** #define BUFFER_MIDDLE  (BUFFER_SIZE>>1)
   9:buffer.c      **** 
  10:buffer.c      **** typedef struct
  11:buffer.c      **** {
  12:buffer.c      ****     uint8_t              data[BUFFER_SIZE];
  13:buffer.c      ****     uint32_t             lastIdx;
  14:buffer.c      ****     uint32_t             curIdx;
  15:buffer.c      ****     bool                 firstHalf;
  16:buffer.c      ****     buffer_OnNeedDataCb  needDataCb;
  17:buffer.c      ****     bool                 isInit;
  18:buffer.c      ****     bool                 isRun;
  19:buffer.c      **** } buffer_t;
  20:buffer.c      **** 
  21:buffer.c      **** static buffer_t buffer = {.isInit = false, .isRun = false,};
  22:buffer.c      **** 
  23:buffer.c      **** void buffer_Init(buffer_OnNeedDataCb needDataCb)
  24:buffer.c      **** {
  25:buffer.c      ****     buffer_Stop();
  26:buffer.c      ****     ASSERT(NULL != needDataCb);
  27:buffer.c      ****     
  28:buffer.c      ****     buffer.needDataCb = needDataCb;
  29:buffer.c      ****     buffer.isInit     = true; 
  30:buffer.c      ****     
ARM GAS  C:\Users\DMYTRO~1.FED\AppData\Local\Temp\ccu1HwMx.s 			page 2


  31:buffer.c      ****     buffer.needDataCb(buffer.data, sizeof(buffer.data), &buffer.lastIdx);
  32:buffer.c      ****     if (0 != buffer.lastIdx)
  33:buffer.c      ****     {
  34:buffer.c      ****         buffer.isRun = true;
  35:buffer.c      ****     }
  36:buffer.c      **** }
  37:buffer.c      **** 
  38:buffer.c      **** bool buffer_GetNext(uint8_t *next)
  39:buffer.c      **** {   
  28              		.loc 1 39 0
  29              		.cfi_startproc
  30              		@ args = 0, pretend = 0, frame = 0
  31              		@ frame_needed = 0, uses_anonymous_args = 0
  32              	.LVL0:
  33 0000 10B5     		push	{r4, lr}
  34              		.cfi_def_cfa_offset 8
  35              		.cfi_offset 4, -8
  36              		.cfi_offset 14, -4
  40:buffer.c      ****     ASSERT(true == buffer.isInit);
  37              		.loc 1 40 0
  38 0002 8423     		movs	r3, #132
  39 0004 9B00     		lsls	r3, r3, #2
  40 0006 1B4A     		ldr	r2, .L7
  41 0008 D35C     		ldrb	r3, [r2, r3]
  42 000a 002B     		cmp	r3, #0
  43 000c 05D1     		bne	.L2
  44              		.loc 1 40 0 is_stmt 0 discriminator 1
  45 000e 2822     		movs	r2, #40
  46 0010 1949     		ldr	r1, .L7+4
  47 0012 1A48     		ldr	r0, .L7+8
  48              	.LVL1:
  49 0014 FFF7FEFF 		bl	uartPrintf
  50              	.LVL2:
  51              	.L3:
  52 0018 FEE7     		b	.L3
  53              	.LVL3:
  54              	.L2:
  41:buffer.c      ****     if (buffer.isRun)
  55              		.loc 1 41 0 is_stmt 1
  56 001a 194B     		ldr	r3, .L7+12
  57 001c 154A     		ldr	r2, .L7
  58 001e D35C     		ldrb	r3, [r2, r3]
  59 0020 002B     		cmp	r3, #0
  60 0022 22D0     		beq	.L4
  42:buffer.c      ****     {
  43:buffer.c      ****         if ((sizeof(buffer.data) != buffer.lastIdx) && (buffer.curIdx == buffer.lastIdx))
  61              		.loc 1 43 0
  62 0024 8022     		movs	r2, #128
  63 0026 9200     		lsls	r2, r2, #2
  64 0028 124B     		ldr	r3, .L7
  65 002a 9B58     		ldr	r3, [r3, r2]
  66 002c 9342     		cmp	r3, r2
  67 002e 09D0     		beq	.L5
  68              		.loc 1 43 0 is_stmt 0 discriminator 1
  69 0030 0432     		adds	r2, r2, #4
  70 0032 1049     		ldr	r1, .L7
  71 0034 8A58     		ldr	r2, [r1, r2]
ARM GAS  C:\Users\DMYTRO~1.FED\AppData\Local\Temp\ccu1HwMx.s 			page 3


  72 0036 9342     		cmp	r3, r2
  73 0038 04D1     		bne	.L5
  44:buffer.c      ****         {
  45:buffer.c      ****             buffer.isRun = false;
  74              		.loc 1 45 0 is_stmt 1
  75 003a 0021     		movs	r1, #0
  76 003c 104B     		ldr	r3, .L7+12
  77 003e 0D4A     		ldr	r2, .L7
  78 0040 D154     		strb	r1, [r2, r3]
  79 0042 0AE0     		b	.L6
  80              	.L5:
  46:buffer.c      ****         } else
  47:buffer.c      ****         {           
  48:buffer.c      ****             if (sizeof(buffer.data) == buffer.curIdx)
  81              		.loc 1 48 0
  82 0044 8123     		movs	r3, #129
  83 0046 9B00     		lsls	r3, r3, #2
  84 0048 0A4A     		ldr	r2, .L7
  85 004a D258     		ldr	r2, [r2, r3]
  86 004c 043B     		subs	r3, r3, #4
  87 004e 9A42     		cmp	r2, r3
  88 0050 03D1     		bne	.L6
  49:buffer.c      ****             {
  50:buffer.c      ****                 buffer.curIdx = 0;
  89              		.loc 1 50 0
  90 0052 0021     		movs	r1, #0
  91 0054 0433     		adds	r3, r3, #4
  92 0056 074A     		ldr	r2, .L7
  93 0058 D150     		str	r1, [r2, r3]
  94              	.L6:
  51:buffer.c      ****             }
  52:buffer.c      ****         }
  53:buffer.c      ****         *next = buffer.data[buffer.curIdx++]; 
  95              		.loc 1 53 0
  96 005a 064B     		ldr	r3, .L7
  97 005c 8121     		movs	r1, #129
  98 005e 8900     		lsls	r1, r1, #2
  99 0060 5A58     		ldr	r2, [r3, r1]
 100 0062 541C     		adds	r4, r2, #1
 101 0064 5C50     		str	r4, [r3, r1]
 102 0066 9B5C     		ldrb	r3, [r3, r2]
 103 0068 0370     		strb	r3, [r0]
 104              	.L4:
  54:buffer.c      ****     }
  55:buffer.c      ****     
  56:buffer.c      ****     return buffer.isRun;
 105              		.loc 1 56 0
 106 006a 054B     		ldr	r3, .L7+12
 107 006c 014A     		ldr	r2, .L7
 108 006e D05C     		ldrb	r0, [r2, r3]
 109              	.LVL4:
  57:buffer.c      **** }
 110              		.loc 1 57 0
 111              		@ sp needed
 112 0070 10BD     		pop	{r4, pc}
 113              	.L8:
 114 0072 C046     		.align	2
ARM GAS  C:\Users\DMYTRO~1.FED\AppData\Local\Temp\ccu1HwMx.s 			page 4


 115              	.L7:
 116 0074 00000000 		.word	.LANCHOR0
 117 0078 00000000 		.word	.LC1
 118 007c 0C000000 		.word	.LC3
 119 0080 11020000 		.word	529
 120              		.cfi_endproc
 121              	.LFE1:
 122              		.size	buffer_GetNext, .-buffer_GetNext
 123              		.section	.text.buffer_Run,"ax",%progbits
 124              		.align	2
 125              		.global	buffer_Run
 126              		.code	16
 127              		.thumb_func
 128              		.type	buffer_Run, %function
 129              	buffer_Run:
 130              	.LFB2:
  58:buffer.c      **** 
  59:buffer.c      **** void buffer_Run(void)
  60:buffer.c      **** {
 131              		.loc 1 60 0
 132              		.cfi_startproc
 133              		@ args = 0, pretend = 0, frame = 8
 134              		@ frame_needed = 0, uses_anonymous_args = 0
 135 0000 30B5     		push	{r4, r5, lr}
 136              		.cfi_def_cfa_offset 12
 137              		.cfi_offset 4, -12
 138              		.cfi_offset 5, -8
 139              		.cfi_offset 14, -4
 140 0002 83B0     		sub	sp, sp, #12
 141              		.cfi_def_cfa_offset 24
  61:buffer.c      ****     if (buffer.isInit && buffer.isRun)
 142              		.loc 1 61 0
 143 0004 8423     		movs	r3, #132
 144 0006 9B00     		lsls	r3, r3, #2
 145 0008 244A     		ldr	r2, .L13
 146 000a D35C     		ldrb	r3, [r2, r3]
 147 000c 002B     		cmp	r3, #0
 148 000e 43D0     		beq	.L9
 149              		.loc 1 61 0 is_stmt 0 discriminator 1
 150 0010 234B     		ldr	r3, .L13+4
 151 0012 D35C     		ldrb	r3, [r2, r3]
 152 0014 002B     		cmp	r3, #0
 153 0016 3FD0     		beq	.L9
 154              	.LBB2:
  62:buffer.c      ****     {
  63:buffer.c      ****         uint32_t dataReaded = BUFFER_MIDDLE; 
 155              		.loc 1 63 0 is_stmt 1
 156 0018 8023     		movs	r3, #128
 157 001a 5B00     		lsls	r3, r3, #1
 158 001c 0193     		str	r3, [sp, #4]
  64:buffer.c      ****         if (buffer.firstHalf)
 159              		.loc 1 64 0
 160 001e 0933     		adds	r3, r3, #9
 161 0020 FF33     		adds	r3, r3, #255
 162 0022 D35C     		ldrb	r3, [r2, r3]
 163 0024 002B     		cmp	r3, #0
 164 0026 1BD0     		beq	.L11
ARM GAS  C:\Users\DMYTRO~1.FED\AppData\Local\Temp\ccu1HwMx.s 			page 5


  65:buffer.c      ****         {
  66:buffer.c      ****             if (buffer.curIdx >= BUFFER_MIDDLE) /* pointer is outside first half */
 165              		.loc 1 66 0
 166 0028 8123     		movs	r3, #129
 167 002a 9B00     		lsls	r3, r3, #2
 168 002c D358     		ldr	r3, [r2, r3]
 169 002e FF2B     		cmp	r3, #255
 170 0030 32D9     		bls	.L9
  67:buffer.c      ****             {
  68:buffer.c      ****                 buffer.needDataCb(&buffer.data[0], BUFFER_MIDDLE, &dataReaded);  /* populate it */
 171              		.loc 1 68 0
 172 0032 1400     		movs	r4, r2
 173 0034 8323     		movs	r3, #131
 174 0036 9B00     		lsls	r3, r3, #2
 175 0038 D358     		ldr	r3, [r2, r3]
 176 003a 8025     		movs	r5, #128
 177 003c 6D00     		lsls	r5, r5, #1
 178 003e 01AA     		add	r2, sp, #4
 179 0040 2900     		movs	r1, r5
 180 0042 2000     		movs	r0, r4
 181 0044 9847     		blx	r3
 182              	.LVL5:
  69:buffer.c      ****                 buffer.firstHalf = !buffer.firstHalf;
 183              		.loc 1 69 0
 184 0046 8222     		movs	r2, #130
 185 0048 9200     		lsls	r2, r2, #2
 186 004a A15C     		ldrb	r1, [r4, r2]
 187 004c 0123     		movs	r3, #1
 188 004e 4B40     		eors	r3, r1
 189 0050 A354     		strb	r3, [r4, r2]
  70:buffer.c      ****                 if (BUFFER_MIDDLE != dataReaded)
 190              		.loc 1 70 0
 191 0052 019B     		ldr	r3, [sp, #4]
 192 0054 AB42     		cmp	r3, r5
 193 0056 1FD0     		beq	.L9
  71:buffer.c      ****                 {
  72:buffer.c      ****                     buffer.lastIdx = dataReaded;
 194              		.loc 1 72 0
 195 0058 083A     		subs	r2, r2, #8
 196 005a 1049     		ldr	r1, .L13
 197 005c 8B50     		str	r3, [r1, r2]
 198 005e 1BE0     		b	.L9
 199              	.L11:
  73:buffer.c      ****                 }
  74:buffer.c      ****             }
  75:buffer.c      ****         } else
  76:buffer.c      ****         {
  77:buffer.c      ****             if (buffer.curIdx < BUFFER_MIDDLE) /* pointer is outside second half */
 200              		.loc 1 77 0
 201 0060 8123     		movs	r3, #129
 202 0062 9B00     		lsls	r3, r3, #2
 203 0064 0D4A     		ldr	r2, .L13
 204 0066 D358     		ldr	r3, [r2, r3]
 205 0068 FF2B     		cmp	r3, #255
 206 006a 15D8     		bhi	.L9
  78:buffer.c      ****             {
  79:buffer.c      ****                 buffer.needDataCb(&buffer.data[BUFFER_MIDDLE], BUFFER_MIDDLE, &dataReaded);  /* pop
ARM GAS  C:\Users\DMYTRO~1.FED\AppData\Local\Temp\ccu1HwMx.s 			page 6


 207              		.loc 1 79 0
 208 006c 1400     		movs	r4, r2
 209 006e 8323     		movs	r3, #131
 210 0070 9B00     		lsls	r3, r3, #2
 211 0072 D358     		ldr	r3, [r2, r3]
 212 0074 8025     		movs	r5, #128
 213 0076 6D00     		lsls	r5, r5, #1
 214 0078 5019     		adds	r0, r2, r5
 215 007a 01AA     		add	r2, sp, #4
 216 007c 2900     		movs	r1, r5
 217 007e 9847     		blx	r3
 218              	.LVL6:
  80:buffer.c      ****                 buffer.firstHalf = !buffer.firstHalf;
 219              		.loc 1 80 0
 220 0080 8222     		movs	r2, #130
 221 0082 9200     		lsls	r2, r2, #2
 222 0084 A15C     		ldrb	r1, [r4, r2]
 223 0086 0123     		movs	r3, #1
 224 0088 4B40     		eors	r3, r1
 225 008a A354     		strb	r3, [r4, r2]
  81:buffer.c      ****                 if (BUFFER_MIDDLE != dataReaded)
 226              		.loc 1 81 0
 227 008c 019B     		ldr	r3, [sp, #4]
 228 008e AB42     		cmp	r3, r5
 229 0090 02D0     		beq	.L9
  82:buffer.c      ****                 {
  83:buffer.c      ****                     buffer.lastIdx = dataReaded;
 230              		.loc 1 83 0
 231 0092 083A     		subs	r2, r2, #8
 232 0094 0149     		ldr	r1, .L13
 233 0096 8B50     		str	r3, [r1, r2]
 234              	.L9:
 235              	.LBE2:
  84:buffer.c      ****                 }
  85:buffer.c      ****             }
  86:buffer.c      ****         } 
  87:buffer.c      ****     }
  88:buffer.c      **** }
 236              		.loc 1 88 0
 237 0098 03B0     		add	sp, sp, #12
 238              		@ sp needed
 239 009a 30BD     		pop	{r4, r5, pc}
 240              	.L14:
 241              		.align	2
 242              	.L13:
 243 009c 00000000 		.word	.LANCHOR0
 244 00a0 11020000 		.word	529
 245              		.cfi_endproc
 246              	.LFE2:
 247              		.size	buffer_Run, .-buffer_Run
 248              		.section	.text.buffer_Stop,"ax",%progbits
 249              		.align	2
 250              		.global	buffer_Stop
 251              		.code	16
 252              		.thumb_func
 253              		.type	buffer_Stop, %function
 254              	buffer_Stop:
ARM GAS  C:\Users\DMYTRO~1.FED\AppData\Local\Temp\ccu1HwMx.s 			page 7


 255              	.LFB3:
  89:buffer.c      **** 
  90:buffer.c      **** void buffer_Stop(void)
  91:buffer.c      **** {
 256              		.loc 1 91 0
 257              		.cfi_startproc
 258              		@ args = 0, pretend = 0, frame = 0
 259              		@ frame_needed = 0, uses_anonymous_args = 0
 260              		@ link register save eliminated.
  92:buffer.c      ****     buffer.lastIdx    = sizeof(buffer.data);
 261              		.loc 1 92 0
 262 0000 094B     		ldr	r3, .L16
 263 0002 8022     		movs	r2, #128
 264 0004 9200     		lsls	r2, r2, #2
 265 0006 9A50     		str	r2, [r3, r2]
  93:buffer.c      ****     buffer.curIdx     = 0;
 266              		.loc 1 93 0
 267 0008 0022     		movs	r2, #0
 268 000a 8121     		movs	r1, #129
 269 000c 8900     		lsls	r1, r1, #2
 270 000e 5A50     		str	r2, [r3, r1]
  94:buffer.c      ****     buffer.firstHalf  = true;
 271              		.loc 1 94 0
 272 0010 0121     		movs	r1, #1
 273 0012 8220     		movs	r0, #130
 274 0014 8000     		lsls	r0, r0, #2
 275 0016 1954     		strb	r1, [r3, r0]
  95:buffer.c      ****     buffer.needDataCb = NULL;
 276              		.loc 1 95 0
 277 0018 0430     		adds	r0, r0, #4
 278 001a 1A50     		str	r2, [r3, r0]
  96:buffer.c      ****     buffer.isRun      = false;
 279              		.loc 1 96 0
 280 001c 0348     		ldr	r0, .L16+4
 281 001e 1A54     		strb	r2, [r3, r0]
  97:buffer.c      ****     buffer.isInit     = true;
 282              		.loc 1 97 0
 283 0020 8422     		movs	r2, #132
 284 0022 9200     		lsls	r2, r2, #2
 285 0024 9954     		strb	r1, [r3, r2]
  98:buffer.c      **** }
 286              		.loc 1 98 0
 287              		@ sp needed
 288 0026 7047     		bx	lr
 289              	.L17:
 290              		.align	2
 291              	.L16:
 292 0028 00000000 		.word	.LANCHOR0
 293 002c 11020000 		.word	529
 294              		.cfi_endproc
 295              	.LFE3:
 296              		.size	buffer_Stop, .-buffer_Stop
 297              		.section	.text.buffer_Init,"ax",%progbits
 298              		.align	2
 299              		.global	buffer_Init
 300              		.code	16
 301              		.thumb_func
ARM GAS  C:\Users\DMYTRO~1.FED\AppData\Local\Temp\ccu1HwMx.s 			page 8


 302              		.type	buffer_Init, %function
 303              	buffer_Init:
 304              	.LFB0:
  24:buffer.c      ****     buffer_Stop();
 305              		.loc 1 24 0
 306              		.cfi_startproc
 307              		@ args = 0, pretend = 0, frame = 0
 308              		@ frame_needed = 0, uses_anonymous_args = 0
 309              	.LVL7:
 310 0000 70B5     		push	{r4, r5, r6, lr}
 311              		.cfi_def_cfa_offset 16
 312              		.cfi_offset 4, -16
 313              		.cfi_offset 5, -12
 314              		.cfi_offset 6, -8
 315              		.cfi_offset 14, -4
 316 0002 0500     		movs	r5, r0
  25:buffer.c      ****     ASSERT(NULL != needDataCb);
 317              		.loc 1 25 0
 318 0004 FFF7FEFF 		bl	buffer_Stop
 319              	.LVL8:
  26:buffer.c      ****     
 320              		.loc 1 26 0
 321 0008 002D     		cmp	r5, #0
 322 000a 05D1     		bne	.L19
  26:buffer.c      ****     
 323              		.loc 1 26 0 is_stmt 0 discriminator 1
 324 000c 1A22     		movs	r2, #26
 325 000e 0D49     		ldr	r1, .L22
 326 0010 0D48     		ldr	r0, .L22+4
 327 0012 FFF7FEFF 		bl	uartPrintf
 328              	.LVL9:
 329              	.L20:
 330 0016 FEE7     		b	.L20
 331              	.L19:
  28:buffer.c      ****     buffer.isInit     = true; 
 332              		.loc 1 28 0 is_stmt 1
 333 0018 0C4C     		ldr	r4, .L22+8
 334 001a 8323     		movs	r3, #131
 335 001c 9B00     		lsls	r3, r3, #2
 336 001e E550     		str	r5, [r4, r3]
  29:buffer.c      ****     
 337              		.loc 1 29 0
 338 0020 0122     		movs	r2, #1
 339 0022 0433     		adds	r3, r3, #4
 340 0024 E254     		strb	r2, [r4, r3]
  31:buffer.c      ****     if (0 != buffer.lastIdx)
 341              		.loc 1 31 0
 342 0026 103B     		subs	r3, r3, #16
 343 0028 E218     		adds	r2, r4, r3
 344 002a 1E00     		movs	r6, r3
 345 002c 1900     		movs	r1, r3
 346 002e 2000     		movs	r0, r4
 347 0030 A847     		blx	r5
 348              	.LVL10:
  32:buffer.c      ****     {
 349              		.loc 1 32 0
 350 0032 A359     		ldr	r3, [r4, r6]
ARM GAS  C:\Users\DMYTRO~1.FED\AppData\Local\Temp\ccu1HwMx.s 			page 9


 351 0034 002B     		cmp	r3, #0
 352 0036 03D0     		beq	.L18
  34:buffer.c      ****     }
 353              		.loc 1 34 0
 354 0038 0121     		movs	r1, #1
 355 003a 054B     		ldr	r3, .L22+12
 356 003c 034A     		ldr	r2, .L22+8
 357 003e D154     		strb	r1, [r2, r3]
 358              	.L18:
  36:buffer.c      **** 
 359              		.loc 1 36 0
 360              		@ sp needed
 361              	.LVL11:
 362 0040 70BD     		pop	{r4, r5, r6, pc}
 363              	.L23:
 364 0042 C046     		.align	2
 365              	.L22:
 366 0044 00000000 		.word	.LC1
 367 0048 0C000000 		.word	.LC3
 368 004c 00000000 		.word	.LANCHOR0
 369 0050 11020000 		.word	529
 370              		.cfi_endproc
 371              	.LFE0:
 372              		.size	buffer_Init, .-buffer_Init
 373              		.section	.rodata.str1.4,"aMS",%progbits,1
 374              		.align	2
 375              	.LC1:
 376 0000 62756666 		.ascii	"buffer.c\000"
 376      65722E63 
 376      00
 377 0009 000000   		.space	3
 378              	.LC3:
 379 000c 52756E74 		.ascii	"RuntimeError: Assert in file: %s line: %d\015\012\000"
 379      696D6545 
 379      72726F72 
 379      3A204173 
 379      73657274 
 380              		.bss
 381              		.align	2
 382              		.set	.LANCHOR0,. + 0
 383              		.type	buffer, %object
 384              		.size	buffer, 532
 385              	buffer:
 386 0000 00000000 		.space	532
 386      00000000 
 386      00000000 
 386      00000000 
 386      00000000 
 387              		.text
 388              	.Letext0:
 389              		.file 2 "c:\\program files (x86)\\cypress\\psoc creator\\4.2\\psoc creator\\import\\gnu\\arm\\5.4.
 390              		.file 3 "c:\\program files (x86)\\cypress\\psoc creator\\4.2\\psoc creator\\import\\gnu\\arm\\5.4.
 391              		.file 4 "buffer.h"
 392              		.file 5 "uartPrint.h"