ARM GAS  C:\Users\DMYTRO~1.FED\AppData\Local\Temp\ccq0I45c.s 			page 1


   1              		.syntax unified
   2              		.cpu cortex-m0plus
   3              		.fpu softvfp
   4              		.eabi_attribute 20, 1
   5              		.eabi_attribute 21, 1
   6              		.eabi_attribute 23, 3
   7              		.eabi_attribute 24, 1
   8              		.eabi_attribute 25, 1
   9              		.eabi_attribute 26, 1
  10              		.eabi_attribute 30, 1
  11              		.eabi_attribute 34, 0
  12              		.eabi_attribute 18, 4
  13              		.thumb
  14              		.syntax unified
  15              		.file	"card.c"
  16              		.text
  17              	.Ltext0:
  18              		.cfi_sections	.debug_frame
  19              		.section	.text.cardInit,"ax",%progbits
  20              		.align	2
  21              		.global	cardInit
  22              		.code	16
  23              		.thumb_func
  24              		.type	cardInit, %function
  25              	cardInit:
  26              	.LFB35:
  27              		.file 1 "card.c"
   1:card.c        **** /** @file
   2:card.c        ****  *  @brief Source file for fatfs managment functions
   3:card.c        ****  */  
   4:card.c        **** #include "project.h"
   5:card.c        **** #include "card.h"
   6:card.c        **** #include "assert.h"
   7:card.c        **** 
   8:card.c        **** #define SD_CARD_DISABLE 1U
   9:card.c        **** #define SD_CARD_ENABLE  0U
  10:card.c        **** 
  11:card.c        **** const unsigned long rtcYear = 2018;
  12:card.c        **** const unsigned long rtcMonth = 10;
  13:card.c        **** const unsigned long rtcDay = 16;
  14:card.c        **** const unsigned long rtcHour = 10;
  15:card.c        **** const unsigned long rtcMinutes = 32;
  16:card.c        **** const unsigned long rtcSeconds = 0;
  17:card.c        **** FATFS fatFs;
  18:card.c        **** static bool isInit = false;
  19:card.c        **** static bool isMounted = false;
  20:card.c        **** 
  21:card.c        **** bool cardMount(void)
  22:card.c        **** {
  23:card.c        ****     char label[128] = {0};
  24:card.c        ****     DWORD freeclusters;
  25:card.c        ****     DWORD freesectors;
  26:card.c        ****     DWORD totalsectors;
  27:card.c        ****     
  28:card.c        ****     FATFS *fatFsPtr;
  29:card.c        ****     uint8 resultF;
  30:card.c        ****     bool result = false;
ARM GAS  C:\Users\DMYTRO~1.FED\AppData\Local\Temp\ccq0I45c.s 			page 2


  31:card.c        ****     
  32:card.c        ****     ASSERT(isInit);
  33:card.c        ****     
  34:card.c        ****     if (isMounted)
  35:card.c        ****     {
  36:card.c        ****         uartPrintf("SD: Already mounted!\r\n");
  37:card.c        ****         result = true;
  38:card.c        ****     } else
  39:card.c        ****     {
  40:card.c        ****         do {
  41:card.c        ****             resultF = f_mount(&fatFs, "", 1);
  42:card.c        ****             if (RES_OK != resultF)
  43:card.c        ****             {
  44:card.c        ****                 uartPrintf("SD: f_mount failed %d\r\n", resultF);
  45:card.c        ****                 break;
  46:card.c        ****             }
  47:card.c        ****        
  48:card.c        ****             resultF = f_getlabel("", label, 0);
  49:card.c        ****             if (RES_OK != resultF)
  50:card.c        ****             {
  51:card.c        ****                 uartPrintf("SD: f_getlabel failed %d\r\n", resultF);
  52:card.c        ****                 break;
  53:card.c        ****             }
  54:card.c        ****             
  55:card.c        ****            resultF = f_getfree("", &freeclusters, &fatFsPtr);
  56:card.c        ****            if (RES_OK != resultF)
  57:card.c        ****            {
  58:card.c        ****                uartPrintf("SD: f_getfree failed %d\r\n", resultF);
  59:card.c        ****                break;
  60:card.c        ****            }
  61:card.c        ****           
  62:card.c        ****            totalsectors = (fatFsPtr->n_fatent - 2) * fatFsPtr->csize;
  63:card.c        ****            freesectors = freeclusters * fatFsPtr->csize;  
  64:card.c        ****            result = true;
  65:card.c        ****            isMounted = true;
  66:card.c        ****         } while (false); 
  67:card.c        ****         
  68:card.c        ****         if (result)
  69:card.c        ****         {
  70:card.c        ****             uartPrintf("SD: Mounted!\r\n");
  71:card.c        ****             uartPrintf("SD: Label: %s\r\n", label);
  72:card.c        ****             uartPrintf("SD: Free clusters: %d\r\n", freeclusters);
  73:card.c        ****             uartPrintf("SD: Total sectors: %d\r\n", totalsectors);
  74:card.c        ****             uartPrintf("SD: Free sectors: %d\r\n", freesectors);
  75:card.c        ****         }
  76:card.c        ****     }
  77:card.c        ****     
  78:card.c        ****     if (!result)
  79:card.c        ****     {
  80:card.c        ****         cardErrorPrint(resultF);
  81:card.c        ****     } 
  82:card.c        ****     
  83:card.c        ****     return result;
  84:card.c        **** }
  85:card.c        **** 
  86:card.c        **** void cardUmount(void)
  87:card.c        **** {
ARM GAS  C:\Users\DMYTRO~1.FED\AppData\Local\Temp\ccq0I45c.s 			page 3


  88:card.c        ****     uint8 resultF;
  89:card.c        ****     
  90:card.c        ****     ASSERT(isInit);
  91:card.c        **** 
  92:card.c        ****     if (isMounted)
  93:card.c        ****     {
  94:card.c        ****         resultF = f_mount(NULL, "", 1);
  95:card.c        ****         if (RES_OK != resultF)
  96:card.c        ****         {
  97:card.c        ****             cardErrorPrint(resultF);
  98:card.c        ****         }
  99:card.c        ****         
 100:card.c        ****         uartPrintf("SD: Unmounted!\r\n");
 101:card.c        ****         isMounted = false;   
 102:card.c        ****     } else
 103:card.c        ****     {
 104:card.c        ****         uartPrintf("SD: Unmount - not mounted!\r\n");
 105:card.c        ****     }
 106:card.c        **** }
 107:card.c        **** 
 108:card.c        **** void cardInit(void)
 109:card.c        **** {
  28              		.loc 1 109 0
  29              		.cfi_startproc
  30              		@ args = 0, pretend = 0, frame = 0
  31              		@ frame_needed = 0, uses_anonymous_args = 0
  32 0000 10B5     		push	{r4, lr}
  33              		.cfi_def_cfa_offset 8
  34              		.cfi_offset 4, -8
  35              		.cfi_offset 14, -4
 110:card.c        ****     isInit = true;
  36              		.loc 1 110 0
  37 0002 0122     		movs	r2, #1
  38 0004 054B     		ldr	r3, .L2
  39 0006 1A70     		strb	r2, [r3]
 111:card.c        ****     
 112:card.c        ****     SPI_Start();
  40              		.loc 1 112 0
  41 0008 FFF7FEFF 		bl	SPI_Start
  42              	.LVL0:
 113:card.c        ****     SPI_ss0_m_Write(SD_CARD_DISABLE);
  43              		.loc 1 113 0
  44 000c 0120     		movs	r0, #1
  45 000e FFF7FEFF 		bl	SPI_ss0_m_Write
  46              	.LVL1:
 114:card.c        ****     uartPrintf("SD: Inited\r\n");
  47              		.loc 1 114 0
  48 0012 0348     		ldr	r0, .L2+4
  49 0014 FFF7FEFF 		bl	uartPrintf
  50              	.LVL2:
 115:card.c        **** }
  51              		.loc 1 115 0
  52              		@ sp needed
  53 0018 10BD     		pop	{r4, pc}
  54              	.L3:
  55 001a C046     		.align	2
  56              	.L2:
ARM GAS  C:\Users\DMYTRO~1.FED\AppData\Local\Temp\ccq0I45c.s 			page 4


  57 001c 00000000 		.word	.LANCHOR0
  58 0020 00000000 		.word	.LC1
  59              		.cfi_endproc
  60              	.LFE35:
  61              		.size	cardInit, .-cardInit
  62              		.section	.text.cardErrorPrint,"ax",%progbits
  63              		.align	2
  64              		.global	cardErrorPrint
  65              		.code	16
  66              		.thumb_func
  67              		.type	cardErrorPrint, %function
  68              	cardErrorPrint:
  69              	.LFB36:
 116:card.c        **** 
 117:card.c        **** void cardErrorPrint(FRESULT result)
 118:card.c        **** {
  70              		.loc 1 118 0
  71              		.cfi_startproc
  72              		@ args = 0, pretend = 0, frame = 0
  73              		@ frame_needed = 0, uses_anonymous_args = 0
  74              	.LVL3:
  75 0000 10B5     		push	{r4, lr}
  76              		.cfi_def_cfa_offset 8
  77              		.cfi_offset 4, -8
  78              		.cfi_offset 14, -4
 119:card.c        ****     switch (result)
  79              		.loc 1 119 0
  80 0002 1328     		cmp	r0, #19
  81 0004 4ED8     		bhi	.L4
  82 0006 8000     		lsls	r0, r0, #2
  83              	.LVL4:
  84 0008 274B     		ldr	r3, .L26
  85 000a 1B58     		ldr	r3, [r3, r0]
  86 000c 9F46     		mov	pc, r3
  87              		.section	.rodata
  88              		.align	2
  89              	.L7:
  90 0000 A4000000 		.word	.L4
  91 0004 0E000000 		.word	.L6
  92 0008 16000000 		.word	.L8
  93 000c 1E000000 		.word	.L9
  94 0010 26000000 		.word	.L10
  95 0014 2E000000 		.word	.L11
  96 0018 36000000 		.word	.L12
  97 001c 3E000000 		.word	.L13
  98 0020 46000000 		.word	.L14
  99 0024 4E000000 		.word	.L15
 100 0028 56000000 		.word	.L16
 101 002c 5E000000 		.word	.L17
 102 0030 66000000 		.word	.L18
 103 0034 6E000000 		.word	.L19
 104 0038 76000000 		.word	.L20
 105 003c 7E000000 		.word	.L21
 106 0040 86000000 		.word	.L22
 107 0044 8E000000 		.word	.L23
 108 0048 96000000 		.word	.L24
 109 004c 9E000000 		.word	.L25
ARM GAS  C:\Users\DMYTRO~1.FED\AppData\Local\Temp\ccq0I45c.s 			page 5


 110              		.section	.text.cardErrorPrint
 111              	.L6:
 120:card.c        ****     {
 121:card.c        ****         case FR_DISK_ERR:
 122:card.c        ****             uartPrintf("SD: error: (FR_DISK_ERR) low level error.\r\n");
 112              		.loc 1 122 0
 113 000e 2748     		ldr	r0, .L26+4
 114 0010 FFF7FEFF 		bl	uartPrintf
 115              	.LVL5:
 123:card.c        ****             break;
 116              		.loc 1 123 0
 117 0014 46E0     		b	.L4
 118              	.L8:
 124:card.c        ****             
 125:card.c        ****         case FR_INT_ERR:
 126:card.c        ****             uartPrintf("SD: error: (FR_INT_ERR)\r\n");
 119              		.loc 1 126 0
 120 0016 2648     		ldr	r0, .L26+8
 121 0018 FFF7FEFF 		bl	uartPrintf
 122              	.LVL6:
 127:card.c        ****             break; 
 123              		.loc 1 127 0
 124 001c 42E0     		b	.L4
 125              	.L9:
 128:card.c        ****             
 129:card.c        ****         case FR_NOT_READY:
 130:card.c        ****             uartPrintf("SD: error: (FR_NOT_READY) card not ready.\r\n");
 126              		.loc 1 130 0
 127 001e 2548     		ldr	r0, .L26+12
 128 0020 FFF7FEFF 		bl	uartPrintf
 129              	.LVL7:
 131:card.c        ****             break;
 130              		.loc 1 131 0
 131 0024 3EE0     		b	.L4
 132              	.L10:
 132:card.c        ****             
 133:card.c        ****         case FR_NO_FILE:
 134:card.c        ****             uartPrintf("SD: error: (FR_NO_FILE) invalid file.\r\n");
 133              		.loc 1 134 0
 134 0026 2448     		ldr	r0, .L26+16
 135 0028 FFF7FEFF 		bl	uartPrintf
 136              	.LVL8:
 135:card.c        ****             break;
 137              		.loc 1 135 0
 138 002c 3AE0     		b	.L4
 139              	.L11:
 136:card.c        ****             
 137:card.c        ****         case FR_NO_PATH:
 138:card.c        ****             uartPrintf("SD: error: (FR_NO_PATH) invalid path.\r\n");
 140              		.loc 1 138 0
 141 002e 2348     		ldr	r0, .L26+20
 142 0030 FFF7FEFF 		bl	uartPrintf
 143              	.LVL9:
 139:card.c        ****             break;
 144              		.loc 1 139 0
 145 0034 36E0     		b	.L4
 146              	.L12:
ARM GAS  C:\Users\DMYTRO~1.FED\AppData\Local\Temp\ccq0I45c.s 			page 6


 140:card.c        ****             
 141:card.c        ****         case FR_INVALID_NAME:
 142:card.c        ****             uartPrintf("SD: error: (FR_INVALID_NAME) invalid name.\r\n");
 147              		.loc 1 142 0
 148 0036 2248     		ldr	r0, .L26+24
 149 0038 FFF7FEFF 		bl	uartPrintf
 150              	.LVL10:
 143:card.c        ****             break;
 151              		.loc 1 143 0
 152 003c 32E0     		b	.L4
 153              	.L13:
 144:card.c        ****             
 145:card.c        ****         case FR_DENIED:
 146:card.c        ****             uartPrintf("SD: error: (FR_DENIED) operation denied.\r\n");
 154              		.loc 1 146 0
 155 003e 2148     		ldr	r0, .L26+28
 156 0040 FFF7FEFF 		bl	uartPrintf
 157              	.LVL11:
 147:card.c        ****             break;
 158              		.loc 1 147 0
 159 0044 2EE0     		b	.L4
 160              	.L14:
 148:card.c        ****             
 149:card.c        ****         case FR_EXIST:
 150:card.c        ****             uartPrintf("SD: error: (FR_EXIST) it exists yet...\r\n");
 161              		.loc 1 150 0
 162 0046 2048     		ldr	r0, .L26+32
 163 0048 FFF7FEFF 		bl	uartPrintf
 164              	.LVL12:
 151:card.c        ****             break;
 165              		.loc 1 151 0
 166 004c 2AE0     		b	.L4
 167              	.L15:
 152:card.c        ****             
 153:card.c        ****         case FR_INVALID_OBJECT:
 154:card.c        ****             uartPrintf("SD: error: (FR_INVALID_OBJECT)\r\n");
 168              		.loc 1 154 0
 169 004e 1F48     		ldr	r0, .L26+36
 170 0050 FFF7FEFF 		bl	uartPrintf
 171              	.LVL13:
 155:card.c        ****             break;
 172              		.loc 1 155 0
 173 0054 26E0     		b	.L4
 174              	.L16:
 156:card.c        ****             
 157:card.c        ****         case FR_WRITE_PROTECTED:
 158:card.c        ****             uartPrintf("SD: error: (FR_WRITE_PROTECTED)\r\n");
 175              		.loc 1 158 0
 176 0056 1E48     		ldr	r0, .L26+40
 177 0058 FFF7FEFF 		bl	uartPrintf
 178              	.LVL14:
 159:card.c        ****             break;
 179              		.loc 1 159 0
 180 005c 22E0     		b	.L4
 181              	.L17:
 160:card.c        ****             
 161:card.c        ****         case FR_INVALID_DRIVE:
ARM GAS  C:\Users\DMYTRO~1.FED\AppData\Local\Temp\ccq0I45c.s 			page 7


 162:card.c        ****             uartPrintf("SD: error: (FR_INVALID_DRIVE)\r\n");
 182              		.loc 1 162 0
 183 005e 1D48     		ldr	r0, .L26+44
 184 0060 FFF7FEFF 		bl	uartPrintf
 185              	.LVL15:
 163:card.c        ****             break;
 186              		.loc 1 163 0
 187 0064 1EE0     		b	.L4
 188              	.L18:
 164:card.c        ****             
 165:card.c        ****         case FR_NOT_ENABLED:
 166:card.c        ****             uartPrintf("SD: error: (FR_NOT_ENABLED) card unmounted.\r\n");
 189              		.loc 1 166 0
 190 0066 1C48     		ldr	r0, .L26+48
 191 0068 FFF7FEFF 		bl	uartPrintf
 192              	.LVL16:
 167:card.c        ****             break;
 193              		.loc 1 167 0
 194 006c 1AE0     		b	.L4
 195              	.L19:
 168:card.c        ****             
 169:card.c        ****         case FR_NO_FILESYSTEM:
 170:card.c        ****             uartPrintf("SD: error: (FR_NO_FILESYSTEM) no valid FAT volume.\r\n");
 196              		.loc 1 170 0
 197 006e 1B48     		ldr	r0, .L26+52
 198 0070 FFF7FEFF 		bl	uartPrintf
 199              	.LVL17:
 171:card.c        ****             break;  
 200              		.loc 1 171 0
 201 0074 16E0     		b	.L4
 202              	.L20:
 172:card.c        ****             
 173:card.c        ****         case FR_MKFS_ABORTED:
 174:card.c        ****             uartPrintf("SD: error: (FR_MKFS_ABORTED)\r\n");
 203              		.loc 1 174 0
 204 0076 1A48     		ldr	r0, .L26+56
 205 0078 FFF7FEFF 		bl	uartPrintf
 206              	.LVL18:
 175:card.c        ****             break;
 207              		.loc 1 175 0
 208 007c 12E0     		b	.L4
 209              	.L21:
 176:card.c        ****             
 177:card.c        ****         case FR_TIMEOUT:
 178:card.c        ****             uartPrintf("SD: error: (FR_TIMEOUT)\r\n");
 210              		.loc 1 178 0
 211 007e 1948     		ldr	r0, .L26+60
 212 0080 FFF7FEFF 		bl	uartPrintf
 213              	.LVL19:
 179:card.c        ****             break;
 214              		.loc 1 179 0
 215 0084 0EE0     		b	.L4
 216              	.L22:
 180:card.c        ****             
 181:card.c        ****         case FR_LOCKED:
 182:card.c        ****             uartPrintf("SD: error: (FR_LOCKED)\r\n");
 217              		.loc 1 182 0
ARM GAS  C:\Users\DMYTRO~1.FED\AppData\Local\Temp\ccq0I45c.s 			page 8


 218 0086 1848     		ldr	r0, .L26+64
 219 0088 FFF7FEFF 		bl	uartPrintf
 220              	.LVL20:
 183:card.c        ****             break;
 221              		.loc 1 183 0
 222 008c 0AE0     		b	.L4
 223              	.L23:
 184:card.c        ****             
 185:card.c        ****         case FR_NOT_ENOUGH_CORE:
 186:card.c        ****             uartPrintf("SD: error: (FR_NOT_ENOUGH_CORE)\r\n");
 224              		.loc 1 186 0
 225 008e 1748     		ldr	r0, .L26+68
 226 0090 FFF7FEFF 		bl	uartPrintf
 227              	.LVL21:
 187:card.c        ****             break;     
 228              		.loc 1 187 0
 229 0094 06E0     		b	.L4
 230              	.L24:
 188:card.c        ****             
 189:card.c        ****         case FR_TOO_MANY_OPEN_FILES:
 190:card.c        ****             uartPrintf("SD: error: (FR_TOO_MANY_OPEN_FILES)\r\n");
 231              		.loc 1 190 0
 232 0096 1648     		ldr	r0, .L26+72
 233 0098 FFF7FEFF 		bl	uartPrintf
 234              	.LVL22:
 191:card.c        ****             break;
 235              		.loc 1 191 0
 236 009c 02E0     		b	.L4
 237              	.L25:
 192:card.c        ****             
 193:card.c        ****         case FR_INVALID_PARAMETER:
 194:card.c        ****             uartPrintf("SD: error: (FR_INVALID_PARAMETER)\r\n"); 
 238              		.loc 1 194 0
 239 009e 1548     		ldr	r0, .L26+76
 240 00a0 FFF7FEFF 		bl	uartPrintf
 241              	.LVL23:
 242              	.L4:
 195:card.c        ****             break; 
 196:card.c        ****             
 197:card.c        ****         default: 
 198:card.c        ****             break;
 199:card.c        ****     }
 200:card.c        **** }
 243              		.loc 1 200 0
 244              		@ sp needed
 245 00a4 10BD     		pop	{r4, pc}
 246              	.L27:
 247 00a6 C046     		.align	2
 248              	.L26:
 249 00a8 00000000 		.word	.L7
 250 00ac 10000000 		.word	.LC4
 251 00b0 3C000000 		.word	.LC6
 252 00b4 58000000 		.word	.LC8
 253 00b8 84000000 		.word	.LC10
 254 00bc AC000000 		.word	.LC12
 255 00c0 D4000000 		.word	.LC14
 256 00c4 04010000 		.word	.LC16
ARM GAS  C:\Users\DMYTRO~1.FED\AppData\Local\Temp\ccq0I45c.s 			page 9


 257 00c8 30010000 		.word	.LC18
 258 00cc 5C010000 		.word	.LC20
 259 00d0 80010000 		.word	.LC22
 260 00d4 A4010000 		.word	.LC24
 261 00d8 C4010000 		.word	.LC26
 262 00dc F4010000 		.word	.LC28
 263 00e0 2C020000 		.word	.LC30
 264 00e4 4C020000 		.word	.LC32
 265 00e8 68020000 		.word	.LC34
 266 00ec 84020000 		.word	.LC36
 267 00f0 A8020000 		.word	.LC38
 268 00f4 D0020000 		.word	.LC40
 269              		.cfi_endproc
 270              	.LFE36:
 271              		.size	cardErrorPrint, .-cardErrorPrint
 272              		.section	.text.cardMount,"ax",%progbits
 273              		.align	2
 274              		.global	cardMount
 275              		.code	16
 276              		.thumb_func
 277              		.type	cardMount, %function
 278              	cardMount:
 279              	.LFB33:
  22:card.c        ****     char label[128] = {0};
 280              		.loc 1 22 0
 281              		.cfi_startproc
 282              		@ args = 0, pretend = 0, frame = 136
 283              		@ frame_needed = 0, uses_anonymous_args = 0
 284 0000 F0B5     		push	{r4, r5, r6, r7, lr}
 285              		.cfi_def_cfa_offset 20
 286              		.cfi_offset 4, -20
 287              		.cfi_offset 5, -16
 288              		.cfi_offset 6, -12
 289              		.cfi_offset 7, -8
 290              		.cfi_offset 14, -4
 291 0002 A3B0     		sub	sp, sp, #140
 292              		.cfi_def_cfa_offset 160
  23:card.c        ****     DWORD freeclusters;
 293              		.loc 1 23 0
 294 0004 8022     		movs	r2, #128
 295 0006 0021     		movs	r1, #0
 296 0008 02A8     		add	r0, sp, #8
 297 000a FFF7FEFF 		bl	memset
 298              	.LVL24:
  32:card.c        ****     
 299              		.loc 1 32 0
 300 000e 314B     		ldr	r3, .L38
 301 0010 1B78     		ldrb	r3, [r3]
 302 0012 002B     		cmp	r3, #0
 303 0014 05D1     		bne	.L29
  32:card.c        ****     
 304              		.loc 1 32 0 is_stmt 0 discriminator 1
 305 0016 2022     		movs	r2, #32
 306 0018 2F49     		ldr	r1, .L38+4
 307 001a 3048     		ldr	r0, .L38+8
 308 001c FFF7FEFF 		bl	uartPrintf
 309              	.LVL25:
ARM GAS  C:\Users\DMYTRO~1.FED\AppData\Local\Temp\ccq0I45c.s 			page 10


 310              	.L30:
 311 0020 FEE7     		b	.L30
 312              	.L29:
  34:card.c        ****     {
 313              		.loc 1 34 0 is_stmt 1
 314 0022 2C4B     		ldr	r3, .L38
 315 0024 5B78     		ldrb	r3, [r3, #1]
 316 0026 002B     		cmp	r3, #0
 317 0028 04D0     		beq	.L31
  36:card.c        ****         result = true;
 318              		.loc 1 36 0
 319 002a 2D48     		ldr	r0, .L38+12
 320 002c FFF7FEFF 		bl	uartPrintf
 321              	.LVL26:
  37:card.c        ****     } else
 322              		.loc 1 37 0
 323 0030 0124     		movs	r4, #1
 324 0032 46E0     		b	.L32
 325              	.LVL27:
 326              	.L31:
  41:card.c        ****             if (RES_OK != resultF)
 327              		.loc 1 41 0
 328 0034 0122     		movs	r2, #1
 329 0036 2B49     		ldr	r1, .L38+16
 330 0038 2B48     		ldr	r0, .L38+20
 331 003a FFF7FEFF 		bl	f_mount
 332              	.LVL28:
 333 003e 0100     		movs	r1, r0
 334 0040 051E     		subs	r5, r0, #0
 335              	.LVL29:
  42:card.c        ****             {
 336              		.loc 1 42 0
 337 0042 04D0     		beq	.L33
  44:card.c        ****                 break;
 338              		.loc 1 44 0
 339 0044 2948     		ldr	r0, .L38+24
 340              	.LVL30:
 341 0046 FFF7FEFF 		bl	uartPrintf
 342              	.LVL31:
  30:card.c        ****     
 343              		.loc 1 30 0
 344 004a 0024     		movs	r4, #0
  45:card.c        ****             }
 345              		.loc 1 45 0
 346 004c 24E0     		b	.L34
 347              	.LVL32:
 348              	.L33:
  48:card.c        ****             if (RES_OK != resultF)
 349              		.loc 1 48 0
 350 004e 0022     		movs	r2, #0
 351 0050 02A9     		add	r1, sp, #8
 352 0052 2448     		ldr	r0, .L38+16
 353              	.LVL33:
 354 0054 FFF7FEFF 		bl	f_getlabel
 355              	.LVL34:
 356 0058 0100     		movs	r1, r0
 357 005a 051E     		subs	r5, r0, #0
ARM GAS  C:\Users\DMYTRO~1.FED\AppData\Local\Temp\ccq0I45c.s 			page 11


 358              	.LVL35:
  49:card.c        ****             {
 359              		.loc 1 49 0
 360 005c 04D0     		beq	.L35
  51:card.c        ****                 break;
 361              		.loc 1 51 0
 362 005e 2448     		ldr	r0, .L38+28
 363              	.LVL36:
 364 0060 FFF7FEFF 		bl	uartPrintf
 365              	.LVL37:
  30:card.c        ****     
 366              		.loc 1 30 0
 367 0064 0024     		movs	r4, #0
  52:card.c        ****             }
 368              		.loc 1 52 0
 369 0066 17E0     		b	.L34
 370              	.LVL38:
 371              	.L35:
  55:card.c        ****            if (RES_OK != resultF)
 372              		.loc 1 55 0
 373 0068 6A46     		mov	r2, sp
 374 006a 01A9     		add	r1, sp, #4
 375 006c 1D48     		ldr	r0, .L38+16
 376              	.LVL39:
 377 006e FFF7FEFF 		bl	f_getfree
 378              	.LVL40:
 379 0072 0100     		movs	r1, r0
 380 0074 051E     		subs	r5, r0, #0
 381              	.LVL41:
  56:card.c        ****            {
 382              		.loc 1 56 0
 383 0076 04D0     		beq	.L36
  58:card.c        ****                break;
 384              		.loc 1 58 0
 385 0078 1E48     		ldr	r0, .L38+32
 386              	.LVL42:
 387 007a FFF7FEFF 		bl	uartPrintf
 388              	.LVL43:
  30:card.c        ****     
 389              		.loc 1 30 0
 390 007e 0024     		movs	r4, #0
  59:card.c        ****            }
 391              		.loc 1 59 0
 392 0080 0AE0     		b	.L34
 393              	.LVL44:
 394              	.L36:
  62:card.c        ****            freesectors = freeclusters * fatFsPtr->csize;  
 395              		.loc 1 62 0
 396 0082 009B     		ldr	r3, [sp]
 397 0084 9A69     		ldr	r2, [r3, #24]
 398 0086 961E     		subs	r6, r2, #2
 399 0088 9F78     		ldrb	r7, [r3, #2]
 400 008a 7E43     		muls	r6, r7
 401              	.LVL45:
  63:card.c        ****            result = true;
 402              		.loc 1 63 0
 403 008c 019B     		ldr	r3, [sp, #4]
ARM GAS  C:\Users\DMYTRO~1.FED\AppData\Local\Temp\ccq0I45c.s 			page 12


 404 008e 5F43     		muls	r7, r3
 405              	.LVL46:
  65:card.c        ****         } while (false); 
 406              		.loc 1 65 0
 407 0090 0122     		movs	r2, #1
 408 0092 104B     		ldr	r3, .L38
 409 0094 5A70     		strb	r2, [r3, #1]
  64:card.c        ****            isMounted = true;
 410              		.loc 1 64 0
 411 0096 0124     		movs	r4, #1
 412              	.LVL47:
 413              	.L34:
  68:card.c        ****         {
 414              		.loc 1 68 0
 415 0098 002C     		cmp	r4, #0
 416 009a 12D0     		beq	.L32
  70:card.c        ****             uartPrintf("SD: Label: %s\r\n", label);
 417              		.loc 1 70 0
 418 009c 1648     		ldr	r0, .L38+36
 419 009e FFF7FEFF 		bl	uartPrintf
 420              	.LVL48:
  71:card.c        ****             uartPrintf("SD: Free clusters: %d\r\n", freeclusters);
 421              		.loc 1 71 0
 422 00a2 02A9     		add	r1, sp, #8
 423 00a4 1548     		ldr	r0, .L38+40
 424 00a6 FFF7FEFF 		bl	uartPrintf
 425              	.LVL49:
  72:card.c        ****             uartPrintf("SD: Total sectors: %d\r\n", totalsectors);
 426              		.loc 1 72 0
 427 00aa 0199     		ldr	r1, [sp, #4]
 428 00ac 1448     		ldr	r0, .L38+44
 429 00ae FFF7FEFF 		bl	uartPrintf
 430              	.LVL50:
  73:card.c        ****             uartPrintf("SD: Free sectors: %d\r\n", freesectors);
 431              		.loc 1 73 0
 432 00b2 3100     		movs	r1, r6
 433 00b4 1348     		ldr	r0, .L38+48
 434 00b6 FFF7FEFF 		bl	uartPrintf
 435              	.LVL51:
  74:card.c        ****         }
 436              		.loc 1 74 0
 437 00ba 3900     		movs	r1, r7
 438 00bc 1248     		ldr	r0, .L38+52
 439 00be FFF7FEFF 		bl	uartPrintf
 440              	.LVL52:
 441              	.L32:
  78:card.c        ****     {
 442              		.loc 1 78 0
 443 00c2 002C     		cmp	r4, #0
 444 00c4 02D1     		bne	.L37
  80:card.c        ****     } 
 445              		.loc 1 80 0
 446 00c6 2800     		movs	r0, r5
 447 00c8 FFF7FEFF 		bl	cardErrorPrint
 448              	.LVL53:
 449              	.L37:
  84:card.c        **** 
ARM GAS  C:\Users\DMYTRO~1.FED\AppData\Local\Temp\ccq0I45c.s 			page 13


 450              		.loc 1 84 0
 451 00cc 2000     		movs	r0, r4
 452 00ce 23B0     		add	sp, sp, #140
 453              		@ sp needed
 454              	.LVL54:
 455              	.LVL55:
 456 00d0 F0BD     		pop	{r4, r5, r6, r7, pc}
 457              	.L39:
 458 00d2 C046     		.align	2
 459              	.L38:
 460 00d4 00000000 		.word	.LANCHOR0
 461 00d8 F4020000 		.word	.LC43
 462 00dc FC020000 		.word	.LC45
 463 00e0 28030000 		.word	.LC47
 464 00e4 40030000 		.word	.LC49
 465 00e8 00000000 		.word	fatFs
 466 00ec 44030000 		.word	.LC52
 467 00f0 5C030000 		.word	.LC54
 468 00f4 78030000 		.word	.LC56
 469 00f8 94030000 		.word	.LC58
 470 00fc A4030000 		.word	.LC60
 471 0100 B4030000 		.word	.LC62
 472 0104 CC030000 		.word	.LC64
 473 0108 E4030000 		.word	.LC66
 474              		.cfi_endproc
 475              	.LFE33:
 476              		.size	cardMount, .-cardMount
 477              		.section	.text.cardUmount,"ax",%progbits
 478              		.align	2
 479              		.global	cardUmount
 480              		.code	16
 481              		.thumb_func
 482              		.type	cardUmount, %function
 483              	cardUmount:
 484              	.LFB34:
  87:card.c        ****     uint8 resultF;
 485              		.loc 1 87 0
 486              		.cfi_startproc
 487              		@ args = 0, pretend = 0, frame = 0
 488              		@ frame_needed = 0, uses_anonymous_args = 0
 489 0000 10B5     		push	{r4, lr}
 490              		.cfi_def_cfa_offset 8
 491              		.cfi_offset 4, -8
 492              		.cfi_offset 14, -4
  90:card.c        **** 
 493              		.loc 1 90 0
 494 0002 114B     		ldr	r3, .L46
 495 0004 1B78     		ldrb	r3, [r3]
 496 0006 002B     		cmp	r3, #0
 497 0008 05D1     		bne	.L41
  90:card.c        **** 
 498              		.loc 1 90 0 is_stmt 0 discriminator 1
 499 000a 5A22     		movs	r2, #90
 500 000c 0F49     		ldr	r1, .L46+4
 501 000e 1048     		ldr	r0, .L46+8
 502 0010 FFF7FEFF 		bl	uartPrintf
 503              	.LVL56:
ARM GAS  C:\Users\DMYTRO~1.FED\AppData\Local\Temp\ccq0I45c.s 			page 14


 504              	.L42:
 505 0014 FEE7     		b	.L42
 506              	.L41:
  92:card.c        ****     {
 507              		.loc 1 92 0 is_stmt 1
 508 0016 0C4B     		ldr	r3, .L46
 509 0018 5B78     		ldrb	r3, [r3, #1]
 510 001a 002B     		cmp	r3, #0
 511 001c 0FD0     		beq	.L43
  94:card.c        ****         if (RES_OK != resultF)
 512              		.loc 1 94 0
 513 001e 0122     		movs	r2, #1
 514 0020 0C49     		ldr	r1, .L46+12
 515 0022 0020     		movs	r0, #0
 516 0024 FFF7FEFF 		bl	f_mount
 517              	.LVL57:
  95:card.c        ****         {
 518              		.loc 1 95 0
 519 0028 0028     		cmp	r0, #0
 520 002a 01D0     		beq	.L44
  97:card.c        ****         }
 521              		.loc 1 97 0
 522 002c FFF7FEFF 		bl	cardErrorPrint
 523              	.LVL58:
 524              	.L44:
 100:card.c        ****         isMounted = false;   
 525              		.loc 1 100 0
 526 0030 0948     		ldr	r0, .L46+16
 527 0032 FFF7FEFF 		bl	uartPrintf
 528              	.LVL59:
 101:card.c        ****     } else
 529              		.loc 1 101 0
 530 0036 0022     		movs	r2, #0
 531 0038 034B     		ldr	r3, .L46
 532 003a 5A70     		strb	r2, [r3, #1]
 533 003c 02E0     		b	.L40
 534              	.L43:
 104:card.c        ****     }
 535              		.loc 1 104 0
 536 003e 0748     		ldr	r0, .L46+20
 537 0040 FFF7FEFF 		bl	uartPrintf
 538              	.LVL60:
 539              	.L40:
 106:card.c        **** 
 540              		.loc 1 106 0
 541              		@ sp needed
 542 0044 10BD     		pop	{r4, pc}
 543              	.L47:
 544 0046 C046     		.align	2
 545              	.L46:
 546 0048 00000000 		.word	.LANCHOR0
 547 004c F4020000 		.word	.LC43
 548 0050 FC020000 		.word	.LC45
 549 0054 40030000 		.word	.LC49
 550 0058 FC030000 		.word	.LC72
 551 005c 10040000 		.word	.LC74
 552              		.cfi_endproc
ARM GAS  C:\Users\DMYTRO~1.FED\AppData\Local\Temp\ccq0I45c.s 			page 15


 553              	.LFE34:
 554              		.size	cardUmount, .-cardUmount
 555              		.section	.text.get_fattime,"ax",%progbits
 556              		.align	2
 557              		.global	get_fattime
 558              		.code	16
 559              		.thumb_func
 560              		.type	get_fattime, %function
 561              	get_fattime:
 562              	.LFB37:
 201:card.c        **** 
 202:card.c        **** DWORD get_fattime()
 203:card.c        **** {
 563              		.loc 1 203 0
 564              		.cfi_startproc
 565              		@ args = 0, pretend = 0, frame = 0
 566              		@ frame_needed = 0, uses_anonymous_args = 0
 567              		@ link register save eliminated.
 204:card.c        **** 	return (((DWORD)rtcYear - 1980) << 25) | ((DWORD)rtcMonth << 21) | ((DWORD)rtcDay << 16)| (WORD)(r
 205:card.c        ****             (WORD)(rtcMinutes << 5)	| (WORD)(rtcSeconds >> 1);;
 206:card.c        **** }...
 568              		.loc 1 206 0
 569 0000 0048     		ldr	r0, .L49
 570              		@ sp needed
 571 0002 7047     		bx	lr
 572              	.L50:
 573              		.align	2
 574              	.L49:
 575 0004 0054504D 		.word	1297110016
 576              		.cfi_endproc
 577              	.LFE37:
 578              		.size	get_fattime, .-get_fattime
 579              		.comm	fatFs,564,4
 580              		.global	rtcSeconds
 581              		.global	rtcMinutes
 582              		.global	rtcHour
 583              		.global	rtcDay
 584              		.global	rtcMonth
 585              		.global	rtcYear
 586              		.section	.rodata
 587              		.align	2
 588              		.type	rtcSeconds, %object
 589              		.size	rtcSeconds, 4
 590              	rtcSeconds:
 591 0050 00000000 		.space	4
 592              		.type	rtcMinutes, %object
 593              		.size	rtcMinutes, 4
 594              	rtcMinutes:
 595 0054 20000000 		.word	32
 596              		.type	rtcHour, %object
 597              		.size	rtcHour, 4
 598              	rtcHour:
 599 0058 0A000000 		.word	10
 600              		.type	rtcDay, %object
 601              		.size	rtcDay, 4
 602              	rtcDay:
 603 005c 10000000 		.word	16
ARM GAS  C:\Users\DMYTRO~1.FED\AppData\Local\Temp\ccq0I45c.s 			page 16


 604              		.type	rtcMonth, %object
 605              		.size	rtcMonth, 4
 606              	rtcMonth:
 607 0060 0A000000 		.word	10
 608              		.type	rtcYear, %object
 609              		.size	rtcYear, 4
 610              	rtcYear:
 611 0064 E2070000 		.word	2018
 612              		.section	.rodata.str1.4,"aMS",%progbits,1
 613              		.align	2
 614              	.LC1:
 615 0000 53443A20 		.ascii	"SD: Inited\015\012\000"
 615      496E6974 
 615      65640D0A 
 615      00
 616 000d 000000   		.space	3
 617              	.LC4:
 618 0010 53443A20 		.ascii	"SD: error: (FR_DISK_ERR) low level error.\015\012\000"
 618      6572726F 
 618      723A2028 
 618      46525F44 
 618      49534B5F 
 619              	.LC6:
 620 003c 53443A20 		.ascii	"SD: error: (FR_INT_ERR)\015\012\000"
 620      6572726F 
 620      723A2028 
 620      46525F49 
 620      4E545F45 
 621 0056 0000     		.space	2
 622              	.LC8:
 623 0058 53443A20 		.ascii	"SD: error: (FR_NOT_READY) card not ready.\015\012\000"
 623      6572726F 
 623      723A2028 
 623      46525F4E 
 623      4F545F52 
 624              	.LC10:
 625 0084 53443A20 		.ascii	"SD: error: (FR_NO_FILE) invalid file.\015\012\000"
 625      6572726F 
 625      723A2028 
 625      46525F4E 
 625      4F5F4649 
 626              	.LC12:
 627 00ac 53443A20 		.ascii	"SD: error: (FR_NO_PATH) invalid path.\015\012\000"
 627      6572726F 
 627      723A2028 
 627      46525F4E 
 627      4F5F5041 
 628              	.LC14:
 629 00d4 53443A20 		.ascii	"SD: error: (FR_INVALID_NAME) invalid name.\015\012\000"
 629      6572726F 
 629      723A2028 
 629      46525F49 
 629      4E56414C 
 630 0101 000000   		.space	3
 631              	.LC16:
 632 0104 53443A20 		.ascii	"SD: error: (FR_DENIED) operation denied.\015\012\000"
 632      6572726F 
ARM GAS  C:\Users\DMYTRO~1.FED\AppData\Local\Temp\ccq0I45c.s 			page 17


 632      723A2028 
 632      46525F44 
 632      454E4945 
 633 012f 00       		.space	1
 634              	.LC18:
 635 0130 53443A20 		.ascii	"SD: error: (FR_EXIST) it exists yet...\015\012\000"
 635      6572726F 
 635      723A2028 
 635      46525F45 
 635      58495354 
 636 0159 000000   		.space	3
 637              	.LC20:
 638 015c 53443A20 		.ascii	"SD: error: (FR_INVALID_OBJECT)\015\012\000"
 638      6572726F 
 638      723A2028 
 638      46525F49 
 638      4E56414C 
 639 017d 000000   		.space	3
 640              	.LC22:
 641 0180 53443A20 		.ascii	"SD: error: (FR_WRITE_PROTECTED)\015\012\000"
 641      6572726F 
 641      723A2028 
 641      46525F57 
 641      52495445 
 642 01a2 0000     		.space	2
 643              	.LC24:
 644 01a4 53443A20 		.ascii	"SD: error: (FR_INVALID_DRIVE)\015\012\000"
 644      6572726F 
 644      723A2028 
 644      46525F49 
 644      4E56414C 
 645              	.LC26:
 646 01c4 53443A20 		.ascii	"SD: error: (FR_NOT_ENABLED) card unmounted.\015\012"
 646      6572726F 
 646      723A2028 
 646      46525F4E 
 646      4F545F45 
 647 01f1 00       		.ascii	"\000"
 648 01f2 0000     		.space	2
 649              	.LC28:
 650 01f4 53443A20 		.ascii	"SD: error: (FR_NO_FILESYSTEM) no valid FAT volume.\015"
 650      6572726F 
 650      723A2028 
 650      46525F4E 
 650      4F5F4649 
 651 0227 0A00     		.ascii	"\012\000"
 652 0229 000000   		.space	3
 653              	.LC30:
 654 022c 53443A20 		.ascii	"SD: error: (FR_MKFS_ABORTED)\015\012\000"
 654      6572726F 
 654      723A2028 
 654      46525F4D 
 654      4B46535F 
 655 024b 00       		.space	1
 656              	.LC32:
 657 024c 53443A20 		.ascii	"SD: error: (FR_TIMEOUT)\015\012\000"
 657      6572726F 
ARM GAS  C:\Users\DMYTRO~1.FED\AppData\Local\Temp\ccq0I45c.s 			page 18


 657      723A2028 
 657      46525F54 
 657      494D454F 
 658 0266 0000     		.space	2
 659              	.LC34:
 660 0268 53443A20 		.ascii	"SD: error: (FR_LOCKED)\015\012\000"
 660      6572726F 
 660      723A2028 
 660      46525F4C 
 660      4F434B45 
 661 0281 000000   		.space	3
 662              	.LC36:
 663 0284 53443A20 		.ascii	"SD: error: (FR_NOT_ENOUGH_CORE)\015\012\000"
 663      6572726F 
 663      723A2028 
 663      46525F4E 
 663      4F545F45 
 664 02a6 0000     		.space	2
 665              	.LC38:
 666 02a8 53443A20 		.ascii	"SD: error: (FR_TOO_MANY_OPEN_FILES)\015\012\000"
 666      6572726F 
 666      723A2028 
 666      46525F54 
 666      4F4F5F4D 
 667 02ce 0000     		.space	2
 668              	.LC40:
 669 02d0 53443A20 		.ascii	"SD: error: (FR_INVALID_PARAMETER)\015\012\000"
 669      6572726F 
 669      723A2028 
 669      46525F49 
 669      4E56414C 
 670              	.LC43:
 671 02f4 63617264 		.ascii	"card.c\000"
 671      2E6300
 672 02fb 00       		.space	1
 673              	.LC45:
 674 02fc 52756E74 		.ascii	"RuntimeError: Assert in file: %s line: %d\015\012\000"
 674      696D6545 
 674      72726F72 
 674      3A204173 
 674      73657274 
 675              	.LC47:
 676 0328 53443A20 		.ascii	"SD: Already mounted!\015\012\000"
 676      416C7265 
 676      61647920 
 676      6D6F756E 
 676      74656421 
 677 033f 00       		.space	1
 678              	.LC49:
 679 0340 00       		.ascii	"\000"
 680 0341 000000   		.space	3
 681              	.LC52:
 682 0344 53443A20 		.ascii	"SD: f_mount failed %d\015\012\000"
 682      665F6D6F 
 682      756E7420 
 682      6661696C 
 682      65642025 
ARM GAS  C:\Users\DMYTRO~1.FED\AppData\Local\Temp\ccq0I45c.s 			page 19


 683              	.LC54:
 684 035c 53443A20 		.ascii	"SD: f_getlabel failed %d\015\012\000"
 684      665F6765 
 684      746C6162 
 684      656C2066 
 684      61696C65 
 685 0377 00       		.space	1
 686              	.LC56:
 687 0378 53443A20 		.ascii	"SD: f_getfree failed %d\015\012\000"
 687      665F6765 
 687      74667265 
 687      65206661 
 687      696C6564 
 688 0392 0000     		.space	2
 689              	.LC58:
 690 0394 53443A20 		.ascii	"SD: Mounted!\015\012\000"
 690      4D6F756E 
 690      74656421 
 690      0D0A00
 691 03a3 00       		.space	1
 692              	.LC60:
 693 03a4 53443A20 		.ascii	"SD: Label: %s\015\012\000"
 693      4C616265 
 693      6C3A2025 
 693      730D0A00 
 694              	.LC62:
 695 03b4 53443A20 		.ascii	"SD: Free clusters: %d\015\012\000"
 695      46726565 
 695      20636C75 
 695      73746572 
 695      733A2025 
 696              	.LC64:
 697 03cc 53443A20 		.ascii	"SD: Total sectors: %d\015\012\000"
 697      546F7461 
 697      6C207365 
 697      63746F72 
 697      733A2025 
 698              	.LC66:
 699 03e4 53443A20 		.ascii	"SD: Free sectors: %d\015\012\000"
 699      46726565 
 699      20736563 
 699      746F7273 
 699      3A202564 
 700 03fb 00       		.space	1
 701              	.LC72:
 702 03fc 53443A20 		.ascii	"SD: Unmounted!\015\012\000"
 702      556E6D6F 
 702      756E7465 
 702      64210D0A 
 702      00
 703 040d 000000   		.space	3
 704              	.LC74:
 705 0410 53443A20 		.ascii	"SD: Unmount - not mounted!\015\012\000"
 705      556E6D6F 
 705      756E7420 
 705      2D206E6F 
 705      74206D6F 
ARM GAS  C:\Users\DMYTRO~1.FED\AppData\Local\Temp\ccq0I45c.s 			page 20


 706              		.bss
 707              		.set	.LANCHOR0,. + 0
 708              		.type	isInit, %object
 709              		.size	isInit, 1
 710              	isInit:
 711 0000 00       		.space	1
 712              		.type	isMounted, %object
 713              		.size	isMounted, 1
 714              	isMounted:
 715 0001 00       		.space	1
 716              		.text
 717              	.Letext0:
 718              		.file 2 "Generated_Source\\PSoC4/cytypes.h"
 719              		.file 3 "fatfs\\integer.h"
 720              		.file 4 "fatfs\\ff.h"
 721              		.file 5 "fatfs\\diskio.h"
 722              		.file 6 "Generated_Source\\PSoC4/SPI.h"
 723              		.file 7 "Generated_Source\\PSoC4/SPI_ss0_m.h"
 724              		.file 8 "uartPrint.h"