ARM GAS  C:\Users\DMYTRO~1.FED\AppData\Local\Temp\ccikP2CY.s 			page 1


   1              		.syntax unified
   2              		.cpu cortex-m0plus
   3              		.fpu softvfp
   4              		.eabi_attribute 20, 1
   5              		.eabi_attribute 21, 1
   6              		.eabi_attribute 23, 3
   7              		.eabi_attribute 24, 1
   8              		.eabi_attribute 25, 1
   9              		.eabi_attribute 26, 1
  10              		.eabi_attribute 30, 1
  11              		.eabi_attribute 34, 0
  12              		.eabi_attribute 18, 4
  13              		.thumb
  14              		.syntax unified
  15              		.file	"ff.c"
  16              		.text
  17              	.Ltext0:
  18              		.cfi_sections	.debug_frame
  19              		.section	.text.mem_cpy,"ax",%progbits
  20              		.align	2
  21              		.code	16
  22              		.thumb_func
  23              		.type	mem_cpy, %function
  24              	mem_cpy:
  25              	.LFB0:
  26              		.file 1 "fatfs\\ff.c"
   1:fatfs/ff.c    **** /*----------------------------------------------------------------------------/
   2:fatfs/ff.c    **** /  FatFs - FAT file system module  R0.11a                (C)ChaN, 2015        /
   3:fatfs/ff.c    **** /-----------------------------------------------------------------------------/
   4:fatfs/ff.c    **** / FatFs module is a free software that opened under license policy of
   5:fatfs/ff.c    **** / following conditions.
   6:fatfs/ff.c    **** /
   7:fatfs/ff.c    **** / Copyright (C) 2015, ChaN, all right reserved.
   8:fatfs/ff.c    **** /
   9:fatfs/ff.c    **** / 1. Redistributions of source code must retain the above copyright notice,
  10:fatfs/ff.c    **** /    this condition and the following disclaimer.
  11:fatfs/ff.c    **** /
  12:fatfs/ff.c    **** / This software is provided by the copyright holder and contributors "AS IS"
  13:fatfs/ff.c    **** / and any warranties related to this software are DISCLAIMED.
  14:fatfs/ff.c    **** / The copyright owner or contributors be NOT LIABLE for any damages caused
  15:fatfs/ff.c    **** / by use of this software.
  16:fatfs/ff.c    **** /----------------------------------------------------------------------------*/
  17:fatfs/ff.c    **** 
  18:fatfs/ff.c    **** 
  19:fatfs/ff.c    **** #include "ff.h"			/* Declarations of FatFs API */
  20:fatfs/ff.c    **** #include "diskio.h"		/* Declarations of disk I/O functions */
  21:fatfs/ff.c    **** 
  22:fatfs/ff.c    **** 
  23:fatfs/ff.c    **** /*--------------------------------------------------------------------------
  24:fatfs/ff.c    **** 
  25:fatfs/ff.c    ****    Module Private Definitions
  26:fatfs/ff.c    **** 
  27:fatfs/ff.c    **** ---------------------------------------------------------------------------*/
  28:fatfs/ff.c    **** 
  29:fatfs/ff.c    **** #if _FATFS != 64180	/* Revision ID */
  30:fatfs/ff.c    **** #error Wrong include file (ff.h).
  31:fatfs/ff.c    **** #endif
ARM GAS  C:\Users\DMYTRO~1.FED\AppData\Local\Temp\ccikP2CY.s 			page 2


  32:fatfs/ff.c    **** 
  33:fatfs/ff.c    **** 
  34:fatfs/ff.c    **** /* Reentrancy related */
  35:fatfs/ff.c    **** #if _FS_REENTRANT
  36:fatfs/ff.c    **** #if _USE_LFN == 1
  37:fatfs/ff.c    **** #error Static LFN work area cannot be used at thread-safe configuration
  38:fatfs/ff.c    **** #endif
  39:fatfs/ff.c    **** #define	ENTER_FF(fs)		{ if (!lock_fs(fs)) return FR_TIMEOUT; }
  40:fatfs/ff.c    **** #define	LEAVE_FF(fs, res)	{ unlock_fs(fs, res); return res; }
  41:fatfs/ff.c    **** #else
  42:fatfs/ff.c    **** #define	ENTER_FF(fs)
  43:fatfs/ff.c    **** #define LEAVE_FF(fs, res)	return res
  44:fatfs/ff.c    **** #endif
  45:fatfs/ff.c    **** 
  46:fatfs/ff.c    **** #define	ABORT(fs, res)		{ fp->err = (BYTE)(res); LEAVE_FF(fs, res); }
  47:fatfs/ff.c    **** 
  48:fatfs/ff.c    **** 
  49:fatfs/ff.c    **** /* Definitions of sector size */
  50:fatfs/ff.c    **** #if (_MAX_SS < _MIN_SS) || (_MAX_SS != 512 && _MAX_SS != 1024 && _MAX_SS != 2048 && _MAX_SS != 4096
  51:fatfs/ff.c    **** #error Wrong sector size configuration
  52:fatfs/ff.c    **** #endif
  53:fatfs/ff.c    **** #if _MAX_SS == _MIN_SS
  54:fatfs/ff.c    **** #define	SS(fs)	((UINT)_MAX_SS)	/* Fixed sector size */
  55:fatfs/ff.c    **** #else
  56:fatfs/ff.c    **** #define	SS(fs)	((fs)->ssize)	/* Variable sector size */
  57:fatfs/ff.c    **** #endif
  58:fatfs/ff.c    **** 
  59:fatfs/ff.c    **** 
  60:fatfs/ff.c    **** /* Timestamp feature */
  61:fatfs/ff.c    **** #if _FS_NORTC == 1
  62:fatfs/ff.c    **** #if _NORTC_YEAR < 1980 || _NORTC_YEAR > 2107 || _NORTC_MON < 1 || _NORTC_MON > 12 || _NORTC_MDAY < 
  63:fatfs/ff.c    **** #error Invalid _FS_NORTC settings
  64:fatfs/ff.c    **** #endif
  65:fatfs/ff.c    **** #define GET_FATTIME()	((DWORD)(_NORTC_YEAR - 1980) << 25 | (DWORD)_NORTC_MON << 21 | (DWORD)_NORTC_
  66:fatfs/ff.c    **** #else
  67:fatfs/ff.c    **** #define GET_FATTIME()	get_fattime()
  68:fatfs/ff.c    **** #endif
  69:fatfs/ff.c    **** 
  70:fatfs/ff.c    **** 
  71:fatfs/ff.c    **** /* File access control feature */
  72:fatfs/ff.c    **** #if _FS_LOCK
  73:fatfs/ff.c    **** #if _FS_READONLY
  74:fatfs/ff.c    **** #error _FS_LOCK must be 0 at read-only configuration
  75:fatfs/ff.c    **** #endif
  76:fatfs/ff.c    **** typedef struct {
  77:fatfs/ff.c    **** 	FATFS *fs;		/* Object ID 1, volume (NULL:blank entry) */
  78:fatfs/ff.c    **** 	DWORD clu;		/* Object ID 2, directory (0:root) */
  79:fatfs/ff.c    **** 	WORD idx;		/* Object ID 3, directory index */
  80:fatfs/ff.c    **** 	WORD ctr;		/* Object open counter, 0:none, 0x01..0xFF:read mode open count, 0x100:write mode */
  81:fatfs/ff.c    **** } FILESEM;
  82:fatfs/ff.c    **** #endif
  83:fatfs/ff.c    **** 
  84:fatfs/ff.c    **** 
  85:fatfs/ff.c    **** 
  86:fatfs/ff.c    **** /* DBCS code ranges and SBCS upper conversion tables */
  87:fatfs/ff.c    **** 
  88:fatfs/ff.c    **** #if _CODE_PAGE == 932	/* Japanese Shift-JIS */
ARM GAS  C:\Users\DMYTRO~1.FED\AppData\Local\Temp\ccikP2CY.s 			page 3


  89:fatfs/ff.c    **** #define _DF1S	0x81	/* DBC 1st byte range 1 start */
  90:fatfs/ff.c    **** #define _DF1E	0x9F	/* DBC 1st byte range 1 end */
  91:fatfs/ff.c    **** #define _DF2S	0xE0	/* DBC 1st byte range 2 start */
  92:fatfs/ff.c    **** #define _DF2E	0xFC	/* DBC 1st byte range 2 end */
  93:fatfs/ff.c    **** #define _DS1S	0x40	/* DBC 2nd byte range 1 start */
  94:fatfs/ff.c    **** #define _DS1E	0x7E	/* DBC 2nd byte range 1 end */
  95:fatfs/ff.c    **** #define _DS2S	0x80	/* DBC 2nd byte range 2 start */
  96:fatfs/ff.c    **** #define _DS2E	0xFC	/* DBC 2nd byte range 2 end */
  97:fatfs/ff.c    **** 
  98:fatfs/ff.c    **** #elif _CODE_PAGE == 936	/* Simplified Chinese GBK */
  99:fatfs/ff.c    **** #define _DF1S	0x81
 100:fatfs/ff.c    **** #define _DF1E	0xFE
 101:fatfs/ff.c    **** #define _DS1S	0x40
 102:fatfs/ff.c    **** #define _DS1E	0x7E
 103:fatfs/ff.c    **** #define _DS2S	0x80
 104:fatfs/ff.c    **** #define _DS2E	0xFE
 105:fatfs/ff.c    **** 
 106:fatfs/ff.c    **** #elif _CODE_PAGE == 949	/* Korean */
 107:fatfs/ff.c    **** #define _DF1S	0x81
 108:fatfs/ff.c    **** #define _DF1E	0xFE
 109:fatfs/ff.c    **** #define _DS1S	0x41
 110:fatfs/ff.c    **** #define _DS1E	0x5A
 111:fatfs/ff.c    **** #define _DS2S	0x61
 112:fatfs/ff.c    **** #define _DS2E	0x7A
 113:fatfs/ff.c    **** #define _DS3S	0x81
 114:fatfs/ff.c    **** #define _DS3E	0xFE
 115:fatfs/ff.c    **** 
 116:fatfs/ff.c    **** #elif _CODE_PAGE == 950	/* Traditional Chinese Big5 */
 117:fatfs/ff.c    **** #define _DF1S	0x81
 118:fatfs/ff.c    **** #define _DF1E	0xFE
 119:fatfs/ff.c    **** #define _DS1S	0x40
 120:fatfs/ff.c    **** #define _DS1E	0x7E
 121:fatfs/ff.c    **** #define _DS2S	0xA1
 122:fatfs/ff.c    **** #define _DS2E	0xFE
 123:fatfs/ff.c    **** 
 124:fatfs/ff.c    **** #elif _CODE_PAGE == 437	/* U.S. */
 125:fatfs/ff.c    **** #define _DF1S	0
 126:fatfs/ff.c    **** #define _EXCVT {0x80,0x9A,0x45,0x41,0x8E,0x41,0x8F,0x80,0x45,0x45,0x45,0x49,0x49,0x49,0x8E,0x8F, \
 127:fatfs/ff.c    **** 				0x90,0x92,0x92,0x4F,0x99,0x4F,0x55,0x55,0x59,0x99,0x9A,0x9B,0x9C,0x9D,0x9E,0x9F, \
 128:fatfs/ff.c    **** 				0x41,0x49,0x4F,0x55,0xA5,0xA5,0xA6,0xA7,0xA8,0xA9,0xAA,0xAB,0xAC,0xAD,0xAE,0xAF, \
 129:fatfs/ff.c    **** 				0xB0,0xB1,0xB2,0xB3,0xB4,0xB5,0xB6,0xB7,0xB8,0xB9,0xBA,0xBB,0xBC,0xBD,0xBE,0xBF, \
 130:fatfs/ff.c    **** 				0xC0,0xC1,0xC2,0xC3,0xC4,0xC5,0xC6,0xC7,0xC8,0xC9,0xCA,0xCB,0xCC,0xCD,0xCE,0xCF, \
 131:fatfs/ff.c    **** 				0xD0,0xD1,0xD2,0xD3,0xD4,0xD5,0xD6,0xD7,0xD8,0xD9,0xDA,0xDB,0xDC,0xDD,0xDE,0xDF, \
 132:fatfs/ff.c    **** 				0xE0,0xE1,0xE2,0xE3,0xE4,0xE5,0xE6,0xE7,0xE8,0xE9,0xEA,0xEB,0xEC,0xED,0xEE,0xEF, \
 133:fatfs/ff.c    **** 				0xF0,0xF1,0xF2,0xF3,0xF4,0xF5,0xF6,0xF7,0xF8,0xF9,0xFA,0xFB,0xFC,0xFD,0xFE,0xFF}
 134:fatfs/ff.c    **** 
 135:fatfs/ff.c    **** #elif _CODE_PAGE == 720	/* Arabic */
 136:fatfs/ff.c    **** #define _DF1S	0
 137:fatfs/ff.c    **** #define _EXCVT {0x80,0x81,0x82,0x83,0x84,0x85,0x86,0x87,0x88,0x89,0x8A,0x8B,0x8C,0x8D,0x8E,0x8F, \
 138:fatfs/ff.c    **** 				0x90,0x91,0x92,0x93,0x94,0x95,0x96,0x97,0x98,0x99,0x9A,0x9B,0x9C,0x9D,0x9E,0x9F, \
 139:fatfs/ff.c    **** 				0xA0,0xA1,0xA2,0xA3,0xA4,0xA5,0xA6,0xA7,0xA8,0xA9,0xAA,0xAB,0xAC,0xAD,0xAE,0xAF, \
 140:fatfs/ff.c    **** 				0xB0,0xB1,0xB2,0xB3,0xB4,0xB5,0xB6,0xB7,0xB8,0xB9,0xBA,0xBB,0xBC,0xBD,0xBE,0xBF, \
 141:fatfs/ff.c    **** 				0xC0,0xC1,0xC2,0xC3,0xC4,0xC5,0xC6,0xC7,0xC8,0xC9,0xCA,0xCB,0xCC,0xCD,0xCE,0xCF, \
 142:fatfs/ff.c    **** 				0xD0,0xD1,0xD2,0xD3,0xD4,0xD5,0xD6,0xD7,0xD8,0xD9,0xDA,0xDB,0xDC,0xDD,0xDE,0xDF, \
 143:fatfs/ff.c    **** 				0xE0,0xE1,0xE2,0xE3,0xE4,0xE5,0xE6,0xE7,0xE8,0xE9,0xEA,0xEB,0xEC,0xED,0xEE,0xEF, \
 144:fatfs/ff.c    **** 				0xF0,0xF1,0xF2,0xF3,0xF4,0xF5,0xF6,0xF7,0xF8,0xF9,0xFA,0xFB,0xFC,0xFD,0xFE,0xFF}
 145:fatfs/ff.c    **** 
ARM GAS  C:\Users\DMYTRO~1.FED\AppData\Local\Temp\ccikP2CY.s 			page 4


 146:fatfs/ff.c    **** #elif _CODE_PAGE == 737	/* Greek */
 147:fatfs/ff.c    **** #define _DF1S	0
 148:fatfs/ff.c    **** #define _EXCVT {0x80,0x81,0x82,0x83,0x84,0x85,0x86,0x87,0x88,0x89,0x8A,0x8B,0x8C,0x8D,0x8E,0x8F, \
 149:fatfs/ff.c    **** 				0x90,0x92,0x92,0x93,0x94,0x95,0x96,0x97,0x80,0x81,0x82,0x83,0x84,0x85,0x86,0x87, \
 150:fatfs/ff.c    **** 				0x88,0x89,0x8A,0x8B,0x8C,0x8D,0x8E,0x8F,0x90,0x91,0xAA,0x92,0x93,0x94,0x95,0x96, \
 151:fatfs/ff.c    **** 				0xB0,0xB1,0xB2,0xB3,0xB4,0xB5,0xB6,0xB7,0xB8,0xB9,0xBA,0xBB,0xBC,0xBD,0xBE,0xBF, \
 152:fatfs/ff.c    **** 				0xC0,0xC1,0xC2,0xC3,0xC4,0xC5,0xC6,0xC7,0xC8,0xC9,0xCA,0xCB,0xCC,0xCD,0xCE,0xCF, \
 153:fatfs/ff.c    **** 				0xD0,0xD1,0xD2,0xD3,0xD4,0xD5,0xD6,0xD7,0xD8,0xD9,0xDA,0xDB,0xDC,0xDD,0xDE,0xDF, \
 154:fatfs/ff.c    **** 				0x97,0xEA,0xEB,0xEC,0xE4,0xED,0xEE,0xEF,0xF5,0xF0,0xEA,0xEB,0xEC,0xED,0xEE,0xEF, \
 155:fatfs/ff.c    **** 				0xF0,0xF1,0xF2,0xF3,0xF4,0xF5,0xF6,0xF7,0xF8,0xF9,0xFA,0xFB,0xFC,0xFD,0xFE,0xFF}
 156:fatfs/ff.c    **** 
 157:fatfs/ff.c    **** #elif _CODE_PAGE == 771	/* KBL */
 158:fatfs/ff.c    **** #define _DF1S	0
 159:fatfs/ff.c    **** #define _EXCVT {0x80,0x81,0x82,0x83,0x84,0x85,0x86,0x87,0x88,0x89,0x8A,0x8B,0x8C,0x8D,0x8E,0x8F, \
 160:fatfs/ff.c    **** 				0x90,0x91,0x92,0x93,0x94,0x95,0x96,0x97,0x98,0x99,0x9A,0x9B,0x9C,0x9D,0x9E,0x9F, \
 161:fatfs/ff.c    **** 				0x80,0x81,0x82,0x83,0x84,0x85,0x86,0x87,0x88,0x89,0x8A,0x8B,0x8C,0x8D,0x8E,0x8F, \
 162:fatfs/ff.c    **** 				0xB0,0xB1,0xB2,0xB3,0xB4,0xB5,0xB6,0xB7,0xB8,0xB9,0xBA,0xBB,0xBC,0xBD,0xBE,0xBF, \
 163:fatfs/ff.c    **** 				0xC0,0xC1,0xC2,0xC3,0xC4,0xC5,0xC6,0xC7,0xC8,0xC9,0xCA,0xCB,0xCC,0xCD,0xCE,0xCF, \
 164:fatfs/ff.c    **** 				0xD0,0xD1,0xD2,0xD3,0xD4,0xD5,0xD6,0xD7,0xD8,0xD9,0xDA,0xDB,0xDC,0xDC,0xDE,0xDE, \
 165:fatfs/ff.c    **** 				0x90,0x91,0x92,0x93,0x94,0x95,0x96,0x97,0x98,0x99,0x9A,0x9B,0x9C,0x9D,0x9E,0x9F, \
 166:fatfs/ff.c    **** 				0xF0,0xF0,0xF2,0xF2,0xF4,0xF4,0xF6,0xF6,0xF8,0xF8,0xFA,0xFA,0xFC,0xFC,0xFE,0xFF}
 167:fatfs/ff.c    **** 
 168:fatfs/ff.c    **** #elif _CODE_PAGE == 775	/* Baltic */
 169:fatfs/ff.c    **** #define _DF1S	0
 170:fatfs/ff.c    **** #define _EXCVT {0x80,0x9A,0x91,0xA0,0x8E,0x95,0x8F,0x80,0xAD,0xED,0x8A,0x8A,0xA1,0x8D,0x8E,0x8F, \
 171:fatfs/ff.c    **** 				0x90,0x92,0x92,0xE2,0x99,0x95,0x96,0x97,0x97,0x99,0x9A,0x9D,0x9C,0x9D,0x9E,0x9F, \
 172:fatfs/ff.c    **** 				0xA0,0xA1,0xE0,0xA3,0xA3,0xA5,0xA6,0xA7,0xA8,0xA9,0xAA,0xAB,0xAC,0xAD,0xAE,0xAF, \
 173:fatfs/ff.c    **** 				0xB0,0xB1,0xB2,0xB3,0xB4,0xB5,0xB6,0xB7,0xB8,0xB9,0xBA,0xBB,0xBC,0xBD,0xBE,0xBF, \
 174:fatfs/ff.c    **** 				0xC0,0xC1,0xC2,0xC3,0xC4,0xC5,0xC6,0xC7,0xC8,0xC9,0xCA,0xCB,0xCC,0xCD,0xCE,0xCF, \
 175:fatfs/ff.c    **** 				0xB5,0xB6,0xB7,0xB8,0xBD,0xBE,0xC6,0xC7,0xA5,0xD9,0xDA,0xDB,0xDC,0xDD,0xDE,0xDF, \
 176:fatfs/ff.c    **** 				0xE0,0xE1,0xE2,0xE3,0xE5,0xE5,0xE6,0xE3,0xE8,0xE8,0xEA,0xEA,0xEE,0xED,0xEE,0xEF, \
 177:fatfs/ff.c    **** 				0xF0,0xF1,0xF2,0xF3,0xF4,0xF5,0xF6,0xF7,0xF8,0xF9,0xFA,0xFB,0xFC,0xFD,0xFE,0xFF}
 178:fatfs/ff.c    **** 
 179:fatfs/ff.c    **** #elif _CODE_PAGE == 850	/* Latin 1 */
 180:fatfs/ff.c    **** #define _DF1S	0
 181:fatfs/ff.c    **** #define _EXCVT {0x43,0x55,0x45,0x41,0x41,0x41,0x41,0x43,0x45,0x45,0x45,0x49,0x49,0x49,0x41,0x41, \
 182:fatfs/ff.c    **** 				0x45,0x92,0x92,0x4F,0x4F,0x4F,0x55,0x55,0x59,0x4F,0x55,0x4F,0x9C,0x4F,0x9E,0x9F, \
 183:fatfs/ff.c    **** 				0x41,0x49,0x4F,0x55,0xA5,0xA5,0xA6,0xA7,0xA8,0xA9,0xAA,0xAB,0xAC,0xAD,0xAE,0xAF, \
 184:fatfs/ff.c    **** 				0xB0,0xB1,0xB2,0xB3,0xB4,0x41,0x41,0x41,0xB8,0xB9,0xBA,0xBB,0xBC,0xBD,0xBE,0xBF, \
 185:fatfs/ff.c    **** 				0xC0,0xC1,0xC2,0xC3,0xC4,0xC5,0x41,0x41,0xC8,0xC9,0xCA,0xCB,0xCC,0xCD,0xCE,0xCF, \
 186:fatfs/ff.c    **** 				0xD1,0xD1,0x45,0x45,0x45,0x49,0x49,0x49,0x49,0xD9,0xDA,0xDB,0xDC,0xDD,0x49,0xDF, \
 187:fatfs/ff.c    **** 				0x4F,0xE1,0x4F,0x4F,0x4F,0x4F,0xE6,0xE8,0xE8,0x55,0x55,0x55,0x59,0x59,0xEE,0xEF, \
 188:fatfs/ff.c    **** 				0xF0,0xF1,0xF2,0xF3,0xF4,0xF5,0xF6,0xF7,0xF8,0xF9,0xFA,0xFB,0xFC,0xFD,0xFE,0xFF}
 189:fatfs/ff.c    **** 
 190:fatfs/ff.c    **** #elif _CODE_PAGE == 852	/* Latin 2 */
 191:fatfs/ff.c    **** #define _DF1S	0
 192:fatfs/ff.c    **** #define _EXCVT {0x80,0x9A,0x90,0xB6,0x8E,0xDE,0x8F,0x80,0x9D,0xD3,0x8A,0x8A,0xD7,0x8D,0x8E,0x8F, \
 193:fatfs/ff.c    **** 				0x90,0x91,0x91,0xE2,0x99,0x95,0x95,0x97,0x97,0x99,0x9A,0x9B,0x9B,0x9D,0x9E,0xAC, \
 194:fatfs/ff.c    **** 				0xB5,0xD6,0xE0,0xE9,0xA4,0xA4,0xA6,0xA6,0xA8,0xA8,0xAA,0x8D,0xAC,0xB8,0xAE,0xAF, \
 195:fatfs/ff.c    **** 				0xB0,0xB1,0xB2,0xB3,0xB4,0xB5,0xB6,0xB7,0xB8,0xB9,0xBA,0xBB,0xBC,0xBD,0xBD,0xBF, \
 196:fatfs/ff.c    **** 				0xC0,0xC1,0xC2,0xC3,0xC4,0xC5,0xC6,0xC6,0xC8,0xC9,0xCA,0xCB,0xCC,0xCD,0xCE,0xCF, \
 197:fatfs/ff.c    **** 				0xD1,0xD1,0xD2,0xD3,0xD2,0xD5,0xD6,0xD7,0xB7,0xD9,0xDA,0xDB,0xDC,0xDD,0xDE,0xDF, \
 198:fatfs/ff.c    **** 				0xE0,0xE1,0xE2,0xE3,0xE3,0xD5,0xE6,0xE6,0xE8,0xE9,0xE8,0xEB,0xED,0xED,0xDD,0xEF, \
 199:fatfs/ff.c    **** 				0xF0,0xF1,0xF2,0xF3,0xF4,0xF5,0xF6,0xF7,0xF8,0xF9,0xFA,0xEB,0xFC,0xFC,0xFE,0xFF}
 200:fatfs/ff.c    **** 
 201:fatfs/ff.c    **** #elif _CODE_PAGE == 855	/* Cyrillic */
 202:fatfs/ff.c    **** #define _DF1S	0
ARM GAS  C:\Users\DMYTRO~1.FED\AppData\Local\Temp\ccikP2CY.s 			page 5


 203:fatfs/ff.c    **** #define _EXCVT {0x81,0x81,0x83,0x83,0x85,0x85,0x87,0x87,0x89,0x89,0x8B,0x8B,0x8D,0x8D,0x8F,0x8F, \
 204:fatfs/ff.c    **** 				0x91,0x91,0x93,0x93,0x95,0x95,0x97,0x97,0x99,0x99,0x9B,0x9B,0x9D,0x9D,0x9F,0x9F, \
 205:fatfs/ff.c    **** 				0xA1,0xA1,0xA3,0xA3,0xA5,0xA5,0xA7,0xA7,0xA9,0xA9,0xAB,0xAB,0xAD,0xAD,0xAE,0xAF, \
 206:fatfs/ff.c    **** 				0xB0,0xB1,0xB2,0xB3,0xB4,0xB6,0xB6,0xB8,0xB8,0xB9,0xBA,0xBB,0xBC,0xBE,0xBE,0xBF, \
 207:fatfs/ff.c    **** 				0xC0,0xC1,0xC2,0xC3,0xC4,0xC5,0xC7,0xC7,0xC8,0xC9,0xCA,0xCB,0xCC,0xCD,0xCE,0xCF, \
 208:fatfs/ff.c    **** 				0xD1,0xD1,0xD3,0xD3,0xD5,0xD5,0xD7,0xD7,0xDD,0xD9,0xDA,0xDB,0xDC,0xDD,0xE0,0xDF, \
 209:fatfs/ff.c    **** 				0xE0,0xE2,0xE2,0xE4,0xE4,0xE6,0xE6,0xE8,0xE8,0xEA,0xEA,0xEC,0xEC,0xEE,0xEE,0xEF, \
 210:fatfs/ff.c    **** 				0xF0,0xF2,0xF2,0xF4,0xF4,0xF6,0xF6,0xF8,0xF8,0xFA,0xFA,0xFC,0xFC,0xFD,0xFE,0xFF}
 211:fatfs/ff.c    **** 
 212:fatfs/ff.c    **** #elif _CODE_PAGE == 857	/* Turkish */
 213:fatfs/ff.c    **** #define _DF1S	0
 214:fatfs/ff.c    **** #define _EXCVT {0x80,0x9A,0x90,0xB6,0x8E,0xB7,0x8F,0x80,0xD2,0xD3,0xD4,0xD8,0xD7,0x49,0x8E,0x8F, \
 215:fatfs/ff.c    **** 				0x90,0x92,0x92,0xE2,0x99,0xE3,0xEA,0xEB,0x98,0x99,0x9A,0x9D,0x9C,0x9D,0x9E,0x9E, \
 216:fatfs/ff.c    **** 				0xB5,0xD6,0xE0,0xE9,0xA5,0xA5,0xA6,0xA6,0xA8,0xA9,0xAA,0xAB,0xAC,0xAD,0xAE,0xAF, \
 217:fatfs/ff.c    **** 				0xB0,0xB1,0xB2,0xB3,0xB4,0xB5,0xB6,0xB7,0xB8,0xB9,0xBA,0xBB,0xBC,0xBD,0xBE,0xBF, \
 218:fatfs/ff.c    **** 				0xC0,0xC1,0xC2,0xC3,0xC4,0xC5,0xC7,0xC7,0xC8,0xC9,0xCA,0xCB,0xCC,0xCD,0xCE,0xCF, \
 219:fatfs/ff.c    **** 				0xD0,0xD1,0xD2,0xD3,0xD4,0x49,0xD6,0xD7,0xD8,0xD9,0xDA,0xDB,0xDC,0xDD,0xDE,0xDF, \
 220:fatfs/ff.c    **** 				0xE0,0xE1,0xE2,0xE3,0xE5,0xE5,0xE6,0xE7,0xE8,0xE9,0xEA,0xEB,0xDE,0xED,0xEE,0xEF, \
 221:fatfs/ff.c    **** 				0xF0,0xF1,0xF2,0xF3,0xF4,0xF5,0xF6,0xF7,0xF8,0xF9,0xFA,0xFB,0xFC,0xFD,0xFE,0xFF}
 222:fatfs/ff.c    **** 
 223:fatfs/ff.c    **** #elif _CODE_PAGE == 860	/* Portuguese */
 224:fatfs/ff.c    **** #define _DF1S	0
 225:fatfs/ff.c    **** #define _EXCVT {0x80,0x9A,0x90,0x8F,0x8E,0x91,0x86,0x80,0x89,0x89,0x92,0x8B,0x8C,0x98,0x8E,0x8F, \
 226:fatfs/ff.c    **** 				0x90,0x91,0x92,0x8C,0x99,0xA9,0x96,0x9D,0x98,0x99,0x9A,0x9B,0x9C,0x9D,0x9E,0x9F, \
 227:fatfs/ff.c    **** 				0x86,0x8B,0x9F,0x96,0xA5,0xA5,0xA6,0xA7,0xA8,0xA9,0xAA,0xAB,0xAC,0xAD,0xAE,0xAF, \
 228:fatfs/ff.c    **** 				0xB0,0xB1,0xB2,0xB3,0xB4,0xB5,0xB6,0xB7,0xB8,0xB9,0xBA,0xBB,0xBC,0xBD,0xBE,0xBF, \
 229:fatfs/ff.c    **** 				0xC0,0xC1,0xC2,0xC3,0xC4,0xC5,0xC6,0xC7,0xC8,0xC9,0xCA,0xCB,0xCC,0xCD,0xCE,0xCF, \
 230:fatfs/ff.c    **** 				0xD0,0xD1,0xD2,0xD3,0xD4,0xD5,0xD6,0xD7,0xD8,0xD9,0xDA,0xDB,0xDC,0xDD,0xDE,0xDF, \
 231:fatfs/ff.c    **** 				0xE0,0xE1,0xE2,0xE3,0xE4,0xE5,0xE6,0xE7,0xE8,0xE9,0xEA,0xEB,0xEC,0xED,0xEE,0xEF, \
 232:fatfs/ff.c    **** 				0xF0,0xF1,0xF2,0xF3,0xF4,0xF5,0xF6,0xF7,0xF8,0xF9,0xFA,0xFB,0xFC,0xFD,0xFE,0xFF}
 233:fatfs/ff.c    **** 
 234:fatfs/ff.c    **** #elif _CODE_PAGE == 861	/* Icelandic */
 235:fatfs/ff.c    **** #define _DF1S	0
 236:fatfs/ff.c    **** #define _EXCVT {0x80,0x9A,0x90,0x41,0x8E,0x41,0x8F,0x80,0x45,0x45,0x45,0x8B,0x8B,0x8D,0x8E,0x8F, \
 237:fatfs/ff.c    **** 				0x90,0x92,0x92,0x4F,0x99,0x8D,0x55,0x97,0x97,0x99,0x9A,0x9D,0x9C,0x9D,0x9E,0x9F, \
 238:fatfs/ff.c    **** 				0xA4,0xA5,0xA6,0xA7,0xA4,0xA5,0xA6,0xA7,0xA8,0xA9,0xAA,0xAB,0xAC,0xAD,0xAE,0xAF, \
 239:fatfs/ff.c    **** 				0xB0,0xB1,0xB2,0xB3,0xB4,0xB5,0xB6,0xB7,0xB8,0xB9,0xBA,0xBB,0xBC,0xBD,0xBE,0xBF, \
 240:fatfs/ff.c    **** 				0xC0,0xC1,0xC2,0xC3,0xC4,0xC5,0xC6,0xC7,0xC8,0xC9,0xCA,0xCB,0xCC,0xCD,0xCE,0xCF, \
 241:fatfs/ff.c    **** 				0xD0,0xD1,0xD2,0xD3,0xD4,0xD5,0xD6,0xD7,0xD8,0xD9,0xDA,0xDB,0xDC,0xDD,0xDE,0xDF, \
 242:fatfs/ff.c    **** 				0xE0,0xE1,0xE2,0xE3,0xE4,0xE5,0xE6,0xE7,0xE8,0xE9,0xEA,0xEB,0xEC,0xED,0xEE,0xEF, \
 243:fatfs/ff.c    **** 				0xF0,0xF1,0xF2,0xF3,0xF4,0xF5,0xF6,0xF7,0xF8,0xF9,0xFA,0xFB,0xFC,0xFD,0xFE,0xFF}
 244:fatfs/ff.c    **** 
 245:fatfs/ff.c    **** #elif _CODE_PAGE == 862	/* Hebrew */
 246:fatfs/ff.c    **** #define _DF1S	0
 247:fatfs/ff.c    **** #define _EXCVT {0x80,0x81,0x82,0x83,0x84,0x85,0x86,0x87,0x88,0x89,0x8A,0x8B,0x8C,0x8D,0x8E,0x8F, \
 248:fatfs/ff.c    **** 				0x90,0x91,0x92,0x93,0x94,0x95,0x96,0x97,0x98,0x99,0x9A,0x9B,0x9C,0x9D,0x9E,0x9F, \
 249:fatfs/ff.c    **** 				0x41,0x49,0x4F,0x55,0xA5,0xA5,0xA6,0xA7,0xA8,0xA9,0xAA,0xAB,0xAC,0xAD,0xAE,0xAF, \
 250:fatfs/ff.c    **** 				0xB0,0xB1,0xB2,0xB3,0xB4,0xB5,0xB6,0xB7,0xB8,0xB9,0xBA,0xBB,0xBC,0xBD,0xBE,0xBF, \
 251:fatfs/ff.c    **** 				0xC0,0xC1,0xC2,0xC3,0xC4,0xC5,0xC6,0xC7,0xC8,0xC9,0xCA,0xCB,0xCC,0xCD,0xCE,0xCF, \
 252:fatfs/ff.c    **** 				0xD0,0xD1,0xD2,0xD3,0xD4,0xD5,0xD6,0xD7,0xD8,0xD9,0xDA,0xDB,0xDC,0xDD,0xDE,0xDF, \
 253:fatfs/ff.c    **** 				0xE0,0xE1,0xE2,0xE3,0xE4,0xE5,0xE6,0xE7,0xE8,0xE9,0xEA,0xEB,0xEC,0xED,0xEE,0xEF, \
 254:fatfs/ff.c    **** 				0xF0,0xF1,0xF2,0xF3,0xF4,0xF5,0xF6,0xF7,0xF8,0xF9,0xFA,0xFB,0xFC,0xFD,0xFE,0xFF}
 255:fatfs/ff.c    **** 
 256:fatfs/ff.c    **** #elif _CODE_PAGE == 863	/* Canadian-French */
 257:fatfs/ff.c    **** #define _DF1S	0
 258:fatfs/ff.c    **** #define _EXCVT {0x43,0x55,0x45,0x41,0x41,0x41,0x86,0x43,0x45,0x45,0x45,0x49,0x49,0x8D,0x41,0x8F, \
 259:fatfs/ff.c    **** 				0x45,0x45,0x45,0x4F,0x45,0x49,0x55,0x55,0x98,0x4F,0x55,0x9B,0x9C,0x55,0x55,0x9F, \
ARM GAS  C:\Users\DMYTRO~1.FED\AppData\Local\Temp\ccikP2CY.s 			page 6


 260:fatfs/ff.c    **** 				0xA0,0xA1,0x4F,0x55,0xA4,0xA5,0xA6,0xA7,0x49,0xA9,0xAA,0xAB,0xAC,0xAD,0xAE,0xAF, \
 261:fatfs/ff.c    **** 				0xB0,0xB1,0xB2,0xB3,0xB4,0xB5,0xB6,0xB7,0xB8,0xB9,0xBA,0xBB,0xBC,0xBD,0xBE,0xBF, \
 262:fatfs/ff.c    **** 				0xC0,0xC1,0xC2,0xC3,0xC4,0xC5,0xC6,0xC7,0xC8,0xC9,0xCA,0xCB,0xCC,0xCD,0xCE,0xCF, \
 263:fatfs/ff.c    **** 				0xD0,0xD1,0xD2,0xD3,0xD4,0xD5,0xD6,0xD7,0xD8,0xD9,0xDA,0xDB,0xDC,0xDD,0xDE,0xDF, \
 264:fatfs/ff.c    **** 				0xE0,0xE1,0xE2,0xE3,0xE4,0xE5,0xE6,0xE7,0xE8,0xE9,0xEA,0xEB,0xEC,0xED,0xEE,0xEF, \
 265:fatfs/ff.c    **** 				0xF0,0xF1,0xF2,0xF3,0xF4,0xF5,0xF6,0xF7,0xF8,0xF9,0xFA,0xFB,0xFC,0xFD,0xFE,0xFF}
 266:fatfs/ff.c    **** 
 267:fatfs/ff.c    **** #elif _CODE_PAGE == 864	/* Arabic */
 268:fatfs/ff.c    **** #define _DF1S	0
 269:fatfs/ff.c    **** #define _EXCVT {0x80,0x9A,0x45,0x41,0x8E,0x41,0x8F,0x80,0x45,0x45,0x45,0x49,0x49,0x49,0x8E,0x8F, \
 270:fatfs/ff.c    **** 				0x90,0x92,0x92,0x4F,0x99,0x4F,0x55,0x55,0x59,0x99,0x9A,0x9B,0x9C,0x9D,0x9E,0x9F, \
 271:fatfs/ff.c    **** 				0x41,0x49,0x4F,0x55,0xA5,0xA5,0xA6,0xA7,0xA8,0xA9,0xAA,0xAB,0xAC,0xAD,0xAE,0xAF, \
 272:fatfs/ff.c    **** 				0xB0,0xB1,0xB2,0xB3,0xB4,0xB5,0xB6,0xB7,0xB8,0xB9,0xBA,0xBB,0xBC,0xBD,0xBE,0xBF, \
 273:fatfs/ff.c    **** 				0xC0,0xC1,0xC2,0xC3,0xC4,0xC5,0xC6,0xC7,0xC8,0xC9,0xCA,0xCB,0xCC,0xCD,0xCE,0xCF, \
 274:fatfs/ff.c    **** 				0xD0,0xD1,0xD2,0xD3,0xD4,0xD5,0xD6,0xD7,0xD8,0xD9,0xDA,0xDB,0xDC,0xDD,0xDE,0xDF, \
 275:fatfs/ff.c    **** 				0xE0,0xE1,0xE2,0xE3,0xE4,0xE5,0xE6,0xE7,0xE8,0xE9,0xEA,0xEB,0xEC,0xED,0xEE,0xEF, \
 276:fatfs/ff.c    **** 				0xF0,0xF1,0xF2,0xF3,0xF4,0xF5,0xF6,0xF7,0xF8,0xF9,0xFA,0xFB,0xFC,0xFD,0xFE,0xFF}
 277:fatfs/ff.c    **** 
 278:fatfs/ff.c    **** #elif _CODE_PAGE == 865	/* Nordic */
 279:fatfs/ff.c    **** #define _DF1S	0
 280:fatfs/ff.c    **** #define _EXCVT {0x80,0x9A,0x90,0x41,0x8E,0x41,0x8F,0x80,0x45,0x45,0x45,0x49,0x49,0x49,0x8E,0x8F, \
 281:fatfs/ff.c    **** 				0x90,0x92,0x92,0x4F,0x99,0x4F,0x55,0x55,0x59,0x99,0x9A,0x9B,0x9C,0x9D,0x9E,0x9F, \
 282:fatfs/ff.c    **** 				0x41,0x49,0x4F,0x55,0xA5,0xA5,0xA6,0xA7,0xA8,0xA9,0xAA,0xAB,0xAC,0xAD,0xAE,0xAF, \
 283:fatfs/ff.c    **** 				0xB0,0xB1,0xB2,0xB3,0xB4,0xB5,0xB6,0xB7,0xB8,0xB9,0xBA,0xBB,0xBC,0xBD,0xBE,0xBF, \
 284:fatfs/ff.c    **** 				0xC0,0xC1,0xC2,0xC3,0xC4,0xC5,0xC6,0xC7,0xC8,0xC9,0xCA,0xCB,0xCC,0xCD,0xCE,0xCF, \
 285:fatfs/ff.c    **** 				0xD0,0xD1,0xD2,0xD3,0xD4,0xD5,0xD6,0xD7,0xD8,0xD9,0xDA,0xDB,0xDC,0xDD,0xDE,0xDF, \
 286:fatfs/ff.c    **** 				0xE0,0xE1,0xE2,0xE3,0xE4,0xE5,0xE6,0xE7,0xE8,0xE9,0xEA,0xEB,0xEC,0xED,0xEE,0xEF, \
 287:fatfs/ff.c    **** 				0xF0,0xF1,0xF2,0xF3,0xF4,0xF5,0xF6,0xF7,0xF8,0xF9,0xFA,0xFB,0xFC,0xFD,0xFE,0xFF}
 288:fatfs/ff.c    **** 
 289:fatfs/ff.c    **** #elif _CODE_PAGE == 866	/* Russian */
 290:fatfs/ff.c    **** #define _DF1S	0
 291:fatfs/ff.c    **** #define _EXCVT {0x80,0x81,0x82,0x83,0x84,0x85,0x86,0x87,0x88,0x89,0x8A,0x8B,0x8C,0x8D,0x8E,0x8F, \
 292:fatfs/ff.c    **** 				0x90,0x91,0x92,0x93,0x94,0x95,0x96,0x97,0x98,0x99,0x9A,0x9B,0x9C,0x9D,0x9E,0x9F, \
 293:fatfs/ff.c    **** 				0x80,0x81,0x82,0x83,0x84,0x85,0x86,0x87,0x88,0x89,0x8A,0x8B,0x8C,0x8D,0x8E,0x8F, \
 294:fatfs/ff.c    **** 				0xB0,0xB1,0xB2,0xB3,0xB4,0xB5,0xB6,0xB7,0xB8,0xB9,0xBA,0xBB,0xBC,0xBD,0xBE,0xBF, \
 295:fatfs/ff.c    **** 				0xC0,0xC1,0xC2,0xC3,0xC4,0xC5,0xC6,0xC7,0xC8,0xC9,0xCA,0xCB,0xCC,0xCD,0xCE,0xCF, \
 296:fatfs/ff.c    **** 				0xD0,0xD1,0xD2,0xD3,0xD4,0xD5,0xD6,0xD7,0xD8,0xD9,0xDA,0xDB,0xDC,0xDD,0xDE,0xDF, \
 297:fatfs/ff.c    **** 				0x90,0x91,0x92,0x93,0x9d,0x95,0x96,0x97,0x98,0x99,0x9A,0x9B,0x9C,0x9D,0x9E,0x9F, \
 298:fatfs/ff.c    **** 				0xF0,0xF0,0xF2,0xF2,0xF4,0xF4,0xF6,0xF6,0xF8,0xF9,0xFA,0xFB,0xFC,0xFD,0xFE,0xFF}
 299:fatfs/ff.c    **** 
 300:fatfs/ff.c    **** #elif _CODE_PAGE == 869	/* Greek 2 */
 301:fatfs/ff.c    **** #define _DF1S	0
 302:fatfs/ff.c    **** #define _EXCVT {0x80,0x81,0x82,0x83,0x84,0x85,0x86,0x87,0x88,0x89,0x8A,0x8B,0x8C,0x8D,0x8E,0x8F, \
 303:fatfs/ff.c    **** 				0x90,0x91,0x92,0x93,0x94,0x95,0x96,0x97,0x98,0x99,0x9A,0x86,0x9C,0x8D,0x8F,0x90, \
 304:fatfs/ff.c    **** 				0x91,0x90,0x92,0x95,0xA4,0xA5,0xA6,0xA7,0xA8,0xA9,0xAA,0xAB,0xAC,0xAD,0xAE,0xAF, \
 305:fatfs/ff.c    **** 				0xB0,0xB1,0xB2,0xB3,0xB4,0xB5,0xB6,0xB7,0xB8,0xB9,0xBA,0xBB,0xBC,0xBD,0xBE,0xBF, \
 306:fatfs/ff.c    **** 				0xC0,0xC1,0xC2,0xC3,0xC4,0xC5,0xC6,0xC7,0xC8,0xC9,0xCA,0xCB,0xCC,0xCD,0xCE,0xCF, \
 307:fatfs/ff.c    **** 				0xD0,0xD1,0xD2,0xD3,0xD4,0xD5,0xA4,0xA5,0xA6,0xD9,0xDA,0xDB,0xDC,0xA7,0xA8,0xDF, \
 308:fatfs/ff.c    **** 				0xA9,0xAA,0xAC,0xAD,0xB5,0xB6,0xB7,0xB8,0xBD,0xBE,0xC6,0xC7,0xCF,0xCF,0xD0,0xEF, \
 309:fatfs/ff.c    **** 				0xF0,0xF1,0xD1,0xD2,0xD3,0xF5,0xD4,0xF7,0xF8,0xF9,0xD5,0x96,0x95,0x98,0xFE,0xFF}
 310:fatfs/ff.c    **** 
 311:fatfs/ff.c    **** #elif _CODE_PAGE == 1	/* ASCII (for only non-LFN cfg) */
 312:fatfs/ff.c    **** #if _USE_LFN
 313:fatfs/ff.c    **** #error Cannot use LFN feature without valid code page.
 314:fatfs/ff.c    **** #endif
 315:fatfs/ff.c    **** #define _DF1S	0
 316:fatfs/ff.c    **** 
ARM GAS  C:\Users\DMYTRO~1.FED\AppData\Local\Temp\ccikP2CY.s 			page 7


 317:fatfs/ff.c    **** #else
 318:fatfs/ff.c    **** #error Unknown code page
 319:fatfs/ff.c    **** 
 320:fatfs/ff.c    **** #endif
 321:fatfs/ff.c    **** 
 322:fatfs/ff.c    **** 
 323:fatfs/ff.c    **** /* Character code support macros */
 324:fatfs/ff.c    **** #define IsUpper(c)	(((c)>='A')&&((c)<='Z'))
 325:fatfs/ff.c    **** #define IsLower(c)	(((c)>='a')&&((c)<='z'))
 326:fatfs/ff.c    **** #define IsDigit(c)	(((c)>='0')&&((c)<='9'))
 327:fatfs/ff.c    **** 
 328:fatfs/ff.c    **** #if _DF1S		/* Code page is DBCS */
 329:fatfs/ff.c    **** 
 330:fatfs/ff.c    **** #ifdef _DF2S	/* Two 1st byte areas */
 331:fatfs/ff.c    **** #define IsDBCS1(c)	(((BYTE)(c) >= _DF1S && (BYTE)(c) <= _DF1E) || ((BYTE)(c) >= _DF2S && (BYTE)(c) 
 332:fatfs/ff.c    **** #else			/* One 1st byte area */
 333:fatfs/ff.c    **** #define IsDBCS1(c)	((BYTE)(c) >= _DF1S && (BYTE)(c) <= _DF1E)
 334:fatfs/ff.c    **** #endif
 335:fatfs/ff.c    **** 
 336:fatfs/ff.c    **** #ifdef _DS3S	/* Three 2nd byte areas */
 337:fatfs/ff.c    **** #define IsDBCS2(c)	(((BYTE)(c) >= _DS1S && (BYTE)(c) <= _DS1E) || ((BYTE)(c) >= _DS2S && (BYTE)(c) 
 338:fatfs/ff.c    **** #else			/* Two 2nd byte areas */
 339:fatfs/ff.c    **** #define IsDBCS2(c)	(((BYTE)(c) >= _DS1S && (BYTE)(c) <= _DS1E) || ((BYTE)(c) >= _DS2S && (BYTE)(c) 
 340:fatfs/ff.c    **** #endif
 341:fatfs/ff.c    **** 
 342:fatfs/ff.c    **** #else			/* Code page is SBCS */
 343:fatfs/ff.c    **** 
 344:fatfs/ff.c    **** #define IsDBCS1(c)	0
 345:fatfs/ff.c    **** #define IsDBCS2(c)	0
 346:fatfs/ff.c    **** 
 347:fatfs/ff.c    **** #endif /* _DF1S */
 348:fatfs/ff.c    **** 
 349:fatfs/ff.c    **** 
 350:fatfs/ff.c    **** /* Name status flags */
 351:fatfs/ff.c    **** #define NSFLAG		11		/* Index of name status byte in fn[] */
 352:fatfs/ff.c    **** #define NS_LOSS		0x01	/* Out of 8.3 format */
 353:fatfs/ff.c    **** #define NS_LFN		0x02	/* Force to create LFN entry */
 354:fatfs/ff.c    **** #define NS_LAST		0x04	/* Last segment */
 355:fatfs/ff.c    **** #define NS_BODY		0x08	/* Lower case flag (body) */
 356:fatfs/ff.c    **** #define NS_EXT		0x10	/* Lower case flag (ext) */
 357:fatfs/ff.c    **** #define NS_DOT		0x20	/* Dot entry */
 358:fatfs/ff.c    **** 
 359:fatfs/ff.c    **** 
 360:fatfs/ff.c    **** /* FAT sub-type boundaries (Differ from specs but correct for real DOS/Windows) */
 361:fatfs/ff.c    **** #define MIN_FAT16	4086U	/* Minimum number of clusters of FAT16 */
 362:fatfs/ff.c    **** #define	MIN_FAT32	65526U	/* Minimum number of clusters of FAT32 */
 363:fatfs/ff.c    **** 
 364:fatfs/ff.c    **** 
 365:fatfs/ff.c    **** /* FatFs refers the members in the FAT structures as byte array instead of
 366:fatfs/ff.c    **** / structure members because the structure is not binary compatible between
 367:fatfs/ff.c    **** / different platforms */
 368:fatfs/ff.c    **** 
 369:fatfs/ff.c    **** #define BS_jmpBoot			0		/* x86 jump instruction (3) */
 370:fatfs/ff.c    **** #define BS_OEMName			3		/* OEM name (8) */
 371:fatfs/ff.c    **** #define BPB_BytsPerSec		11		/* Sector size [byte] (2) */
 372:fatfs/ff.c    **** #define BPB_SecPerClus		13		/* Cluster size [sector] (1) */
 373:fatfs/ff.c    **** #define BPB_RsvdSecCnt		14		/* Size of reserved area [sector] (2) */
ARM GAS  C:\Users\DMYTRO~1.FED\AppData\Local\Temp\ccikP2CY.s 			page 8


 374:fatfs/ff.c    **** #define BPB_NumFATs			16		/* Number of FAT copies (1) */
 375:fatfs/ff.c    **** #define BPB_RootEntCnt		17		/* Number of root directory entries for FAT12/16 (2) */
 376:fatfs/ff.c    **** #define BPB_TotSec16		19		/* Volume size [sector] (2) */
 377:fatfs/ff.c    **** #define BPB_Media			21		/* Media descriptor (1) */
 378:fatfs/ff.c    **** #define BPB_FATSz16			22		/* FAT size [sector] (2) */
 379:fatfs/ff.c    **** #define BPB_SecPerTrk		24		/* Track size [sector] (2) */
 380:fatfs/ff.c    **** #define BPB_NumHeads		26		/* Number of heads (2) */
 381:fatfs/ff.c    **** #define BPB_HiddSec			28		/* Number of special hidden sectors (4) */
 382:fatfs/ff.c    **** #define BPB_TotSec32		32		/* Volume size [sector] (4) */
 383:fatfs/ff.c    **** #define BS_DrvNum			36		/* Physical drive number (1) */
 384:fatfs/ff.c    **** #define BS_NTres			37		/* Error flag (1) */
 385:fatfs/ff.c    **** #define BS_BootSig			38		/* Extended boot signature (1) */
 386:fatfs/ff.c    **** #define BS_VolID			39		/* Volume serial number (4) */
 387:fatfs/ff.c    **** #define BS_VolLab			43		/* Volume label (8) */
 388:fatfs/ff.c    **** #define BS_FilSysType		54		/* File system type (1) */
 389:fatfs/ff.c    **** #define BPB_FATSz32			36		/* FAT size [sector] (4) */
 390:fatfs/ff.c    **** #define BPB_ExtFlags		40		/* Extended flags (2) */
 391:fatfs/ff.c    **** #define BPB_FSVer			42		/* File system version (2) */
 392:fatfs/ff.c    **** #define BPB_RootClus		44		/* Root directory first cluster (4) */
 393:fatfs/ff.c    **** #define BPB_FSInfo			48		/* Offset of FSINFO sector (2) */
 394:fatfs/ff.c    **** #define BPB_BkBootSec		50		/* Offset of backup boot sector (2) */
 395:fatfs/ff.c    **** #define BS_DrvNum32			64		/* Physical drive number (1) */
 396:fatfs/ff.c    **** #define BS_NTres32			65		/* Error flag (1) */
 397:fatfs/ff.c    **** #define BS_BootSig32		66		/* Extended boot signature (1) */
 398:fatfs/ff.c    **** #define BS_VolID32			67		/* Volume serial number (4) */
 399:fatfs/ff.c    **** #define BS_VolLab32			71		/* Volume label (8) */
 400:fatfs/ff.c    **** #define BS_FilSysType32		82		/* File system type (1) */
 401:fatfs/ff.c    **** #define	FSI_LeadSig			0		/* FSI: Leading signature (4) */
 402:fatfs/ff.c    **** #define	FSI_StrucSig		484		/* FSI: Structure signature (4) */
 403:fatfs/ff.c    **** #define	FSI_Free_Count		488		/* FSI: Number of free clusters (4) */
 404:fatfs/ff.c    **** #define	FSI_Nxt_Free		492		/* FSI: Last allocated cluster (4) */
 405:fatfs/ff.c    **** #define MBR_Table			446		/* MBR: Partition table offset (2) */
 406:fatfs/ff.c    **** #define	SZ_PTE				16		/* MBR: Size of a partition table entry */
 407:fatfs/ff.c    **** #define BS_55AA				510		/* Signature word (2) */
 408:fatfs/ff.c    **** 
 409:fatfs/ff.c    **** #define	DIR_Name			0		/* Short file name (11) */
 410:fatfs/ff.c    **** #define	DIR_Attr			11		/* Attribute (1) */
 411:fatfs/ff.c    **** #define	DIR_NTres			12		/* Lower case flag (1) */
 412:fatfs/ff.c    **** #define DIR_CrtTimeTenth	13		/* Created time sub-second (1) */
 413:fatfs/ff.c    **** #define	DIR_CrtTime			14		/* Created time (2) */
 414:fatfs/ff.c    **** #define	DIR_CrtDate			16		/* Created date (2) */
 415:fatfs/ff.c    **** #define DIR_LstAccDate		18		/* Last accessed date (2) */
 416:fatfs/ff.c    **** #define	DIR_FstClusHI		20		/* Higher 16-bit of first cluster (2) */
 417:fatfs/ff.c    **** #define	DIR_WrtTime			22		/* Modified time (2) */
 418:fatfs/ff.c    **** #define	DIR_WrtDate			24		/* Modified date (2) */
 419:fatfs/ff.c    **** #define	DIR_FstClusLO		26		/* Lower 16-bit of first cluster (2) */
 420:fatfs/ff.c    **** #define	DIR_FileSize		28		/* File size (4) */
 421:fatfs/ff.c    **** #define	LDIR_Ord			0		/* LFN entry order and LLE flag (1) */
 422:fatfs/ff.c    **** #define	LDIR_Attr			11		/* LFN attribute (1) */
 423:fatfs/ff.c    **** #define	LDIR_Type			12		/* LFN type (1) */
 424:fatfs/ff.c    **** #define	LDIR_Chksum			13		/* Checksum of corresponding SFN entry */
 425:fatfs/ff.c    **** #define	LDIR_FstClusLO		26		/* Must be zero (0) */
 426:fatfs/ff.c    **** #define	SZ_DIRE				32		/* Size of a directory entry */
 427:fatfs/ff.c    **** #define	LLEF				0x40	/* Last long entry flag in LDIR_Ord */
 428:fatfs/ff.c    **** #define	DDEM				0xE5	/* Deleted directory entry mark at DIR_Name[0] */
 429:fatfs/ff.c    **** #define	RDDEM				0x05	/* Replacement of the character collides with DDEM */
 430:fatfs/ff.c    **** 
ARM GAS  C:\Users\DMYTRO~1.FED\AppData\Local\Temp\ccikP2CY.s 			page 9


 431:fatfs/ff.c    **** 
 432:fatfs/ff.c    **** 
 433:fatfs/ff.c    **** 
 434:fatfs/ff.c    **** /*--------------------------------------------------------------------------
 435:fatfs/ff.c    **** 
 436:fatfs/ff.c    ****    Module Private Work Area
 437:fatfs/ff.c    **** 
 438:fatfs/ff.c    **** ---------------------------------------------------------------------------*/
 439:fatfs/ff.c    **** 
 440:fatfs/ff.c    **** /* Remark: Uninitialized variables with static duration are guaranteed
 441:fatfs/ff.c    **** /  zero/null at start-up. If not, either the linker or start-up routine
 442:fatfs/ff.c    **** /  being used is not compliance with ANSI-C standard.
 443:fatfs/ff.c    **** */
 444:fatfs/ff.c    **** 
 445:fatfs/ff.c    **** #if _VOLUMES < 1 || _VOLUMES > 9
 446:fatfs/ff.c    **** #error Wrong _VOLUMES setting
 447:fatfs/ff.c    **** #endif
 448:fatfs/ff.c    **** static FATFS *FatFs[_VOLUMES];	/* Pointer to the file system objects (logical drives) */
 449:fatfs/ff.c    **** static WORD Fsid;				/* File system mount ID */
 450:fatfs/ff.c    **** 
 451:fatfs/ff.c    **** #if _FS_RPATH && _VOLUMES >= 2
 452:fatfs/ff.c    **** static BYTE CurrVol;			/* Current drive */
 453:fatfs/ff.c    **** #endif
 454:fatfs/ff.c    **** 
 455:fatfs/ff.c    **** #if _FS_LOCK
 456:fatfs/ff.c    **** static FILESEM Files[_FS_LOCK];	/* Open object lock semaphores */
 457:fatfs/ff.c    **** #endif
 458:fatfs/ff.c    **** 
 459:fatfs/ff.c    **** #if _USE_LFN == 0			/* Non LFN feature */
 460:fatfs/ff.c    **** #define	DEFINE_NAMEBUF		BYTE sfn[12]
 461:fatfs/ff.c    **** #define INIT_BUF(dobj)		(dobj).fn = sfn
 462:fatfs/ff.c    **** #define	FREE_BUF()
 463:fatfs/ff.c    **** #else
 464:fatfs/ff.c    **** #if _MAX_LFN < 12 || _MAX_LFN > 255
 465:fatfs/ff.c    **** #error Wrong _MAX_LFN setting
 466:fatfs/ff.c    **** #endif
 467:fatfs/ff.c    **** #if _USE_LFN == 1			/* LFN feature with static working buffer */
 468:fatfs/ff.c    **** static WCHAR LfnBuf[_MAX_LFN + 1];
 469:fatfs/ff.c    **** #define	DEFINE_NAMEBUF		BYTE sfn[12]
 470:fatfs/ff.c    **** #define INIT_BUF(dobj)		{ (dobj).fn = sfn; (dobj).lfn = LfnBuf; }
 471:fatfs/ff.c    **** #define	FREE_BUF()
 472:fatfs/ff.c    **** #elif _USE_LFN == 2 		/* LFN feature with dynamic working buffer on the stack */
 473:fatfs/ff.c    **** #define	DEFINE_NAMEBUF		BYTE sfn[12]; WCHAR lbuf[_MAX_LFN + 1]
 474:fatfs/ff.c    **** #define INIT_BUF(dobj)		{ (dobj).fn = sfn; (dobj).lfn = lbuf; }
 475:fatfs/ff.c    **** #define	FREE_BUF()
 476:fatfs/ff.c    **** #elif _USE_LFN == 3 		/* LFN feature with dynamic working buffer on the heap */
 477:fatfs/ff.c    **** #define	DEFINE_NAMEBUF		BYTE sfn[12]; WCHAR *lfn
 478:fatfs/ff.c    **** #define INIT_BUF(dobj)		{ lfn = ff_memalloc((_MAX_LFN + 1) * 2); if (!lfn) LEAVE_FF((dobj).fs, FR_N
 479:fatfs/ff.c    **** #define	FREE_BUF()			ff_memfree(lfn)
 480:fatfs/ff.c    **** #else
 481:fatfs/ff.c    **** #error Wrong _USE_LFN setting
 482:fatfs/ff.c    **** #endif
 483:fatfs/ff.c    **** #endif
 484:fatfs/ff.c    **** 
 485:fatfs/ff.c    **** #ifdef _EXCVT
 486:fatfs/ff.c    **** static const BYTE ExCvt[] = _EXCVT;	/* Upper conversion table for SBCS extended characters */
 487:fatfs/ff.c    **** #endif
ARM GAS  C:\Users\DMYTRO~1.FED\AppData\Local\Temp\ccikP2CY.s 			page 10


 488:fatfs/ff.c    **** 
 489:fatfs/ff.c    **** 
 490:fatfs/ff.c    **** 
 491:fatfs/ff.c    **** 
 492:fatfs/ff.c    **** 
 493:fatfs/ff.c    **** 
 494:fatfs/ff.c    **** /*--------------------------------------------------------------------------
 495:fatfs/ff.c    **** 
 496:fatfs/ff.c    ****    Module Private Functions
 497:fatfs/ff.c    **** 
 498:fatfs/ff.c    **** ---------------------------------------------------------------------------*/
 499:fatfs/ff.c    **** 
 500:fatfs/ff.c    **** 
 501:fatfs/ff.c    **** /*-----------------------------------------------------------------------*/
 502:fatfs/ff.c    **** /* String functions                                                      */
 503:fatfs/ff.c    **** /*-----------------------------------------------------------------------*/
 504:fatfs/ff.c    **** 
 505:fatfs/ff.c    **** /* Copy memory to memory */
 506:fatfs/ff.c    **** static
 507:fatfs/ff.c    **** void mem_cpy (void* dst, const void* src, UINT cnt) {
  27              		.loc 1 507 0
  28              		.cfi_startproc
  29              		@ args = 0, pretend = 0, frame = 0
  30              		@ frame_needed = 0, uses_anonymous_args = 0
  31              		@ link register save eliminated.
  32              	.LVL0:
 508:fatfs/ff.c    **** 	BYTE *d = (BYTE*)dst;
 509:fatfs/ff.c    **** 	const BYTE *s = (const BYTE*)src;
 510:fatfs/ff.c    **** 
 511:fatfs/ff.c    **** #if _WORD_ACCESS == 1
 512:fatfs/ff.c    **** 	while (cnt >= sizeof (int)) {
 513:fatfs/ff.c    **** 		*(int*)d = *(int*)s;
 514:fatfs/ff.c    **** 		d += sizeof (int); s += sizeof (int);
 515:fatfs/ff.c    **** 		cnt -= sizeof (int);
 516:fatfs/ff.c    **** 	}
 517:fatfs/ff.c    **** #endif
 518:fatfs/ff.c    **** 	while (cnt--)
  33              		.loc 1 518 0
  34 0000 04E0     		b	.L2
  35              	.LVL1:
  36              	.L3:
 519:fatfs/ff.c    **** 		*d++ = *s++;
  37              		.loc 1 519 0
  38 0002 0A78     		ldrb	r2, [r1]
  39 0004 0270     		strb	r2, [r0]
 518:fatfs/ff.c    **** 		*d++ = *s++;
  40              		.loc 1 518 0
  41 0006 1A00     		movs	r2, r3
  42              		.loc 1 519 0
  43 0008 0131     		adds	r1, r1, #1
  44              	.LVL2:
  45 000a 0130     		adds	r0, r0, #1
  46              	.LVL3:
  47              	.L2:
 518:fatfs/ff.c    **** 		*d++ = *s++;
  48              		.loc 1 518 0
  49 000c 531E     		subs	r3, r2, #1
ARM GAS  C:\Users\DMYTRO~1.FED\AppData\Local\Temp\ccikP2CY.s 			page 11


  50              	.LVL4:
  51 000e 002A     		cmp	r2, #0
  52 0010 F7D1     		bne	.L3
 520:fatfs/ff.c    **** }
  53              		.loc 1 520 0
  54              		@ sp needed
  55 0012 7047     		bx	lr
  56              		.cfi_endproc
  57              	.LFE0:
  58              		.size	mem_cpy, .-mem_cpy
  59              		.section	.text.mem_set,"ax",%progbits
  60              		.align	2
  61              		.code	16
  62              		.thumb_func
  63              		.type	mem_set, %function
  64              	mem_set:
  65              	.LFB1:
 521:fatfs/ff.c    **** 
 522:fatfs/ff.c    **** /* Fill memory */
 523:fatfs/ff.c    **** static
 524:fatfs/ff.c    **** void mem_set (void* dst, int val, UINT cnt) {
  66              		.loc 1 524 0
  67              		.cfi_startproc
  68              		@ args = 0, pretend = 0, frame = 0
  69              		@ frame_needed = 0, uses_anonymous_args = 0
  70              		@ link register save eliminated.
  71              	.LVL5:
 525:fatfs/ff.c    **** 	BYTE *d = (BYTE*)dst;
 526:fatfs/ff.c    **** 
 527:fatfs/ff.c    **** 	while (cnt--)
  72              		.loc 1 527 0
  73 0000 02E0     		b	.L5
  74              	.LVL6:
  75              	.L6:
 528:fatfs/ff.c    **** 		*d++ = (BYTE)val;
  76              		.loc 1 528 0
  77 0002 0170     		strb	r1, [r0]
 527:fatfs/ff.c    **** 		*d++ = (BYTE)val;
  78              		.loc 1 527 0
  79 0004 1A00     		movs	r2, r3
  80              		.loc 1 528 0
  81 0006 0130     		adds	r0, r0, #1
  82              	.LVL7:
  83              	.L5:
 527:fatfs/ff.c    **** 		*d++ = (BYTE)val;
  84              		.loc 1 527 0
  85 0008 531E     		subs	r3, r2, #1
  86              	.LVL8:
  87 000a 002A     		cmp	r2, #0
  88 000c F9D1     		bne	.L6
 529:fatfs/ff.c    **** }
  89              		.loc 1 529 0
  90              		@ sp needed
  91 000e 7047     		bx	lr
  92              		.cfi_endproc
  93              	.LFE1:
  94              		.size	mem_set, .-mem_set
ARM GAS  C:\Users\DMYTRO~1.FED\AppData\Local\Temp\ccikP2CY.s 			page 12


  95              		.section	.text.mem_cmp,"ax",%progbits
  96              		.align	2
  97              		.code	16
  98              		.thumb_func
  99              		.type	mem_cmp, %function
 100              	mem_cmp:
 101              	.LFB2:
 530:fatfs/ff.c    **** 
 531:fatfs/ff.c    **** /* Compare memory to memory */
 532:fatfs/ff.c    **** static
 533:fatfs/ff.c    **** int mem_cmp (const void* dst, const void* src, UINT cnt) {
 102              		.loc 1 533 0
 103              		.cfi_startproc
 104              		@ args = 0, pretend = 0, frame = 0
 105              		@ frame_needed = 0, uses_anonymous_args = 0
 106              	.LVL9:
 107 0000 70B5     		push	{r4, r5, r6, lr}
 108              		.cfi_def_cfa_offset 16
 109              		.cfi_offset 4, -16
 110              		.cfi_offset 5, -12
 111              		.cfi_offset 6, -8
 112              		.cfi_offset 14, -4
 113 0002 0300     		movs	r3, r0
 114              	.LVL10:
 534:fatfs/ff.c    **** 	const BYTE *d = (const BYTE *)dst, *s = (const BYTE *)src;
 535:fatfs/ff.c    **** 	int r = 0;
 115              		.loc 1 535 0
 116 0004 0020     		movs	r0, #0
 117              	.LVL11:
 536:fatfs/ff.c    **** 
 537:fatfs/ff.c    **** 	while (cnt-- && (r = *d++ - *s++) == 0) ;
 118              		.loc 1 537 0
 119 0006 01E0     		b	.L9
 120              	.LVL12:
 121              	.L10:
 122 0008 2900     		movs	r1, r5
 123 000a 3300     		movs	r3, r6
 124              	.LVL13:
 125              	.L9:
 126              		.loc 1 537 0 is_stmt 0 discriminator 2
 127 000c 541E     		subs	r4, r2, #1
 128              	.LVL14:
 129 000e 002A     		cmp	r2, #0
 130 0010 07D0     		beq	.L8
 131              		.loc 1 537 0 discriminator 1
 132 0012 5E1C     		adds	r6, r3, #1
 133              	.LVL15:
 134 0014 1B78     		ldrb	r3, [r3]
 135 0016 4D1C     		adds	r5, r1, #1
 136              	.LVL16:
 137 0018 0878     		ldrb	r0, [r1]
 138              	.LVL17:
 139 001a 181A     		subs	r0, r3, r0
 140              	.LVL18:
 141 001c 2200     		movs	r2, r4
 142 001e 0028     		cmp	r0, #0
 143 0020 F2D0     		beq	.L10
ARM GAS  C:\Users\DMYTRO~1.FED\AppData\Local\Temp\ccikP2CY.s 			page 13


 144              	.LVL19:
 145              	.L8:
 538:fatfs/ff.c    **** 	return r;
 539:fatfs/ff.c    **** }
 146              		.loc 1 539 0 is_stmt 1
 147              		@ sp needed
 148              	.LVL20:
 149 0022 70BD     		pop	{r4, r5, r6, pc}
 150              		.cfi_endproc
 151              	.LFE2:
 152              		.size	mem_cmp, .-mem_cmp
 153              		.section	.text.chk_chr,"ax",%progbits
 154              		.align	2
 155              		.code	16
 156              		.thumb_func
 157              		.type	chk_chr, %function
 158              	chk_chr:
 159              	.LFB3:
 540:fatfs/ff.c    **** 
 541:fatfs/ff.c    **** /* Check if chr is contained in the string */
 542:fatfs/ff.c    **** static
 543:fatfs/ff.c    **** int chk_chr (const char* str, int chr) {
 160              		.loc 1 543 0
 161              		.cfi_startproc
 162              		@ args = 0, pretend = 0, frame = 0
 163              		@ frame_needed = 0, uses_anonymous_args = 0
 164              		@ link register save eliminated.
 165              	.LVL21:
 544:fatfs/ff.c    **** 	while (*str && *str != chr) str++;
 166              		.loc 1 544 0
 167 0000 00E0     		b	.L12
 168              	.L14:
 169              		.loc 1 544 0 is_stmt 0 discriminator 3
 170 0002 0130     		adds	r0, r0, #1
 171              	.LVL22:
 172              	.L12:
 173              		.loc 1 544 0 discriminator 1
 174 0004 0378     		ldrb	r3, [r0]
 175 0006 002B     		cmp	r3, #0
 176 0008 01D0     		beq	.L13
 177              		.loc 1 544 0 discriminator 2
 178 000a 8B42     		cmp	r3, r1
 179 000c F9D1     		bne	.L14
 180              	.L13:
 545:fatfs/ff.c    **** 	return *str;
 546:fatfs/ff.c    **** }
 181              		.loc 1 546 0 is_stmt 1
 182 000e 1800     		movs	r0, r3
 183              	.LVL23:
 184              		@ sp needed
 185 0010 7047     		bx	lr
 186              		.cfi_endproc
 187              	.LFE3:
 188              		.size	chk_chr, .-chk_chr
 189 0012 C046     		.section	.text.ld_clust,"ax",%progbits
 190              		.align	2
 191              		.code	16
ARM GAS  C:\Users\DMYTRO~1.FED\AppData\Local\Temp\ccikP2CY.s 			page 14


 192              		.thumb_func
 193              		.type	ld_clust, %function
 194              	ld_clust:
 195              	.LFB15:
 547:fatfs/ff.c    **** 
 548:fatfs/ff.c    **** 
 549:fatfs/ff.c    **** 
 550:fatfs/ff.c    **** 
 551:fatfs/ff.c    **** /*-----------------------------------------------------------------------*/
 552:fatfs/ff.c    **** /* Request/Release grant to access the volume                            */
 553:fatfs/ff.c    **** /*-----------------------------------------------------------------------*/
 554:fatfs/ff.c    **** #if _FS_REENTRANT
 555:fatfs/ff.c    **** static
 556:fatfs/ff.c    **** int lock_fs (
 557:fatfs/ff.c    **** 	FATFS* fs		/* File system object */
 558:fatfs/ff.c    **** )
 559:fatfs/ff.c    **** {
 560:fatfs/ff.c    **** 	return ff_req_grant(fs->sobj);
 561:fatfs/ff.c    **** }
 562:fatfs/ff.c    **** 
 563:fatfs/ff.c    **** 
 564:fatfs/ff.c    **** static
 565:fatfs/ff.c    **** void unlock_fs (
 566:fatfs/ff.c    **** 	FATFS* fs,		/* File system object */
 567:fatfs/ff.c    **** 	FRESULT res		/* Result code to be returned */
 568:fatfs/ff.c    **** )
 569:fatfs/ff.c    **** {
 570:fatfs/ff.c    **** 	if (fs &&
 571:fatfs/ff.c    **** 		res != FR_NOT_ENABLED &&
 572:fatfs/ff.c    **** 		res != FR_INVALID_DRIVE &&
 573:fatfs/ff.c    **** 		res != FR_INVALID_OBJECT &&
 574:fatfs/ff.c    **** 		res != FR_TIMEOUT) {
 575:fatfs/ff.c    **** 		ff_rel_grant(fs->sobj);
 576:fatfs/ff.c    **** 	}
 577:fatfs/ff.c    **** }
 578:fatfs/ff.c    **** #endif
 579:fatfs/ff.c    **** 
 580:fatfs/ff.c    **** 
 581:fatfs/ff.c    **** 
 582:fatfs/ff.c    **** 
 583:fatfs/ff.c    **** /*-----------------------------------------------------------------------*/
 584:fatfs/ff.c    **** /* File lock control functions                                           */
 585:fatfs/ff.c    **** /*-----------------------------------------------------------------------*/
 586:fatfs/ff.c    **** #if _FS_LOCK
 587:fatfs/ff.c    **** 
 588:fatfs/ff.c    **** static
 589:fatfs/ff.c    **** FRESULT chk_lock (	/* Check if the file can be accessed */
 590:fatfs/ff.c    **** 	DIR* dp,		/* Directory object pointing the file to be checked */
 591:fatfs/ff.c    **** 	int acc			/* Desired access type (0:Read, 1:Write, 2:Delete/Rename) */
 592:fatfs/ff.c    **** )
 593:fatfs/ff.c    **** {
 594:fatfs/ff.c    **** 	UINT i, be;
 595:fatfs/ff.c    **** 
 596:fatfs/ff.c    **** 	/* Search file semaphore table */
 597:fatfs/ff.c    **** 	for (i = be = 0; i < _FS_LOCK; i++) {
 598:fatfs/ff.c    **** 		if (Files[i].fs) {	/* Existing entry */
 599:fatfs/ff.c    **** 			if (Files[i].fs == dp->fs &&	 	/* Check if the object matched with an open object */
ARM GAS  C:\Users\DMYTRO~1.FED\AppData\Local\Temp\ccikP2CY.s 			page 15


 600:fatfs/ff.c    **** 				Files[i].clu == dp->sclust &&
 601:fatfs/ff.c    **** 				Files[i].idx == dp->index) break;
 602:fatfs/ff.c    **** 		} else {			/* Blank entry */
 603:fatfs/ff.c    **** 			be = 1;
 604:fatfs/ff.c    **** 		}
 605:fatfs/ff.c    **** 	}
 606:fatfs/ff.c    **** 	if (i == _FS_LOCK)	/* The object is not opened */
 607:fatfs/ff.c    **** 		return (be || acc == 2) ? FR_OK : FR_TOO_MANY_OPEN_FILES;	/* Is there a blank entry for new objec
 608:fatfs/ff.c    **** 
 609:fatfs/ff.c    **** 	/* The object has been opened. Reject any open against writing file and all write mode open */
 610:fatfs/ff.c    **** 	return (acc || Files[i].ctr == 0x100) ? FR_LOCKED : FR_OK;
 611:fatfs/ff.c    **** }
 612:fatfs/ff.c    **** 
 613:fatfs/ff.c    **** 
 614:fatfs/ff.c    **** static
 615:fatfs/ff.c    **** int enq_lock (void)	/* Check if an entry is available for a new object */
 616:fatfs/ff.c    **** {
 617:fatfs/ff.c    **** 	UINT i;
 618:fatfs/ff.c    **** 
 619:fatfs/ff.c    **** 	for (i = 0; i < _FS_LOCK && Files[i].fs; i++) ;
 620:fatfs/ff.c    **** 	return (i == _FS_LOCK) ? 0 : 1;
 621:fatfs/ff.c    **** }
 622:fatfs/ff.c    **** 
 623:fatfs/ff.c    **** 
 624:fatfs/ff.c    **** static
 625:fatfs/ff.c    **** UINT inc_lock (	/* Increment object open counter and returns its index (0:Internal error) */
 626:fatfs/ff.c    **** 	DIR* dp,	/* Directory object pointing the file to register or increment */
 627:fatfs/ff.c    **** 	int acc		/* Desired access (0:Read, 1:Write, 2:Delete/Rename) */
 628:fatfs/ff.c    **** )
 629:fatfs/ff.c    **** {
 630:fatfs/ff.c    **** 	UINT i;
 631:fatfs/ff.c    **** 
 632:fatfs/ff.c    **** 
 633:fatfs/ff.c    **** 	for (i = 0; i < _FS_LOCK; i++) {	/* Find the object */
 634:fatfs/ff.c    **** 		if (Files[i].fs == dp->fs &&
 635:fatfs/ff.c    **** 			Files[i].clu == dp->sclust &&
 636:fatfs/ff.c    **** 			Files[i].idx == dp->index) break;
 637:fatfs/ff.c    **** 	}
 638:fatfs/ff.c    **** 
 639:fatfs/ff.c    **** 	if (i == _FS_LOCK) {				/* Not opened. Register it as new. */
 640:fatfs/ff.c    **** 		for (i = 0; i < _FS_LOCK && Files[i].fs; i++) ;
 641:fatfs/ff.c    **** 		if (i == _FS_LOCK) return 0;	/* No free entry to register (int err) */
 642:fatfs/ff.c    **** 		Files[i].fs = dp->fs;
 643:fatfs/ff.c    **** 		Files[i].clu = dp->sclust;
 644:fatfs/ff.c    **** 		Files[i].idx = dp->index;
 645:fatfs/ff.c    **** 		Files[i].ctr = 0;
 646:fatfs/ff.c    **** 	}
 647:fatfs/ff.c    **** 
 648:fatfs/ff.c    **** 	if (acc && Files[i].ctr) return 0;	/* Access violation (int err) */
 649:fatfs/ff.c    **** 
 650:fatfs/ff.c    **** 	Files[i].ctr = acc ? 0x100 : Files[i].ctr + 1;	/* Set semaphore value */
 651:fatfs/ff.c    **** 
 652:fatfs/ff.c    **** 	return i + 1;
 653:fatfs/ff.c    **** }
 654:fatfs/ff.c    **** 
 655:fatfs/ff.c    **** 
 656:fatfs/ff.c    **** static
ARM GAS  C:\Users\DMYTRO~1.FED\AppData\Local\Temp\ccikP2CY.s 			page 16


 657:fatfs/ff.c    **** FRESULT dec_lock (	/* Decrement object open counter */
 658:fatfs/ff.c    **** 	UINT i			/* Semaphore index (1..) */
 659:fatfs/ff.c    **** )
 660:fatfs/ff.c    **** {
 661:fatfs/ff.c    **** 	WORD n;
 662:fatfs/ff.c    **** 	FRESULT res;
 663:fatfs/ff.c    **** 
 664:fatfs/ff.c    **** 
 665:fatfs/ff.c    **** 	if (--i < _FS_LOCK) {	/* Shift index number origin from 0 */
 666:fatfs/ff.c    **** 		n = Files[i].ctr;
 667:fatfs/ff.c    **** 		if (n == 0x100) n = 0;		/* If write mode open, delete the entry */
 668:fatfs/ff.c    **** 		if (n) n--;					/* Decrement read mode open count */
 669:fatfs/ff.c    **** 		Files[i].ctr = n;
 670:fatfs/ff.c    **** 		if (!n) Files[i].fs = 0;	/* Delete the entry if open count gets zero */
 671:fatfs/ff.c    **** 		res = FR_OK;
 672:fatfs/ff.c    **** 	} else {
 673:fatfs/ff.c    **** 		res = FR_INT_ERR;			/* Invalid index nunber */
 674:fatfs/ff.c    **** 	}
 675:fatfs/ff.c    **** 	return res;
 676:fatfs/ff.c    **** }
 677:fatfs/ff.c    **** 
 678:fatfs/ff.c    **** 
 679:fatfs/ff.c    **** static
 680:fatfs/ff.c    **** void clear_lock (	/* Clear lock entries of the volume */
 681:fatfs/ff.c    **** 	FATFS *fs
 682:fatfs/ff.c    **** )
 683:fatfs/ff.c    **** {
 684:fatfs/ff.c    **** 	UINT i;
 685:fatfs/ff.c    **** 
 686:fatfs/ff.c    **** 	for (i = 0; i < _FS_LOCK; i++) {
 687:fatfs/ff.c    **** 		if (Files[i].fs == fs) Files[i].fs = 0;
 688:fatfs/ff.c    **** 	}
 689:fatfs/ff.c    **** }
 690:fatfs/ff.c    **** #endif
 691:fatfs/ff.c    **** 
 692:fatfs/ff.c    **** 
 693:fatfs/ff.c    **** 
 694:fatfs/ff.c    **** 
 695:fatfs/ff.c    **** /*-----------------------------------------------------------------------*/
 696:fatfs/ff.c    **** /* Move/Flush disk access window in the file system object               */
 697:fatfs/ff.c    **** /*-----------------------------------------------------------------------*/
 698:fatfs/ff.c    **** #if !_FS_READONLY
 699:fatfs/ff.c    **** static
 700:fatfs/ff.c    **** FRESULT sync_window (	/* FR_OK:succeeded, !=0:error */
 701:fatfs/ff.c    **** 	FATFS* fs		/* File system object */
 702:fatfs/ff.c    **** )
 703:fatfs/ff.c    **** {
 704:fatfs/ff.c    **** 	DWORD wsect;
 705:fatfs/ff.c    **** 	UINT nf;
 706:fatfs/ff.c    **** 	FRESULT res = FR_OK;
 707:fatfs/ff.c    **** 
 708:fatfs/ff.c    **** 
 709:fatfs/ff.c    **** 	if (fs->wflag) {	/* Write back the sector if it is dirty */
 710:fatfs/ff.c    **** 		wsect = fs->winsect;	/* Current sector number */
 711:fatfs/ff.c    **** 		if (disk_write(fs->drv, fs->win, wsect, 1) != RES_OK) {
 712:fatfs/ff.c    **** 			res = FR_DISK_ERR;
 713:fatfs/ff.c    **** 		} else {
ARM GAS  C:\Users\DMYTRO~1.FED\AppData\Local\Temp\ccikP2CY.s 			page 17


 714:fatfs/ff.c    **** 			fs->wflag = 0;
 715:fatfs/ff.c    **** 			if (wsect - fs->fatbase < fs->fsize) {		/* Is it in the FAT area? */
 716:fatfs/ff.c    **** 				for (nf = fs->n_fats; nf >= 2; nf--) {	/* Reflect the change to all FAT copies */
 717:fatfs/ff.c    **** 					wsect += fs->fsize;
 718:fatfs/ff.c    **** 					disk_write(fs->drv, fs->win, wsect, 1);
 719:fatfs/ff.c    **** 				}
 720:fatfs/ff.c    **** 			}
 721:fatfs/ff.c    **** 		}
 722:fatfs/ff.c    **** 	}
 723:fatfs/ff.c    **** 	return res;
 724:fatfs/ff.c    **** }
 725:fatfs/ff.c    **** #endif
 726:fatfs/ff.c    **** 
 727:fatfs/ff.c    **** 
 728:fatfs/ff.c    **** static
 729:fatfs/ff.c    **** FRESULT move_window (	/* FR_OK(0):succeeded, !=0:error */
 730:fatfs/ff.c    **** 	FATFS* fs,		/* File system object */
 731:fatfs/ff.c    **** 	DWORD sector	/* Sector number to make appearance in the fs->win[] */
 732:fatfs/ff.c    **** )
 733:fatfs/ff.c    **** {
 734:fatfs/ff.c    **** 	FRESULT res = FR_OK;
 735:fatfs/ff.c    **** 
 736:fatfs/ff.c    **** 
 737:fatfs/ff.c    **** 	if (sector != fs->winsect) {	/* Window offset changed? */
 738:fatfs/ff.c    **** #if !_FS_READONLY
 739:fatfs/ff.c    **** 		res = sync_window(fs);		/* Write-back changes */
 740:fatfs/ff.c    **** #endif
 741:fatfs/ff.c    **** 		if (res == FR_OK) {			/* Fill sector window with new data */
 742:fatfs/ff.c    **** 			if (disk_read(fs->drv, fs->win, sector, 1) != RES_OK) {
 743:fatfs/ff.c    **** 				sector = 0xFFFFFFFF;	/* Invalidate window if data is not reliable */
 744:fatfs/ff.c    **** 				res = FR_DISK_ERR;
 745:fatfs/ff.c    **** 			}
 746:fatfs/ff.c    **** 			fs->winsect = sector;
 747:fatfs/ff.c    **** 		}
 748:fatfs/ff.c    **** 	}
 749:fatfs/ff.c    **** 	return res;
 750:fatfs/ff.c    **** }
 751:fatfs/ff.c    **** 
 752:fatfs/ff.c    **** 
 753:fatfs/ff.c    **** 
 754:fatfs/ff.c    **** 
 755:fatfs/ff.c    **** /*-----------------------------------------------------------------------*/
 756:fatfs/ff.c    **** /* Synchronize file system and strage device                             */
 757:fatfs/ff.c    **** /*-----------------------------------------------------------------------*/
 758:fatfs/ff.c    **** #if !_FS_READONLY
 759:fatfs/ff.c    **** static
 760:fatfs/ff.c    **** FRESULT sync_fs (	/* FR_OK:succeeded, !=0:error */
 761:fatfs/ff.c    **** 	FATFS* fs		/* File system object */
 762:fatfs/ff.c    **** )
 763:fatfs/ff.c    **** {
 764:fatfs/ff.c    **** 	FRESULT res;
 765:fatfs/ff.c    **** 
 766:fatfs/ff.c    **** 
 767:fatfs/ff.c    **** 	res = sync_window(fs);
 768:fatfs/ff.c    **** 	if (res == FR_OK) {
 769:fatfs/ff.c    **** 		/* Update FSInfo sector if needed */
 770:fatfs/ff.c    **** 		if (fs->fs_type == FS_FAT32 && fs->fsi_flag == 1) {
ARM GAS  C:\Users\DMYTRO~1.FED\AppData\Local\Temp\ccikP2CY.s 			page 18


 771:fatfs/ff.c    **** 			/* Create FSInfo structure */
 772:fatfs/ff.c    **** 			mem_set(fs->win, 0, SS(fs));
 773:fatfs/ff.c    **** 			ST_WORD(fs->win + BS_55AA, 0xAA55);
 774:fatfs/ff.c    **** 			ST_DWORD(fs->win + FSI_LeadSig, 0x41615252);
 775:fatfs/ff.c    **** 			ST_DWORD(fs->win + FSI_StrucSig, 0x61417272);
 776:fatfs/ff.c    **** 			ST_DWORD(fs->win + FSI_Free_Count, fs->free_clust);
 777:fatfs/ff.c    **** 			ST_DWORD(fs->win + FSI_Nxt_Free, fs->last_clust);
 778:fatfs/ff.c    **** 			/* Write it into the FSInfo sector */
 779:fatfs/ff.c    **** 			fs->winsect = fs->volbase + 1;
 780:fatfs/ff.c    **** 			disk_write(fs->drv, fs->win, fs->winsect, 1);
 781:fatfs/ff.c    **** 			fs->fsi_flag = 0;
 782:fatfs/ff.c    **** 		}
 783:fatfs/ff.c    **** 		/* Make sure that no pending write process in the physical drive */
 784:fatfs/ff.c    **** 		if (disk_ioctl(fs->drv, CTRL_SYNC, 0) != RES_OK)
 785:fatfs/ff.c    **** 			res = FR_DISK_ERR;
 786:fatfs/ff.c    **** 	}
 787:fatfs/ff.c    **** 
 788:fatfs/ff.c    **** 	return res;
 789:fatfs/ff.c    **** }
 790:fatfs/ff.c    **** #endif
 791:fatfs/ff.c    **** 
 792:fatfs/ff.c    **** 
 793:fatfs/ff.c    **** 
 794:fatfs/ff.c    **** 
 795:fatfs/ff.c    **** /*-----------------------------------------------------------------------*/
 796:fatfs/ff.c    **** /* Get sector# from cluster#                                             */
 797:fatfs/ff.c    **** /*-----------------------------------------------------------------------*/
 798:fatfs/ff.c    **** /* Hidden API for hacks and disk tools */
 799:fatfs/ff.c    **** 
 800:fatfs/ff.c    **** DWORD clust2sect (	/* !=0:Sector number, 0:Failed (invalid cluster#) */
 801:fatfs/ff.c    **** 	FATFS* fs,		/* File system object */
 802:fatfs/ff.c    **** 	DWORD clst		/* Cluster# to be converted */
 803:fatfs/ff.c    **** )
 804:fatfs/ff.c    **** {
 805:fatfs/ff.c    **** 	clst -= 2;
 806:fatfs/ff.c    **** 	if (clst >= fs->n_fatent - 2) return 0;		/* Invalid cluster# */
 807:fatfs/ff.c    **** 	return clst * fs->csize + fs->database;
 808:fatfs/ff.c    **** }
 809:fatfs/ff.c    **** 
 810:fatfs/ff.c    **** 
 811:fatfs/ff.c    **** 
 812:fatfs/ff.c    **** 
 813:fatfs/ff.c    **** /*-----------------------------------------------------------------------*/
 814:fatfs/ff.c    **** /* FAT access - Read value of a FAT entry                                */
 815:fatfs/ff.c    **** /*-----------------------------------------------------------------------*/
 816:fatfs/ff.c    **** /* Hidden API for hacks and disk tools */
 817:fatfs/ff.c    **** 
 818:fatfs/ff.c    **** DWORD get_fat (	/* 0xFFFFFFFF:Disk error, 1:Internal error, 2..0x0FFFFFFF:Cluster status */
 819:fatfs/ff.c    **** 	FATFS* fs,	/* File system object */
 820:fatfs/ff.c    **** 	DWORD clst	/* FAT index number (cluster number) to get the value */
 821:fatfs/ff.c    **** )
 822:fatfs/ff.c    **** {
 823:fatfs/ff.c    **** 	UINT wc, bc;
 824:fatfs/ff.c    **** 	BYTE *p;
 825:fatfs/ff.c    **** 	DWORD val;
 826:fatfs/ff.c    **** 
 827:fatfs/ff.c    **** 
ARM GAS  C:\Users\DMYTRO~1.FED\AppData\Local\Temp\ccikP2CY.s 			page 19


 828:fatfs/ff.c    **** 	if (clst < 2 || clst >= fs->n_fatent) {	/* Check if in valid range */
 829:fatfs/ff.c    **** 		val = 1;	/* Internal error */
 830:fatfs/ff.c    **** 
 831:fatfs/ff.c    **** 	} else {
 832:fatfs/ff.c    **** 		val = 0xFFFFFFFF;	/* Default value falls on disk error */
 833:fatfs/ff.c    **** 
 834:fatfs/ff.c    **** 		switch (fs->fs_type) {
 835:fatfs/ff.c    **** 		case FS_FAT12 :
 836:fatfs/ff.c    **** 			bc = (UINT)clst; bc += bc / 2;
 837:fatfs/ff.c    **** 			if (move_window(fs, fs->fatbase + (bc / SS(fs))) != FR_OK) break;
 838:fatfs/ff.c    **** 			wc = fs->win[bc++ % SS(fs)];
 839:fatfs/ff.c    **** 			if (move_window(fs, fs->fatbase + (bc / SS(fs))) != FR_OK) break;
 840:fatfs/ff.c    **** 			wc |= fs->win[bc % SS(fs)] << 8;
 841:fatfs/ff.c    **** 			val = clst & 1 ? wc >> 4 : (wc & 0xFFF);
 842:fatfs/ff.c    **** 			break;
 843:fatfs/ff.c    **** 
 844:fatfs/ff.c    **** 		case FS_FAT16 :
 845:fatfs/ff.c    **** 			if (move_window(fs, fs->fatbase + (clst / (SS(fs) / 2))) != FR_OK) break;
 846:fatfs/ff.c    **** 			p = &fs->win[clst * 2 % SS(fs)];
 847:fatfs/ff.c    **** 			val = LD_WORD(p);
 848:fatfs/ff.c    **** 			break;
 849:fatfs/ff.c    **** 
 850:fatfs/ff.c    **** 		case FS_FAT32 :
 851:fatfs/ff.c    **** 			if (move_window(fs, fs->fatbase + (clst / (SS(fs) / 4))) != FR_OK) break;
 852:fatfs/ff.c    **** 			p = &fs->win[clst * 4 % SS(fs)];
 853:fatfs/ff.c    **** 			val = LD_DWORD(p) & 0x0FFFFFFF;
 854:fatfs/ff.c    **** 			break;
 855:fatfs/ff.c    **** 
 856:fatfs/ff.c    **** 		default:
 857:fatfs/ff.c    **** 			val = 1;	/* Internal error */
 858:fatfs/ff.c    **** 		}
 859:fatfs/ff.c    **** 	}
 860:fatfs/ff.c    **** 
 861:fatfs/ff.c    **** 	return val;
 862:fatfs/ff.c    **** }
 863:fatfs/ff.c    **** 
 864:fatfs/ff.c    **** 
 865:fatfs/ff.c    **** 
 866:fatfs/ff.c    **** 
 867:fatfs/ff.c    **** /*-----------------------------------------------------------------------*/
 868:fatfs/ff.c    **** /* FAT access - Change value of a FAT entry                              */
 869:fatfs/ff.c    **** /*-----------------------------------------------------------------------*/
 870:fatfs/ff.c    **** /* Hidden API for hacks and disk tools */
 871:fatfs/ff.c    **** 
 872:fatfs/ff.c    **** #if !_FS_READONLY
 873:fatfs/ff.c    **** FRESULT put_fat (	/* FR_OK(0):succeeded, !=0:error */
 874:fatfs/ff.c    **** 	FATFS* fs,		/* File system object */
 875:fatfs/ff.c    **** 	DWORD clst,		/* FAT index number (cluster number) to be changed */
 876:fatfs/ff.c    **** 	DWORD val		/* New value to be set to the entry */
 877:fatfs/ff.c    **** )
 878:fatfs/ff.c    **** {
 879:fatfs/ff.c    **** 	UINT bc;
 880:fatfs/ff.c    **** 	BYTE *p;
 881:fatfs/ff.c    **** 	FRESULT res;
 882:fatfs/ff.c    **** 
 883:fatfs/ff.c    **** 
 884:fatfs/ff.c    **** 	if (clst < 2 || clst >= fs->n_fatent) {	/* Check if in valid range */
ARM GAS  C:\Users\DMYTRO~1.FED\AppData\Local\Temp\ccikP2CY.s 			page 20


 885:fatfs/ff.c    **** 		res = FR_INT_ERR;
 886:fatfs/ff.c    **** 
 887:fatfs/ff.c    **** 	} else {
 888:fatfs/ff.c    **** 		switch (fs->fs_type) {
 889:fatfs/ff.c    **** 		case FS_FAT12 :
 890:fatfs/ff.c    **** 			bc = (UINT)clst; bc += bc / 2;
 891:fatfs/ff.c    **** 			res = move_window(fs, fs->fatbase + (bc / SS(fs)));
 892:fatfs/ff.c    **** 			if (res != FR_OK) break;
 893:fatfs/ff.c    **** 			p = &fs->win[bc++ % SS(fs)];
 894:fatfs/ff.c    **** 			*p = (clst & 1) ? ((*p & 0x0F) | ((BYTE)val << 4)) : (BYTE)val;
 895:fatfs/ff.c    **** 			fs->wflag = 1;
 896:fatfs/ff.c    **** 			res = move_window(fs, fs->fatbase + (bc / SS(fs)));
 897:fatfs/ff.c    **** 			if (res != FR_OK) break;
 898:fatfs/ff.c    **** 			p = &fs->win[bc % SS(fs)];
 899:fatfs/ff.c    **** 			*p = (clst & 1) ? (BYTE)(val >> 4) : ((*p & 0xF0) | ((BYTE)(val >> 8) & 0x0F));
 900:fatfs/ff.c    **** 			fs->wflag = 1;
 901:fatfs/ff.c    **** 			break;
 902:fatfs/ff.c    **** 
 903:fatfs/ff.c    **** 		case FS_FAT16 :
 904:fatfs/ff.c    **** 			res = move_window(fs, fs->fatbase + (clst / (SS(fs) / 2)));
 905:fatfs/ff.c    **** 			if (res != FR_OK) break;
 906:fatfs/ff.c    **** 			p = &fs->win[clst * 2 % SS(fs)];
 907:fatfs/ff.c    **** 			ST_WORD(p, (WORD)val);
 908:fatfs/ff.c    **** 			fs->wflag = 1;
 909:fatfs/ff.c    **** 			break;
 910:fatfs/ff.c    **** 
 911:fatfs/ff.c    **** 		case FS_FAT32 :
 912:fatfs/ff.c    **** 			res = move_window(fs, fs->fatbase + (clst / (SS(fs) / 4)));
 913:fatfs/ff.c    **** 			if (res != FR_OK) break;
 914:fatfs/ff.c    **** 			p = &fs->win[clst * 4 % SS(fs)];
 915:fatfs/ff.c    **** 			val |= LD_DWORD(p) & 0xF0000000;
 916:fatfs/ff.c    **** 			ST_DWORD(p, val);
 917:fatfs/ff.c    **** 			fs->wflag = 1;
 918:fatfs/ff.c    **** 			break;
 919:fatfs/ff.c    **** 
 920:fatfs/ff.c    **** 		default :
 921:fatfs/ff.c    **** 			res = FR_INT_ERR;
 922:fatfs/ff.c    **** 		}
 923:fatfs/ff.c    **** 	}
 924:fatfs/ff.c    **** 
 925:fatfs/ff.c    **** 	return res;
 926:fatfs/ff.c    **** }
 927:fatfs/ff.c    **** #endif /* !_FS_READONLY */
 928:fatfs/ff.c    **** 
 929:fatfs/ff.c    **** 
 930:fatfs/ff.c    **** 
 931:fatfs/ff.c    **** 
 932:fatfs/ff.c    **** /*-----------------------------------------------------------------------*/
 933:fatfs/ff.c    **** /* FAT handling - Remove a cluster chain                                 */
 934:fatfs/ff.c    **** /*-----------------------------------------------------------------------*/
 935:fatfs/ff.c    **** #if !_FS_READONLY
 936:fatfs/ff.c    **** static
 937:fatfs/ff.c    **** FRESULT remove_chain (	/* FR_OK(0):succeeded, !=0:error */
 938:fatfs/ff.c    **** 	FATFS* fs,			/* File system object */
 939:fatfs/ff.c    **** 	DWORD clst			/* Cluster# to remove a chain from */
 940:fatfs/ff.c    **** )
 941:fatfs/ff.c    **** {
ARM GAS  C:\Users\DMYTRO~1.FED\AppData\Local\Temp\ccikP2CY.s 			page 21


 942:fatfs/ff.c    **** 	FRESULT res;
 943:fatfs/ff.c    **** 	DWORD nxt;
 944:fatfs/ff.c    **** #if _USE_TRIM
 945:fatfs/ff.c    **** 	DWORD scl = clst, ecl = clst, rt[2];
 946:fatfs/ff.c    **** #endif
 947:fatfs/ff.c    **** 
 948:fatfs/ff.c    **** 	if (clst < 2 || clst >= fs->n_fatent) {	/* Check if in valid range */
 949:fatfs/ff.c    **** 		res = FR_INT_ERR;
 950:fatfs/ff.c    **** 
 951:fatfs/ff.c    **** 	} else {
 952:fatfs/ff.c    **** 		res = FR_OK;
 953:fatfs/ff.c    **** 		while (clst < fs->n_fatent) {			/* Not a last link? */
 954:fatfs/ff.c    **** 			nxt = get_fat(fs, clst);			/* Get cluster status */
 955:fatfs/ff.c    **** 			if (nxt == 0) break;				/* Empty cluster? */
 956:fatfs/ff.c    **** 			if (nxt == 1) { res = FR_INT_ERR; break; }	/* Internal error? */
 957:fatfs/ff.c    **** 			if (nxt == 0xFFFFFFFF) { res = FR_DISK_ERR; break; }	/* Disk error? */
 958:fatfs/ff.c    **** 			res = put_fat(fs, clst, 0);			/* Mark the cluster "empty" */
 959:fatfs/ff.c    **** 			if (res != FR_OK) break;
 960:fatfs/ff.c    **** 			if (fs->free_clust != 0xFFFFFFFF) {	/* Update FSINFO */
 961:fatfs/ff.c    **** 				fs->free_clust++;
 962:fatfs/ff.c    **** 				fs->fsi_flag |= 1;
 963:fatfs/ff.c    **** 			}
 964:fatfs/ff.c    **** #if _USE_TRIM
 965:fatfs/ff.c    **** 			if (ecl + 1 == nxt) {	/* Is next cluster contiguous? */
 966:fatfs/ff.c    **** 				ecl = nxt;
 967:fatfs/ff.c    **** 			} else {				/* End of contiguous clusters */ 
 968:fatfs/ff.c    **** 				rt[0] = clust2sect(fs, scl);					/* Start sector */
 969:fatfs/ff.c    **** 				rt[1] = clust2sect(fs, ecl) + fs->csize - 1;	/* End sector */
 970:fatfs/ff.c    **** 				disk_ioctl(fs->drv, CTRL_TRIM, rt);				/* Erase the block */
 971:fatfs/ff.c    **** 				scl = ecl = nxt;
 972:fatfs/ff.c    **** 			}
 973:fatfs/ff.c    **** #endif
 974:fatfs/ff.c    **** 			clst = nxt;	/* Next cluster */
 975:fatfs/ff.c    **** 		}
 976:fatfs/ff.c    **** 	}
 977:fatfs/ff.c    **** 
 978:fatfs/ff.c    **** 	return res;
 979:fatfs/ff.c    **** }
 980:fatfs/ff.c    **** #endif
 981:fatfs/ff.c    **** 
 982:fatfs/ff.c    **** 
 983:fatfs/ff.c    **** 
 984:fatfs/ff.c    **** 
 985:fatfs/ff.c    **** /*-----------------------------------------------------------------------*/
 986:fatfs/ff.c    **** /* FAT handling - Stretch or Create a cluster chain                      */
 987:fatfs/ff.c    **** /*-----------------------------------------------------------------------*/
 988:fatfs/ff.c    **** #if !_FS_READONLY
 989:fatfs/ff.c    **** static
 990:fatfs/ff.c    **** DWORD create_chain (	/* 0:No free cluster, 1:Internal error, 0xFFFFFFFF:Disk error, >=2:New cluster
 991:fatfs/ff.c    **** 	FATFS* fs,			/* File system object */
 992:fatfs/ff.c    **** 	DWORD clst			/* Cluster# to stretch, 0:Create a new chain */
 993:fatfs/ff.c    **** )
 994:fatfs/ff.c    **** {
 995:fatfs/ff.c    **** 	DWORD cs, ncl, scl;
 996:fatfs/ff.c    **** 	FRESULT res;
 997:fatfs/ff.c    **** 
 998:fatfs/ff.c    **** 
ARM GAS  C:\Users\DMYTRO~1.FED\AppData\Local\Temp\ccikP2CY.s 			page 22


 999:fatfs/ff.c    **** 	if (clst == 0) {		/* Create a new chain */
1000:fatfs/ff.c    **** 		scl = fs->last_clust;			/* Get suggested start point */
1001:fatfs/ff.c    **** 		if (!scl || scl >= fs->n_fatent) scl = 1;
1002:fatfs/ff.c    **** 	}
1003:fatfs/ff.c    **** 	else {					/* Stretch the current chain */
1004:fatfs/ff.c    **** 		cs = get_fat(fs, clst);			/* Check the cluster status */
1005:fatfs/ff.c    **** 		if (cs < 2) return 1;			/* Invalid value */
1006:fatfs/ff.c    **** 		if (cs == 0xFFFFFFFF) return cs;	/* A disk error occurred */
1007:fatfs/ff.c    **** 		if (cs < fs->n_fatent) return cs;	/* It is already followed by next cluster */
1008:fatfs/ff.c    **** 		scl = clst;
1009:fatfs/ff.c    **** 	}
1010:fatfs/ff.c    **** 
1011:fatfs/ff.c    **** 	ncl = scl;				/* Start cluster */
1012:fatfs/ff.c    **** 	for (;;) {
1013:fatfs/ff.c    **** 		ncl++;							/* Next cluster */
1014:fatfs/ff.c    **** 		if (ncl >= fs->n_fatent) {		/* Check wrap around */
1015:fatfs/ff.c    **** 			ncl = 2;
1016:fatfs/ff.c    **** 			if (ncl > scl) return 0;	/* No free cluster */
1017:fatfs/ff.c    **** 		}
1018:fatfs/ff.c    **** 		cs = get_fat(fs, ncl);			/* Get the cluster status */
1019:fatfs/ff.c    **** 		if (cs == 0) break;				/* Found a free cluster */
1020:fatfs/ff.c    **** 		if (cs == 0xFFFFFFFF || cs == 1)/* An error occurred */
1021:fatfs/ff.c    **** 			return cs;
1022:fatfs/ff.c    **** 		if (ncl == scl) return 0;		/* No free cluster */
1023:fatfs/ff.c    **** 	}
1024:fatfs/ff.c    **** 
1025:fatfs/ff.c    **** 	res = put_fat(fs, ncl, 0x0FFFFFFF);	/* Mark the new cluster "last link" */
1026:fatfs/ff.c    **** 	if (res == FR_OK && clst != 0) {
1027:fatfs/ff.c    **** 		res = put_fat(fs, clst, ncl);	/* Link it to the previous one if needed */
1028:fatfs/ff.c    **** 	}
1029:fatfs/ff.c    **** 	if (res == FR_OK) {
1030:fatfs/ff.c    **** 		fs->last_clust = ncl;			/* Update FSINFO */
1031:fatfs/ff.c    **** 		if (fs->free_clust != 0xFFFFFFFF) {
1032:fatfs/ff.c    **** 			fs->free_clust--;
1033:fatfs/ff.c    **** 			fs->fsi_flag |= 1;
1034:fatfs/ff.c    **** 		}
1035:fatfs/ff.c    **** 	} else {
1036:fatfs/ff.c    **** 		ncl = (res == FR_DISK_ERR) ? 0xFFFFFFFF : 1;
1037:fatfs/ff.c    **** 	}
1038:fatfs/ff.c    **** 
1039:fatfs/ff.c    **** 	return ncl;		/* Return new cluster number or error code */
1040:fatfs/ff.c    **** }
1041:fatfs/ff.c    **** #endif /* !_FS_READONLY */
1042:fatfs/ff.c    **** 
1043:fatfs/ff.c    **** 
1044:fatfs/ff.c    **** 
1045:fatfs/ff.c    **** 
1046:fatfs/ff.c    **** /*-----------------------------------------------------------------------*/
1047:fatfs/ff.c    **** /* FAT handling - Convert offset into cluster with link map table        */
1048:fatfs/ff.c    **** /*-----------------------------------------------------------------------*/
1049:fatfs/ff.c    **** 
1050:fatfs/ff.c    **** #if _USE_FASTSEEK
1051:fatfs/ff.c    **** static
1052:fatfs/ff.c    **** DWORD clmt_clust (	/* <2:Error, >=2:Cluster number */
1053:fatfs/ff.c    **** 	FIL* fp,		/* Pointer to the file object */
1054:fatfs/ff.c    **** 	DWORD ofs		/* File offset to be converted to cluster# */
1055:fatfs/ff.c    **** )
ARM GAS  C:\Users\DMYTRO~1.FED\AppData\Local\Temp\ccikP2CY.s 			page 23


1056:fatfs/ff.c    **** {
1057:fatfs/ff.c    **** 	DWORD cl, ncl, *tbl;
1058:fatfs/ff.c    **** 
1059:fatfs/ff.c    **** 
1060:fatfs/ff.c    **** 	tbl = fp->cltbl + 1;	/* Top of CLMT */
1061:fatfs/ff.c    **** 	cl = ofs / SS(fp->fs) / fp->fs->csize;	/* Cluster order from top of the file */
1062:fatfs/ff.c    **** 	for (;;) {
1063:fatfs/ff.c    **** 		ncl = *tbl++;			/* Number of cluters in the fragment */
1064:fatfs/ff.c    **** 		if (!ncl) return 0;		/* End of table? (error) */
1065:fatfs/ff.c    **** 		if (cl < ncl) break;	/* In this fragment? */
1066:fatfs/ff.c    **** 		cl -= ncl; tbl++;		/* Next fragment */
1067:fatfs/ff.c    **** 	}
1068:fatfs/ff.c    **** 	return cl + *tbl;	/* Return the cluster number */
1069:fatfs/ff.c    **** }
1070:fatfs/ff.c    **** #endif	/* _USE_FASTSEEK */
1071:fatfs/ff.c    **** 
1072:fatfs/ff.c    **** 
1073:fatfs/ff.c    **** 
1074:fatfs/ff.c    **** 
1075:fatfs/ff.c    **** /*-----------------------------------------------------------------------*/
1076:fatfs/ff.c    **** /* Directory handling - Set directory index                              */
1077:fatfs/ff.c    **** /*-----------------------------------------------------------------------*/
1078:fatfs/ff.c    **** 
1079:fatfs/ff.c    **** static
1080:fatfs/ff.c    **** FRESULT dir_sdi (	/* FR_OK(0):succeeded, !=0:error */
1081:fatfs/ff.c    **** 	DIR* dp,		/* Pointer to directory object */
1082:fatfs/ff.c    **** 	UINT idx		/* Index of directory table */
1083:fatfs/ff.c    **** )
1084:fatfs/ff.c    **** {
1085:fatfs/ff.c    **** 	DWORD clst, sect;
1086:fatfs/ff.c    **** 	UINT ic;
1087:fatfs/ff.c    **** 
1088:fatfs/ff.c    **** 
1089:fatfs/ff.c    **** 	dp->index = (WORD)idx;	/* Current index */
1090:fatfs/ff.c    **** 	clst = dp->sclust;		/* Table start cluster (0:root) */
1091:fatfs/ff.c    **** 	if (clst == 1 || clst >= dp->fs->n_fatent)	/* Check start cluster range */
1092:fatfs/ff.c    **** 		return FR_INT_ERR;
1093:fatfs/ff.c    **** 	if (!clst && dp->fs->fs_type == FS_FAT32)	/* Replace cluster# 0 with root cluster# if in FAT32 */
1094:fatfs/ff.c    **** 		clst = dp->fs->dirbase;
1095:fatfs/ff.c    **** 
1096:fatfs/ff.c    **** 	if (clst == 0) {	/* Static table (root-directory in FAT12/16) */
1097:fatfs/ff.c    **** 		if (idx >= dp->fs->n_rootdir)	/* Is index out of range? */
1098:fatfs/ff.c    **** 			return FR_INT_ERR;
1099:fatfs/ff.c    **** 		sect = dp->fs->dirbase;
1100:fatfs/ff.c    **** 	}
1101:fatfs/ff.c    **** 	else {				/* Dynamic table (root-directory in FAT32 or sub-directory) */
1102:fatfs/ff.c    **** 		ic = SS(dp->fs) / SZ_DIRE * dp->fs->csize;	/* Entries per cluster */
1103:fatfs/ff.c    **** 		while (idx >= ic) {	/* Follow cluster chain */
1104:fatfs/ff.c    **** 			clst = get_fat(dp->fs, clst);				/* Get next cluster */
1105:fatfs/ff.c    **** 			if (clst == 0xFFFFFFFF) return FR_DISK_ERR;	/* Disk error */
1106:fatfs/ff.c    **** 			if (clst < 2 || clst >= dp->fs->n_fatent)	/* Reached to end of table or internal error */
1107:fatfs/ff.c    **** 				return FR_INT_ERR;
1108:fatfs/ff.c    **** 			idx -= ic;
1109:fatfs/ff.c    **** 		}
1110:fatfs/ff.c    **** 		sect = clust2sect(dp->fs, clst);
1111:fatfs/ff.c    **** 	}
1112:fatfs/ff.c    **** 	dp->clust = clst;	/* Current cluster# */
ARM GAS  C:\Users\DMYTRO~1.FED\AppData\Local\Temp\ccikP2CY.s 			page 24


1113:fatfs/ff.c    **** 	if (!sect) return FR_INT_ERR;
1114:fatfs/ff.c    **** 	dp->sect = sect + idx / (SS(dp->fs) / SZ_DIRE);					/* Sector# of the directory entry */
1115:fatfs/ff.c    **** 	dp->dir = dp->fs->win + (idx % (SS(dp->fs) / SZ_DIRE)) * SZ_DIRE;	/* Ptr to the entry in the secto
1116:fatfs/ff.c    **** 
1117:fatfs/ff.c    **** 	return FR_OK;
1118:fatfs/ff.c    **** }
1119:fatfs/ff.c    **** 
1120:fatfs/ff.c    **** 
1121:fatfs/ff.c    **** 
1122:fatfs/ff.c    **** 
1123:fatfs/ff.c    **** /*-----------------------------------------------------------------------*/
1124:fatfs/ff.c    **** /* Directory handling - Move directory table index next                  */
1125:fatfs/ff.c    **** /*-----------------------------------------------------------------------*/
1126:fatfs/ff.c    **** 
1127:fatfs/ff.c    **** static
1128:fatfs/ff.c    **** FRESULT dir_next (	/* FR_OK(0):succeeded, FR_NO_FILE:End of table, FR_DENIED:Could not stretch */
1129:fatfs/ff.c    **** 	DIR* dp,		/* Pointer to the directory object */
1130:fatfs/ff.c    **** 	int stretch		/* 0: Do not stretch table, 1: Stretch table if needed */
1131:fatfs/ff.c    **** )
1132:fatfs/ff.c    **** {
1133:fatfs/ff.c    **** 	DWORD clst;
1134:fatfs/ff.c    **** 	UINT i;
1135:fatfs/ff.c    **** #if !_FS_READONLY
1136:fatfs/ff.c    **** 	UINT c;
1137:fatfs/ff.c    **** #endif
1138:fatfs/ff.c    **** 
1139:fatfs/ff.c    **** 
1140:fatfs/ff.c    **** 	i = dp->index + 1;
1141:fatfs/ff.c    **** 	if (!(i & 0xFFFF) || !dp->sect)	/* Report EOT when index has reached 65535 */
1142:fatfs/ff.c    **** 		return FR_NO_FILE;
1143:fatfs/ff.c    **** 
1144:fatfs/ff.c    **** 	if (!(i % (SS(dp->fs) / SZ_DIRE))) {	/* Sector changed? */
1145:fatfs/ff.c    **** 		dp->sect++;					/* Next sector */
1146:fatfs/ff.c    **** 
1147:fatfs/ff.c    **** 		if (!dp->clust) {		/* Static table */
1148:fatfs/ff.c    **** 			if (i >= dp->fs->n_rootdir)	/* Report EOT if it reached end of static table */
1149:fatfs/ff.c    **** 				return FR_NO_FILE;
1150:fatfs/ff.c    **** 		}
1151:fatfs/ff.c    **** 		else {					/* Dynamic table */
1152:fatfs/ff.c    **** 			if (((i / (SS(dp->fs) / SZ_DIRE)) & (dp->fs->csize - 1)) == 0) {	/* Cluster changed? */
1153:fatfs/ff.c    **** 				clst = get_fat(dp->fs, dp->clust);				/* Get next cluster */
1154:fatfs/ff.c    **** 				if (clst <= 1) return FR_INT_ERR;
1155:fatfs/ff.c    **** 				if (clst == 0xFFFFFFFF) return FR_DISK_ERR;
1156:fatfs/ff.c    **** 				if (clst >= dp->fs->n_fatent) {					/* If it reached end of dynamic table, */
1157:fatfs/ff.c    **** #if !_FS_READONLY
1158:fatfs/ff.c    **** 					if (!stretch) return FR_NO_FILE;			/* If do not stretch, report EOT */
1159:fatfs/ff.c    **** 					clst = create_chain(dp->fs, dp->clust);		/* Stretch cluster chain */
1160:fatfs/ff.c    **** 					if (clst == 0) return FR_DENIED;			/* No free cluster */
1161:fatfs/ff.c    **** 					if (clst == 1) return FR_INT_ERR;
1162:fatfs/ff.c    **** 					if (clst == 0xFFFFFFFF) return FR_DISK_ERR;
1163:fatfs/ff.c    **** 					/* Clean-up stretched table */
1164:fatfs/ff.c    **** 					if (sync_window(dp->fs)) return FR_DISK_ERR;/* Flush disk access window */
1165:fatfs/ff.c    **** 					mem_set(dp->fs->win, 0, SS(dp->fs));		/* Clear window buffer */
1166:fatfs/ff.c    **** 					dp->fs->winsect = clust2sect(dp->fs, clst);	/* Cluster start sector */
1167:fatfs/ff.c    **** 					for (c = 0; c < dp->fs->csize; c++) {		/* Fill the new cluster with 0 */
1168:fatfs/ff.c    **** 						dp->fs->wflag = 1;
1169:fatfs/ff.c    **** 						if (sync_window(dp->fs)) return FR_DISK_ERR;
ARM GAS  C:\Users\DMYTRO~1.FED\AppData\Local\Temp\ccikP2CY.s 			page 25


1170:fatfs/ff.c    **** 						dp->fs->winsect++;
1171:fatfs/ff.c    **** 					}
1172:fatfs/ff.c    **** 					dp->fs->winsect -= c;						/* Rewind window offset */
1173:fatfs/ff.c    **** #else
1174:fatfs/ff.c    **** 					if (!stretch) return FR_NO_FILE;			/* If do not stretch, report EOT (this is to suppress warni
1175:fatfs/ff.c    **** 					return FR_NO_FILE;							/* Report EOT */
1176:fatfs/ff.c    **** #endif
1177:fatfs/ff.c    **** 				}
1178:fatfs/ff.c    **** 				dp->clust = clst;				/* Initialize data for new cluster */
1179:fatfs/ff.c    **** 				dp->sect = clust2sect(dp->fs, clst);
1180:fatfs/ff.c    **** 			}
1181:fatfs/ff.c    **** 		}
1182:fatfs/ff.c    **** 	}
1183:fatfs/ff.c    **** 
1184:fatfs/ff.c    **** 	dp->index = (WORD)i;	/* Current index */
1185:fatfs/ff.c    **** 	dp->dir = dp->fs->win + (i % (SS(dp->fs) / SZ_DIRE)) * SZ_DIRE;	/* Current entry in the window */
1186:fatfs/ff.c    **** 
1187:fatfs/ff.c    **** 	return FR_OK;
1188:fatfs/ff.c    **** }
1189:fatfs/ff.c    **** 
1190:fatfs/ff.c    **** 
1191:fatfs/ff.c    **** 
1192:fatfs/ff.c    **** 
1193:fatfs/ff.c    **** /*-----------------------------------------------------------------------*/
1194:fatfs/ff.c    **** /* Directory handling - Reserve directory entry                          */
1195:fatfs/ff.c    **** /*-----------------------------------------------------------------------*/
1196:fatfs/ff.c    **** 
1197:fatfs/ff.c    **** #if !_FS_READONLY
1198:fatfs/ff.c    **** static
1199:fatfs/ff.c    **** FRESULT dir_alloc (	/* FR_OK(0):succeeded, !=0:error */
1200:fatfs/ff.c    **** 	DIR* dp,		/* Pointer to the directory object */
1201:fatfs/ff.c    **** 	UINT nent		/* Number of contiguous entries to allocate (1-21) */
1202:fatfs/ff.c    **** )
1203:fatfs/ff.c    **** {
1204:fatfs/ff.c    **** 	FRESULT res;
1205:fatfs/ff.c    **** 	UINT n;
1206:fatfs/ff.c    **** 
1207:fatfs/ff.c    **** 
1208:fatfs/ff.c    **** 	res = dir_sdi(dp, 0);
1209:fatfs/ff.c    **** 	if (res == FR_OK) {
1210:fatfs/ff.c    **** 		n = 0;
1211:fatfs/ff.c    **** 		do {
1212:fatfs/ff.c    **** 			res = move_window(dp->fs, dp->sect);
1213:fatfs/ff.c    **** 			if (res != FR_OK) break;
1214:fatfs/ff.c    **** 			if (dp->dir[0] == DDEM || dp->dir[0] == 0) {	/* Is it a free entry? */
1215:fatfs/ff.c    **** 				if (++n == nent) break;	/* A block of contiguous free entries is found */
1216:fatfs/ff.c    **** 			} else {
1217:fatfs/ff.c    **** 				n = 0;					/* Not a blank entry. Restart to search */
1218:fatfs/ff.c    **** 			}
1219:fatfs/ff.c    **** 			res = dir_next(dp, 1);		/* Next entry with table stretch enabled */
1220:fatfs/ff.c    **** 		} while (res == FR_OK);
1221:fatfs/ff.c    **** 	}
1222:fatfs/ff.c    **** 	if (res == FR_NO_FILE) res = FR_DENIED;	/* No directory entry to allocate */
1223:fatfs/ff.c    **** 	return res;
1224:fatfs/ff.c    **** }
1225:fatfs/ff.c    **** #endif
1226:fatfs/ff.c    **** 
ARM GAS  C:\Users\DMYTRO~1.FED\AppData\Local\Temp\ccikP2CY.s 			page 26


1227:fatfs/ff.c    **** 
1228:fatfs/ff.c    **** 
1229:fatfs/ff.c    **** 
1230:fatfs/ff.c    **** /*-----------------------------------------------------------------------*/
1231:fatfs/ff.c    **** /* Directory handling - Load/Store start cluster number                  */
1232:fatfs/ff.c    **** /*-----------------------------------------------------------------------*/
1233:fatfs/ff.c    **** 
1234:fatfs/ff.c    **** static
1235:fatfs/ff.c    **** DWORD ld_clust (	/* Returns the top cluster value of the SFN entry */
1236:fatfs/ff.c    **** 	FATFS* fs,		/* Pointer to the fs object */
1237:fatfs/ff.c    **** 	const BYTE* dir	/* Pointer to the SFN entry */
1238:fatfs/ff.c    **** )
1239:fatfs/ff.c    **** {
 196              		.loc 1 1239 0
 197              		.cfi_startproc
 198              		@ args = 0, pretend = 0, frame = 0
 199              		@ frame_needed = 0, uses_anonymous_args = 0
 200              	.LVL24:
 201 0000 10B5     		push	{r4, lr}
 202              		.cfi_def_cfa_offset 8
 203              		.cfi_offset 4, -8
 204              		.cfi_offset 14, -4
 205 0002 0400     		movs	r4, r0
1240:fatfs/ff.c    **** 	DWORD cl;
1241:fatfs/ff.c    **** 
1242:fatfs/ff.c    **** 	cl = LD_WORD(dir + DIR_FstClusLO);
 206              		.loc 1 1242 0
 207 0004 CA7E     		ldrb	r2, [r1, #27]
 208 0006 1202     		lsls	r2, r2, #8
 209 0008 8B7E     		ldrb	r3, [r1, #26]
 210 000a 1A43     		orrs	r2, r3
 211 000c 1000     		movs	r0, r2
 212              	.LVL25:
1243:fatfs/ff.c    **** 	if (fs->fs_type == FS_FAT32)
 213              		.loc 1 1243 0
 214 000e 2378     		ldrb	r3, [r4]
 215 0010 032B     		cmp	r3, #3
 216 0012 05D1     		bne	.L16
1244:fatfs/ff.c    **** 		cl |= (DWORD)LD_WORD(dir + DIR_FstClusHI) << 16;
 217              		.loc 1 1244 0
 218 0014 4B7D     		ldrb	r3, [r1, #21]
 219 0016 1B02     		lsls	r3, r3, #8
 220 0018 0A7D     		ldrb	r2, [r1, #20]
 221 001a 1343     		orrs	r3, r2
 222 001c 1B04     		lsls	r3, r3, #16
 223 001e 1843     		orrs	r0, r3
 224              	.LVL26:
 225              	.L16:
1245:fatfs/ff.c    **** 
1246:fatfs/ff.c    **** 	return cl;
1247:fatfs/ff.c    **** }
 226              		.loc 1 1247 0
 227              		@ sp needed
 228              	.LVL27:
 229 0020 10BD     		pop	{r4, pc}
 230              		.cfi_endproc
 231              	.LFE15:
ARM GAS  C:\Users\DMYTRO~1.FED\AppData\Local\Temp\ccikP2CY.s 			page 27


 232              		.size	ld_clust, .-ld_clust
 233 0022 C046     		.section	.text.st_clust,"ax",%progbits
 234              		.align	2
 235              		.code	16
 236              		.thumb_func
 237              		.type	st_clust, %function
 238              	st_clust:
 239              	.LFB16:
1248:fatfs/ff.c    **** 
1249:fatfs/ff.c    **** 
1250:fatfs/ff.c    **** #if !_FS_READONLY
1251:fatfs/ff.c    **** static
1252:fatfs/ff.c    **** void st_clust (
1253:fatfs/ff.c    **** 	BYTE* dir,	/* Pointer to the SFN entry */
1254:fatfs/ff.c    **** 	DWORD cl	/* Value to be set */
1255:fatfs/ff.c    **** )
1256:fatfs/ff.c    **** {
 240              		.loc 1 1256 0
 241              		.cfi_startproc
 242              		@ args = 0, pretend = 0, frame = 0
 243              		@ frame_needed = 0, uses_anonymous_args = 0
 244              		@ link register save eliminated.
 245              	.LVL28:
1257:fatfs/ff.c    **** 	ST_WORD(dir + DIR_FstClusLO, cl);
 246              		.loc 1 1257 0
 247 0000 8176     		strb	r1, [r0, #26]
 248 0002 0B12     		asrs	r3, r1, #8
 249 0004 C376     		strb	r3, [r0, #27]
1258:fatfs/ff.c    **** 	ST_WORD(dir + DIR_FstClusHI, cl >> 16);
 250              		.loc 1 1258 0
 251 0006 090C     		lsrs	r1, r1, #16
 252              	.LVL29:
 253 0008 0175     		strb	r1, [r0, #20]
 254 000a 090A     		lsrs	r1, r1, #8
 255 000c 4175     		strb	r1, [r0, #21]
1259:fatfs/ff.c    **** }
 256              		.loc 1 1259 0
 257              		@ sp needed
 258 000e 7047     		bx	lr
 259              		.cfi_endproc
 260              	.LFE16:
 261              		.size	st_clust, .-st_clust
 262              		.section	.text.get_fileinfo,"ax",%progbits
 263              		.align	2
 264              		.code	16
 265              		.thumb_func
 266              		.type	get_fileinfo, %function
 267              	get_fileinfo:
 268              	.LFB21:
1260:fatfs/ff.c    **** #endif
1261:fatfs/ff.c    **** 
1262:fatfs/ff.c    **** 
1263:fatfs/ff.c    **** 
1264:fatfs/ff.c    **** 
1265:fatfs/ff.c    **** /*-----------------------------------------------------------------------*/
1266:fatfs/ff.c    **** /* LFN handling - Test/Pick/Fit an LFN segment from/to directory entry   */
1267:fatfs/ff.c    **** /*-----------------------------------------------------------------------*/
ARM GAS  C:\Users\DMYTRO~1.FED\AppData\Local\Temp\ccikP2CY.s 			page 28


1268:fatfs/ff.c    **** #if _USE_LFN
1269:fatfs/ff.c    **** static
1270:fatfs/ff.c    **** const BYTE LfnOfs[] = {1,3,5,7,9,14,16,18,20,22,24,28,30};	/* Offset of LFN characters in the direc
1271:fatfs/ff.c    **** 
1272:fatfs/ff.c    **** 
1273:fatfs/ff.c    **** static
1274:fatfs/ff.c    **** int cmp_lfn (			/* 1:matched, 0:not matched */
1275:fatfs/ff.c    **** 	WCHAR* lfnbuf,		/* Pointer to the LFN working buffer to be compared */
1276:fatfs/ff.c    **** 	BYTE* dir			/* Pointer to the directory entry containing the part of LFN */
1277:fatfs/ff.c    **** )
1278:fatfs/ff.c    **** {
1279:fatfs/ff.c    **** 	UINT i, s;
1280:fatfs/ff.c    **** 	WCHAR wc, uc;
1281:fatfs/ff.c    **** 
1282:fatfs/ff.c    **** 
1283:fatfs/ff.c    **** 	if (LD_WORD(dir + LDIR_FstClusLO) != 0) return 0;	/* Check LDIR_FstClusLO */
1284:fatfs/ff.c    **** 
1285:fatfs/ff.c    **** 	i = ((dir[LDIR_Ord] & 0x3F) - 1) * 13;	/* Offset in the LFN buffer */
1286:fatfs/ff.c    **** 
1287:fatfs/ff.c    **** 	for (wc = 1, s = 0; s < 13; s++) {		/* Process all characters in the entry */
1288:fatfs/ff.c    **** 		uc = LD_WORD(dir + LfnOfs[s]);		/* Pick an LFN character */
1289:fatfs/ff.c    **** 		if (wc) {
1290:fatfs/ff.c    **** 			if (i >= _MAX_LFN || ff_wtoupper(uc) != ff_wtoupper(lfnbuf[i++]))	/* Compare it */
1291:fatfs/ff.c    **** 				return 0;					/* Not matched */
1292:fatfs/ff.c    **** 			wc = uc;
1293:fatfs/ff.c    **** 		} else {
1294:fatfs/ff.c    **** 			if (uc != 0xFFFF) return 0;		/* Check filler */
1295:fatfs/ff.c    **** 		}
1296:fatfs/ff.c    **** 	}
1297:fatfs/ff.c    **** 
1298:fatfs/ff.c    **** 	if ((dir[LDIR_Ord] & LLEF) && wc && lfnbuf[i])	/* Last segment matched but different length */
1299:fatfs/ff.c    **** 		return 0;
1300:fatfs/ff.c    **** 
1301:fatfs/ff.c    **** 	return 1;		/* The part of LFN matched */
1302:fatfs/ff.c    **** }
1303:fatfs/ff.c    **** 
1304:fatfs/ff.c    **** 
1305:fatfs/ff.c    **** 
1306:fatfs/ff.c    **** static
1307:fatfs/ff.c    **** int pick_lfn (			/* 1:succeeded, 0:buffer overflow or invalid LFN entry */
1308:fatfs/ff.c    **** 	WCHAR* lfnbuf,		/* Pointer to the LFN working buffer */
1309:fatfs/ff.c    **** 	BYTE* dir			/* Pointer to the LFN entry */
1310:fatfs/ff.c    **** )
1311:fatfs/ff.c    **** {
1312:fatfs/ff.c    **** 	UINT i, s;
1313:fatfs/ff.c    **** 	WCHAR wc, uc;
1314:fatfs/ff.c    **** 
1315:fatfs/ff.c    **** 
1316:fatfs/ff.c    **** 	if (LD_WORD(dir + LDIR_FstClusLO) != 0) return 0;	/* Check LDIR_FstClusLO */
1317:fatfs/ff.c    **** 
1318:fatfs/ff.c    **** 	i = ((dir[LDIR_Ord] & 0x3F) - 1) * 13;	/* Offset in the LFN buffer */
1319:fatfs/ff.c    **** 
1320:fatfs/ff.c    **** 	for (wc = 1, s = 0; s < 13; s++) {		/* Process all characters in the entry */
1321:fatfs/ff.c    **** 		uc = LD_WORD(dir + LfnOfs[s]);		/* Pick an LFN character */
1322:fatfs/ff.c    **** 		if (wc) {
1323:fatfs/ff.c    **** 			if (i >= _MAX_LFN) return 0;	/* Buffer overflow? */
1324:fatfs/ff.c    **** 			lfnbuf[i++] = wc = uc;			/* Store it */
ARM GAS  C:\Users\DMYTRO~1.FED\AppData\Local\Temp\ccikP2CY.s 			page 29


1325:fatfs/ff.c    **** 		} else {
1326:fatfs/ff.c    **** 			if (uc != 0xFFFF) return 0;		/* Check filler */
1327:fatfs/ff.c    **** 		}
1328:fatfs/ff.c    **** 	}
1329:fatfs/ff.c    **** 
1330:fatfs/ff.c    **** 	if (dir[LDIR_Ord] & LLEF) {				/* Put terminator if it is the last LFN part */
1331:fatfs/ff.c    **** 		if (i >= _MAX_LFN) return 0;		/* Buffer overflow? */
1332:fatfs/ff.c    **** 		lfnbuf[i] = 0;
1333:fatfs/ff.c    **** 	}
1334:fatfs/ff.c    **** 
1335:fatfs/ff.c    **** 	return 1;		/* The part of LFN is valid */
1336:fatfs/ff.c    **** }
1337:fatfs/ff.c    **** 
1338:fatfs/ff.c    **** 
1339:fatfs/ff.c    **** #if !_FS_READONLY
1340:fatfs/ff.c    **** static
1341:fatfs/ff.c    **** void fit_lfn (
1342:fatfs/ff.c    **** 	const WCHAR* lfnbuf,	/* Pointer to the LFN working buffer */
1343:fatfs/ff.c    **** 	BYTE* dir,				/* Pointer to the LFN entry to be processed */
1344:fatfs/ff.c    **** 	BYTE ord,				/* LFN order (1-20) */
1345:fatfs/ff.c    **** 	BYTE sum				/* Checksum of the corresponding SFN */
1346:fatfs/ff.c    **** )
1347:fatfs/ff.c    **** {
1348:fatfs/ff.c    **** 	UINT i, s;
1349:fatfs/ff.c    **** 	WCHAR wc;
1350:fatfs/ff.c    **** 
1351:fatfs/ff.c    **** 
1352:fatfs/ff.c    **** 	dir[LDIR_Chksum] = sum;			/* Set checksum */
1353:fatfs/ff.c    **** 	dir[LDIR_Attr] = AM_LFN;		/* Set attribute. LFN entry */
1354:fatfs/ff.c    **** 	dir[LDIR_Type] = 0;
1355:fatfs/ff.c    **** 	ST_WORD(dir + LDIR_FstClusLO, 0);
1356:fatfs/ff.c    **** 
1357:fatfs/ff.c    **** 	i = (ord - 1) * 13;				/* Get offset in the LFN working buffer */
1358:fatfs/ff.c    **** 	s = wc = 0;
1359:fatfs/ff.c    **** 	do {
1360:fatfs/ff.c    **** 		if (wc != 0xFFFF) wc = lfnbuf[i++];	/* Get an effective character */
1361:fatfs/ff.c    **** 		ST_WORD(dir+LfnOfs[s], wc);	/* Put it */
1362:fatfs/ff.c    **** 		if (!wc) wc = 0xFFFF;		/* Padding characters following last character */
1363:fatfs/ff.c    **** 	} while (++s < 13);
1364:fatfs/ff.c    **** 	if (wc == 0xFFFF || !lfnbuf[i]) ord |= LLEF;	/* Bottom LFN part is the start of LFN sequence */
1365:fatfs/ff.c    **** 	dir[LDIR_Ord] = ord;			/* Set the LFN order */
1366:fatfs/ff.c    **** }
1367:fatfs/ff.c    **** 
1368:fatfs/ff.c    **** #endif
1369:fatfs/ff.c    **** #endif
1370:fatfs/ff.c    **** 
1371:fatfs/ff.c    **** 
1372:fatfs/ff.c    **** 
1373:fatfs/ff.c    **** 
1374:fatfs/ff.c    **** /*-----------------------------------------------------------------------*/
1375:fatfs/ff.c    **** /* Create numbered name                                                  */
1376:fatfs/ff.c    **** /*-----------------------------------------------------------------------*/
1377:fatfs/ff.c    **** #if _USE_LFN
1378:fatfs/ff.c    **** static
1379:fatfs/ff.c    **** void gen_numname (
1380:fatfs/ff.c    **** 	BYTE* dst,			/* Pointer to the buffer to store numbered SFN */
1381:fatfs/ff.c    **** 	const BYTE* src,	/* Pointer to SFN */
ARM GAS  C:\Users\DMYTRO~1.FED\AppData\Local\Temp\ccikP2CY.s 			page 30


1382:fatfs/ff.c    **** 	const WCHAR* lfn,	/* Pointer to LFN */
1383:fatfs/ff.c    **** 	UINT seq			/* Sequence number */
1384:fatfs/ff.c    **** )
1385:fatfs/ff.c    **** {
1386:fatfs/ff.c    **** 	BYTE ns[8], c;
1387:fatfs/ff.c    **** 	UINT i, j;
1388:fatfs/ff.c    **** 	WCHAR wc;
1389:fatfs/ff.c    **** 	DWORD sr;
1390:fatfs/ff.c    **** 
1391:fatfs/ff.c    **** 
1392:fatfs/ff.c    **** 	mem_cpy(dst, src, 11);
1393:fatfs/ff.c    **** 
1394:fatfs/ff.c    **** 	if (seq > 5) {	/* On many collisions, generate a hash number instead of sequential number */
1395:fatfs/ff.c    **** 		sr = seq;
1396:fatfs/ff.c    **** 		while (*lfn) {	/* Create a CRC */
1397:fatfs/ff.c    **** 			wc = *lfn++;
1398:fatfs/ff.c    **** 			for (i = 0; i < 16; i++) {
1399:fatfs/ff.c    **** 				sr = (sr << 1) + (wc & 1);
1400:fatfs/ff.c    **** 				wc >>= 1;
1401:fatfs/ff.c    **** 				if (sr & 0x10000) sr ^= 0x11021;
1402:fatfs/ff.c    **** 			}
1403:fatfs/ff.c    **** 		}
1404:fatfs/ff.c    **** 		seq = (UINT)sr;
1405:fatfs/ff.c    **** 	}
1406:fatfs/ff.c    **** 
1407:fatfs/ff.c    **** 	/* itoa (hexdecimal) */
1408:fatfs/ff.c    **** 	i = 7;
1409:fatfs/ff.c    **** 	do {
1410:fatfs/ff.c    **** 		c = (seq % 16) + '0';
1411:fatfs/ff.c    **** 		if (c > '9') c += 7;
1412:fatfs/ff.c    **** 		ns[i--] = c;
1413:fatfs/ff.c    **** 		seq /= 16;
1414:fatfs/ff.c    **** 	} while (seq);
1415:fatfs/ff.c    **** 	ns[i] = '~';
1416:fatfs/ff.c    **** 
1417:fatfs/ff.c    **** 	/* Append the number */
1418:fatfs/ff.c    **** 	for (j = 0; j < i && dst[j] != ' '; j++) {
1419:fatfs/ff.c    **** 		if (IsDBCS1(dst[j])) {
1420:fatfs/ff.c    **** 			if (j == i - 1) break;
1421:fatfs/ff.c    **** 			j++;
1422:fatfs/ff.c    **** 		}
1423:fatfs/ff.c    **** 	}
1424:fatfs/ff.c    **** 	do {
1425:fatfs/ff.c    **** 		dst[j++] = (i < 8) ? ns[i++] : ' ';
1426:fatfs/ff.c    **** 	} while (j < 8);
1427:fatfs/ff.c    **** }
1428:fatfs/ff.c    **** #endif
1429:fatfs/ff.c    **** 
1430:fatfs/ff.c    **** 
1431:fatfs/ff.c    **** 
1432:fatfs/ff.c    **** 
1433:fatfs/ff.c    **** /*-----------------------------------------------------------------------*/
1434:fatfs/ff.c    **** /* Calculate checksum of an SFN entry                                    */
1435:fatfs/ff.c    **** /*-----------------------------------------------------------------------*/
1436:fatfs/ff.c    **** #if _USE_LFN
1437:fatfs/ff.c    **** static
1438:fatfs/ff.c    **** BYTE sum_sfn (
ARM GAS  C:\Users\DMYTRO~1.FED\AppData\Local\Temp\ccikP2CY.s 			page 31


1439:fatfs/ff.c    **** 	const BYTE* dir		/* Pointer to the SFN entry */
1440:fatfs/ff.c    **** )
1441:fatfs/ff.c    **** {
1442:fatfs/ff.c    **** 	BYTE sum = 0;
1443:fatfs/ff.c    **** 	UINT n = 11;
1444:fatfs/ff.c    **** 
1445:fatfs/ff.c    **** 	do sum = (sum >> 1) + (sum << 7) + *dir++; while (--n);
1446:fatfs/ff.c    **** 	return sum;
1447:fatfs/ff.c    **** }
1448:fatfs/ff.c    **** #endif
1449:fatfs/ff.c    **** 
1450:fatfs/ff.c    **** 
1451:fatfs/ff.c    **** 
1452:fatfs/ff.c    **** 
1453:fatfs/ff.c    **** /*-----------------------------------------------------------------------*/
1454:fatfs/ff.c    **** /* Directory handling - Find an object in the directory                  */
1455:fatfs/ff.c    **** /*-----------------------------------------------------------------------*/
1456:fatfs/ff.c    **** 
1457:fatfs/ff.c    **** static
1458:fatfs/ff.c    **** FRESULT dir_find (	/* FR_OK(0):succeeded, !=0:error */
1459:fatfs/ff.c    **** 	DIR* dp			/* Pointer to the directory object linked to the file name */
1460:fatfs/ff.c    **** )
1461:fatfs/ff.c    **** {
1462:fatfs/ff.c    **** 	FRESULT res;
1463:fatfs/ff.c    **** 	BYTE c, *dir;
1464:fatfs/ff.c    **** #if _USE_LFN
1465:fatfs/ff.c    **** 	BYTE a, ord, sum;
1466:fatfs/ff.c    **** #endif
1467:fatfs/ff.c    **** 
1468:fatfs/ff.c    **** 	res = dir_sdi(dp, 0);			/* Rewind directory object */
1469:fatfs/ff.c    **** 	if (res != FR_OK) return res;
1470:fatfs/ff.c    **** 
1471:fatfs/ff.c    **** #if _USE_LFN
1472:fatfs/ff.c    **** 	ord = sum = 0xFF; dp->lfn_idx = 0xFFFF;	/* Reset LFN sequence */
1473:fatfs/ff.c    **** #endif
1474:fatfs/ff.c    **** 	do {
1475:fatfs/ff.c    **** 		res = move_window(dp->fs, dp->sect);
1476:fatfs/ff.c    **** 		if (res != FR_OK) break;
1477:fatfs/ff.c    **** 		dir = dp->dir;					/* Ptr to the directory entry of current index */
1478:fatfs/ff.c    **** 		c = dir[DIR_Name];
1479:fatfs/ff.c    **** 		if (c == 0) { res = FR_NO_FILE; break; }	/* Reached to end of table */
1480:fatfs/ff.c    **** #if _USE_LFN	/* LFN configuration */
1481:fatfs/ff.c    **** 		a = dir[DIR_Attr] & AM_MASK;
1482:fatfs/ff.c    **** 		if (c == DDEM || ((a & AM_VOL) && a != AM_LFN)) {	/* An entry without valid data */
1483:fatfs/ff.c    **** 			ord = 0xFF; dp->lfn_idx = 0xFFFF;	/* Reset LFN sequence */
1484:fatfs/ff.c    **** 		} else {
1485:fatfs/ff.c    **** 			if (a == AM_LFN) {			/* An LFN entry is found */
1486:fatfs/ff.c    **** 				if (dp->lfn) {
1487:fatfs/ff.c    **** 					if (c & LLEF) {		/* Is it start of LFN sequence? */
1488:fatfs/ff.c    **** 						sum = dir[LDIR_Chksum];
1489:fatfs/ff.c    **** 						c &= ~LLEF; ord = c;	/* LFN start order */
1490:fatfs/ff.c    **** 						dp->lfn_idx = dp->index;	/* Start index of LFN */
1491:fatfs/ff.c    **** 					}
1492:fatfs/ff.c    **** 					/* Check validity of the LFN entry and compare it with given name */
1493:fatfs/ff.c    **** 					ord = (c == ord && sum == dir[LDIR_Chksum] && cmp_lfn(dp->lfn, dir)) ? ord - 1 : 0xFF;
1494:fatfs/ff.c    **** 				}
1495:fatfs/ff.c    **** 			} else {					/* An SFN entry is found */
ARM GAS  C:\Users\DMYTRO~1.FED\AppData\Local\Temp\ccikP2CY.s 			page 32


1496:fatfs/ff.c    **** 				if (!ord && sum == sum_sfn(dir)) break;	/* LFN matched? */
1497:fatfs/ff.c    **** 				if (!(dp->fn[NSFLAG] & NS_LOSS) && !mem_cmp(dir, dp->fn, 11)) break;	/* SFN matched? */
1498:fatfs/ff.c    **** 				ord = 0xFF; dp->lfn_idx = 0xFFFF;	/* Reset LFN sequence */
1499:fatfs/ff.c    **** 			}
1500:fatfs/ff.c    **** 		}
1501:fatfs/ff.c    **** #else		/* Non LFN configuration */
1502:fatfs/ff.c    **** 		if (!(dir[DIR_Attr] & AM_VOL) && !mem_cmp(dir, dp->fn, 11)) /* Is it a valid entry? */
1503:fatfs/ff.c    **** 			break;
1504:fatfs/ff.c    **** #endif
1505:fatfs/ff.c    **** 		res = dir_next(dp, 0);		/* Next entry */
1506:fatfs/ff.c    **** 	} while (res == FR_OK);
1507:fatfs/ff.c    **** 
1508:fatfs/ff.c    **** 	return res;
1509:fatfs/ff.c    **** }
1510:fatfs/ff.c    **** 
1511:fatfs/ff.c    **** 
1512:fatfs/ff.c    **** 
1513:fatfs/ff.c    **** 
1514:fatfs/ff.c    **** /*-----------------------------------------------------------------------*/
1515:fatfs/ff.c    **** /* Read an object from the directory                                     */
1516:fatfs/ff.c    **** /*-----------------------------------------------------------------------*/
1517:fatfs/ff.c    **** #if _FS_MINIMIZE <= 1 || _USE_LABEL || _FS_RPATH >= 2
1518:fatfs/ff.c    **** static
1519:fatfs/ff.c    **** FRESULT dir_read (
1520:fatfs/ff.c    **** 	DIR* dp,		/* Pointer to the directory object */
1521:fatfs/ff.c    **** 	int vol			/* Filtered by 0:file/directory or 1:volume label */
1522:fatfs/ff.c    **** )
1523:fatfs/ff.c    **** {
1524:fatfs/ff.c    **** 	FRESULT res;
1525:fatfs/ff.c    **** 	BYTE a, c, *dir;
1526:fatfs/ff.c    **** #if _USE_LFN
1527:fatfs/ff.c    **** 	BYTE ord = 0xFF, sum = 0xFF;
1528:fatfs/ff.c    **** #endif
1529:fatfs/ff.c    **** 
1530:fatfs/ff.c    **** 	res = FR_NO_FILE;
1531:fatfs/ff.c    **** 	while (dp->sect) {
1532:fatfs/ff.c    **** 		res = move_window(dp->fs, dp->sect);
1533:fatfs/ff.c    **** 		if (res != FR_OK) break;
1534:fatfs/ff.c    **** 		dir = dp->dir;					/* Ptr to the directory entry of current index */
1535:fatfs/ff.c    **** 		c = dir[DIR_Name];
1536:fatfs/ff.c    **** 		if (c == 0) { res = FR_NO_FILE; break; }	/* Reached to end of table */
1537:fatfs/ff.c    **** 		a = dir[DIR_Attr] & AM_MASK;
1538:fatfs/ff.c    **** #if _USE_LFN	/* LFN configuration */
1539:fatfs/ff.c    **** 		if (c == DDEM || (!_FS_RPATH && c == '.') || (int)((a & ~AM_ARC) == AM_VOL) != vol) {	/* An entry
1540:fatfs/ff.c    **** 			ord = 0xFF;
1541:fatfs/ff.c    **** 		} else {
1542:fatfs/ff.c    **** 			if (a == AM_LFN) {			/* An LFN entry is found */
1543:fatfs/ff.c    **** 				if (c & LLEF) {			/* Is it start of LFN sequence? */
1544:fatfs/ff.c    **** 					sum = dir[LDIR_Chksum];
1545:fatfs/ff.c    **** 					c &= ~LLEF; ord = c;
1546:fatfs/ff.c    **** 					dp->lfn_idx = dp->index;
1547:fatfs/ff.c    **** 				}
1548:fatfs/ff.c    **** 				/* Check LFN validity and capture it */
1549:fatfs/ff.c    **** 				ord = (c == ord && sum == dir[LDIR_Chksum] && pick_lfn(dp->lfn, dir)) ? ord - 1 : 0xFF;
1550:fatfs/ff.c    **** 			} else {					/* An SFN entry is found */
1551:fatfs/ff.c    **** 				if (ord || sum != sum_sfn(dir))	/* Is there a valid LFN? */
1552:fatfs/ff.c    **** 					dp->lfn_idx = 0xFFFF;		/* It has no LFN. */
ARM GAS  C:\Users\DMYTRO~1.FED\AppData\Local\Temp\ccikP2CY.s 			page 33


1553:fatfs/ff.c    **** 				break;
1554:fatfs/ff.c    **** 			}
1555:fatfs/ff.c    **** 		}
1556:fatfs/ff.c    **** #else		/* Non LFN configuration */
1557:fatfs/ff.c    **** 		if (c != DDEM && (_FS_RPATH || c != '.') && a != AM_LFN && (int)((a & ~AM_ARC) == AM_VOL) == vol)
1558:fatfs/ff.c    **** 			break;
1559:fatfs/ff.c    **** #endif
1560:fatfs/ff.c    **** 		res = dir_next(dp, 0);				/* Next entry */
1561:fatfs/ff.c    **** 		if (res != FR_OK) break;
1562:fatfs/ff.c    **** 	}
1563:fatfs/ff.c    **** 
1564:fatfs/ff.c    **** 	if (res != FR_OK) dp->sect = 0;
1565:fatfs/ff.c    **** 
1566:fatfs/ff.c    **** 	return res;
1567:fatfs/ff.c    **** }
1568:fatfs/ff.c    **** #endif	/* _FS_MINIMIZE <= 1 || _USE_LABEL || _FS_RPATH >= 2 */
1569:fatfs/ff.c    **** 
1570:fatfs/ff.c    **** 
1571:fatfs/ff.c    **** 
1572:fatfs/ff.c    **** 
1573:fatfs/ff.c    **** /*-----------------------------------------------------------------------*/
1574:fatfs/ff.c    **** /* Register an object to the directory                                   */
1575:fatfs/ff.c    **** /*-----------------------------------------------------------------------*/
1576:fatfs/ff.c    **** #if !_FS_READONLY
1577:fatfs/ff.c    **** static
1578:fatfs/ff.c    **** FRESULT dir_register (	/* FR_OK:succeeded, FR_DENIED:no free entry or too many SFN collision, FR_DI
1579:fatfs/ff.c    **** 	DIR* dp				/* Target directory with object name to be created */
1580:fatfs/ff.c    **** )
1581:fatfs/ff.c    **** {
1582:fatfs/ff.c    **** 	FRESULT res;
1583:fatfs/ff.c    **** #if _USE_LFN	/* LFN configuration */
1584:fatfs/ff.c    **** 	UINT n, nent;
1585:fatfs/ff.c    **** 	BYTE sn[12], *fn, sum;
1586:fatfs/ff.c    **** 	WCHAR *lfn;
1587:fatfs/ff.c    **** 
1588:fatfs/ff.c    **** 
1589:fatfs/ff.c    **** 	fn = dp->fn; lfn = dp->lfn;
1590:fatfs/ff.c    **** 	mem_cpy(sn, fn, 12);
1591:fatfs/ff.c    **** 
1592:fatfs/ff.c    **** 	if (_FS_RPATH && (sn[NSFLAG] & NS_DOT))		/* Cannot create dot entry */
1593:fatfs/ff.c    **** 		return FR_INVALID_NAME;
1594:fatfs/ff.c    **** 
1595:fatfs/ff.c    **** 	if (sn[NSFLAG] & NS_LOSS) {			/* When LFN is out of 8.3 format, generate a numbered name */
1596:fatfs/ff.c    **** 		fn[NSFLAG] = 0; dp->lfn = 0;			/* Find only SFN */
1597:fatfs/ff.c    **** 		for (n = 1; n < 100; n++) {
1598:fatfs/ff.c    **** 			gen_numname(fn, sn, lfn, n);	/* Generate a numbered name */
1599:fatfs/ff.c    **** 			res = dir_find(dp);				/* Check if the name collides with existing SFN */
1600:fatfs/ff.c    **** 			if (res != FR_OK) break;
1601:fatfs/ff.c    **** 		}
1602:fatfs/ff.c    **** 		if (n == 100) return FR_DENIED;		/* Abort if too many collisions */
1603:fatfs/ff.c    **** 		if (res != FR_NO_FILE) return res;	/* Abort if the result is other than 'not collided' */
1604:fatfs/ff.c    **** 		fn[NSFLAG] = sn[NSFLAG]; dp->lfn = lfn;
1605:fatfs/ff.c    **** 	}
1606:fatfs/ff.c    **** 
1607:fatfs/ff.c    **** 	if (sn[NSFLAG] & NS_LFN) {			/* When LFN is to be created, allocate entries for an SFN + LFNs. */
1608:fatfs/ff.c    **** 		for (n = 0; lfn[n]; n++) ;
1609:fatfs/ff.c    **** 		nent = (n + 25) / 13;
ARM GAS  C:\Users\DMYTRO~1.FED\AppData\Local\Temp\ccikP2CY.s 			page 34


1610:fatfs/ff.c    **** 	} else {						/* Otherwise allocate an entry for an SFN  */
1611:fatfs/ff.c    **** 		nent = 1;
1612:fatfs/ff.c    **** 	}
1613:fatfs/ff.c    **** 	res = dir_alloc(dp, nent);		/* Allocate entries */
1614:fatfs/ff.c    **** 
1615:fatfs/ff.c    **** 	if (res == FR_OK && --nent) {	/* Set LFN entry if needed */
1616:fatfs/ff.c    **** 		res = dir_sdi(dp, dp->index - nent);
1617:fatfs/ff.c    **** 		if (res == FR_OK) {
1618:fatfs/ff.c    **** 			sum = sum_sfn(dp->fn);	/* Checksum value of the SFN tied to the LFN */
1619:fatfs/ff.c    **** 			do {					/* Store LFN entries in bottom first */
1620:fatfs/ff.c    **** 				res = move_window(dp->fs, dp->sect);
1621:fatfs/ff.c    **** 				if (res != FR_OK) break;
1622:fatfs/ff.c    **** 				fit_lfn(dp->lfn, dp->dir, (BYTE)nent, sum);
1623:fatfs/ff.c    **** 				dp->fs->wflag = 1;
1624:fatfs/ff.c    **** 				res = dir_next(dp, 0);	/* Next entry */
1625:fatfs/ff.c    **** 			} while (res == FR_OK && --nent);
1626:fatfs/ff.c    **** 		}
1627:fatfs/ff.c    **** 	}
1628:fatfs/ff.c    **** #else	/* Non LFN configuration */
1629:fatfs/ff.c    **** 	res = dir_alloc(dp, 1);		/* Allocate an entry for SFN */
1630:fatfs/ff.c    **** #endif
1631:fatfs/ff.c    **** 
1632:fatfs/ff.c    **** 	if (res == FR_OK) {				/* Set SFN entry */
1633:fatfs/ff.c    **** 		res = move_window(dp->fs, dp->sect);
1634:fatfs/ff.c    **** 		if (res == FR_OK) {
1635:fatfs/ff.c    **** 			mem_set(dp->dir, 0, SZ_DIRE);	/* Clean the entry */
1636:fatfs/ff.c    **** 			mem_cpy(dp->dir, dp->fn, 11);	/* Put SFN */
1637:fatfs/ff.c    **** #if _USE_LFN
1638:fatfs/ff.c    **** 			dp->dir[DIR_NTres] = dp->fn[NSFLAG] & (NS_BODY | NS_EXT);	/* Put NT flag */
1639:fatfs/ff.c    **** #endif
1640:fatfs/ff.c    **** 			dp->fs->wflag = 1;
1641:fatfs/ff.c    **** 		}
1642:fatfs/ff.c    **** 	}
1643:fatfs/ff.c    **** 
1644:fatfs/ff.c    **** 	return res;
1645:fatfs/ff.c    **** }
1646:fatfs/ff.c    **** #endif /* !_FS_READONLY */
1647:fatfs/ff.c    **** 
1648:fatfs/ff.c    **** 
1649:fatfs/ff.c    **** 
1650:fatfs/ff.c    **** 
1651:fatfs/ff.c    **** /*-----------------------------------------------------------------------*/
1652:fatfs/ff.c    **** /* Remove an object from the directory                                   */
1653:fatfs/ff.c    **** /*-----------------------------------------------------------------------*/
1654:fatfs/ff.c    **** #if !_FS_READONLY && !_FS_MINIMIZE
1655:fatfs/ff.c    **** static
1656:fatfs/ff.c    **** FRESULT dir_remove (	/* FR_OK:Succeeded, FR_DISK_ERR:A disk error */
1657:fatfs/ff.c    **** 	DIR* dp				/* Directory object pointing the entry to be removed */
1658:fatfs/ff.c    **** )
1659:fatfs/ff.c    **** {
1660:fatfs/ff.c    **** 	FRESULT res;
1661:fatfs/ff.c    **** #if _USE_LFN	/* LFN configuration */
1662:fatfs/ff.c    **** 	UINT i;
1663:fatfs/ff.c    **** 
1664:fatfs/ff.c    **** 	i = dp->index;	/* SFN index */
1665:fatfs/ff.c    **** 	res = dir_sdi(dp, (dp->lfn_idx == 0xFFFF) ? i : dp->lfn_idx);	/* Goto the SFN or top of the LFN en
1666:fatfs/ff.c    **** 	if (res == FR_OK) {
ARM GAS  C:\Users\DMYTRO~1.FED\AppData\Local\Temp\ccikP2CY.s 			page 35


1667:fatfs/ff.c    **** 		do {
1668:fatfs/ff.c    **** 			res = move_window(dp->fs, dp->sect);
1669:fatfs/ff.c    **** 			if (res != FR_OK) break;
1670:fatfs/ff.c    **** 			mem_set(dp->dir, 0, SZ_DIRE);	/* Clear and mark the entry "deleted" */
1671:fatfs/ff.c    **** 			*dp->dir = DDEM;
1672:fatfs/ff.c    **** 			dp->fs->wflag = 1;
1673:fatfs/ff.c    **** 			if (dp->index >= i) break;	/* When reached SFN, all entries of the object has been deleted. */
1674:fatfs/ff.c    **** 			res = dir_next(dp, 0);		/* Next entry */
1675:fatfs/ff.c    **** 		} while (res == FR_OK);
1676:fatfs/ff.c    **** 		if (res == FR_NO_FILE) res = FR_INT_ERR;
1677:fatfs/ff.c    **** 	}
1678:fatfs/ff.c    **** 
1679:fatfs/ff.c    **** #else			/* Non LFN configuration */
1680:fatfs/ff.c    **** 	res = dir_sdi(dp, dp->index);
1681:fatfs/ff.c    **** 	if (res == FR_OK) {
1682:fatfs/ff.c    **** 		res = move_window(dp->fs, dp->sect);
1683:fatfs/ff.c    **** 		if (res == FR_OK) {
1684:fatfs/ff.c    **** 			mem_set(dp->dir, 0, SZ_DIRE);	/* Clear and mark the entry "deleted" */
1685:fatfs/ff.c    **** 			*dp->dir = DDEM;
1686:fatfs/ff.c    **** 			dp->fs->wflag = 1;
1687:fatfs/ff.c    **** 		}
1688:fatfs/ff.c    **** 	}
1689:fatfs/ff.c    **** #endif
1690:fatfs/ff.c    **** 
1691:fatfs/ff.c    **** 	return res;
1692:fatfs/ff.c    **** }
1693:fatfs/ff.c    **** #endif /* !_FS_READONLY */
1694:fatfs/ff.c    **** 
1695:fatfs/ff.c    **** 
1696:fatfs/ff.c    **** 
1697:fatfs/ff.c    **** 
1698:fatfs/ff.c    **** /*-----------------------------------------------------------------------*/
1699:fatfs/ff.c    **** /* Get file information from directory entry                             */
1700:fatfs/ff.c    **** /*-----------------------------------------------------------------------*/
1701:fatfs/ff.c    **** #if _FS_MINIMIZE <= 1 || _FS_RPATH >= 2
1702:fatfs/ff.c    **** static
1703:fatfs/ff.c    **** void get_fileinfo (		/* No return code */
1704:fatfs/ff.c    **** 	DIR* dp,			/* Pointer to the directory object */
1705:fatfs/ff.c    **** 	FILINFO* fno	 	/* Pointer to the file information to be filled */
1706:fatfs/ff.c    **** )
1707:fatfs/ff.c    **** {
 269              		.loc 1 1707 0
 270              		.cfi_startproc
 271              		@ args = 0, pretend = 0, frame = 0
 272              		@ frame_needed = 0, uses_anonymous_args = 0
 273              	.LVL30:
 274 0000 30B5     		push	{r4, r5, lr}
 275              		.cfi_def_cfa_offset 12
 276              		.cfi_offset 4, -12
 277              		.cfi_offset 5, -8
 278              		.cfi_offset 14, -4
1708:fatfs/ff.c    **** 	UINT i;
1709:fatfs/ff.c    **** 	TCHAR *p, c;
1710:fatfs/ff.c    **** 	BYTE *dir;
1711:fatfs/ff.c    **** #if _USE_LFN
1712:fatfs/ff.c    **** 	WCHAR w, *lfn;
1713:fatfs/ff.c    **** #endif
ARM GAS  C:\Users\DMYTRO~1.FED\AppData\Local\Temp\ccikP2CY.s 			page 36


1714:fatfs/ff.c    **** 
1715:fatfs/ff.c    **** 	p = fno->fname;
 279              		.loc 1 1715 0
 280 0002 0C00     		movs	r4, r1
 281 0004 0934     		adds	r4, r4, #9
 282              	.LVL31:
1716:fatfs/ff.c    **** 	if (dp->sect) {		/* Get SFN */
 283              		.loc 1 1716 0
 284 0006 0369     		ldr	r3, [r0, #16]
 285 0008 002B     		cmp	r3, #0
 286 000a 2BD0     		beq	.L19
1717:fatfs/ff.c    **** 		dir = dp->dir;
 287              		.loc 1 1717 0
 288 000c 4069     		ldr	r0, [r0, #20]
 289              	.LVL32:
1718:fatfs/ff.c    **** 		i = 0;
 290              		.loc 1 1718 0
 291 000e 0023     		movs	r3, #0
1719:fatfs/ff.c    **** 		while (i < 11) {		/* Copy name body and extension */
 292              		.loc 1 1719 0
 293 0010 0EE0     		b	.L20
 294              	.LVL33:
 295              	.L24:
1720:fatfs/ff.c    **** 			c = (TCHAR)dir[i++];
 296              		.loc 1 1720 0
 297 0012 5A1C     		adds	r2, r3, #1
 298              	.LVL34:
 299 0014 C35C     		ldrb	r3, [r0, r3]
 300              	.LVL35:
1721:fatfs/ff.c    **** 			if (c == ' ') continue;				/* Skip padding spaces */
 301              		.loc 1 1721 0
 302 0016 202B     		cmp	r3, #32
 303 0018 09D0     		beq	.L21
1722:fatfs/ff.c    **** 			if (c == RDDEM) c = (TCHAR)DDEM;	/* Restore replaced DDEM character */
 304              		.loc 1 1722 0
 305 001a 052B     		cmp	r3, #5
 306 001c 00D1     		bne	.L22
 307 001e E033     		adds	r3, r3, #224
 308              	.LVL36:
 309              	.L22:
1723:fatfs/ff.c    **** 			if (i == 9) *p++ = '.';				/* Insert a . if extension is exist */
 310              		.loc 1 1723 0
 311 0020 092A     		cmp	r2, #9
 312 0022 02D1     		bne	.L23
 313              	.LVL37:
 314              		.loc 1 1723 0 is_stmt 0 discriminator 1
 315 0024 2E25     		movs	r5, #46
 316 0026 2570     		strb	r5, [r4]
 317 0028 0134     		adds	r4, r4, #1
 318              	.LVL38:
 319              	.L23:
1724:fatfs/ff.c    **** #if _USE_LFN
1725:fatfs/ff.c    **** 			if (IsUpper(c) && (dir[DIR_NTres] & (i >= 9 ? NS_EXT : NS_BODY)))
1726:fatfs/ff.c    **** 				c += 0x20;			/* To lower */
1727:fatfs/ff.c    **** #if _LFN_UNICODE
1728:fatfs/ff.c    **** 			if (IsDBCS1(c) && i != 8 && i != 11 && IsDBCS2(dir[i]))
1729:fatfs/ff.c    **** 				c = c << 8 | dir[i++];
ARM GAS  C:\Users\DMYTRO~1.FED\AppData\Local\Temp\ccikP2CY.s 			page 37


1730:fatfs/ff.c    **** 			c = ff_convert(c, 1);	/* OEM -> Unicode */
1731:fatfs/ff.c    **** 			if (!c) c = '?';
1732:fatfs/ff.c    **** #endif
1733:fatfs/ff.c    **** #endif
1734:fatfs/ff.c    **** 			*p++ = c;
 320              		.loc 1 1734 0 is_stmt 1
 321 002a 2370     		strb	r3, [r4]
 322 002c 0134     		adds	r4, r4, #1
 323              	.LVL39:
 324              	.L21:
 325 002e 1300     		movs	r3, r2
 326              	.LVL40:
 327              	.L20:
1719:fatfs/ff.c    **** 			c = (TCHAR)dir[i++];
 328              		.loc 1 1719 0
 329 0030 0A2B     		cmp	r3, #10
 330 0032 EED9     		bls	.L24
1735:fatfs/ff.c    **** 		}
1736:fatfs/ff.c    **** 		fno->fattrib = dir[DIR_Attr];				/* Attribute */
 331              		.loc 1 1736 0
 332 0034 C37A     		ldrb	r3, [r0, #11]
 333              	.LVL41:
 334 0036 0B72     		strb	r3, [r1, #8]
1737:fatfs/ff.c    **** 		fno->fsize = LD_DWORD(dir + DIR_FileSize);	/* Size */
 335              		.loc 1 1737 0
 336 0038 C27F     		ldrb	r2, [r0, #31]
 337 003a 1506     		lsls	r5, r2, #24
 338 003c 827F     		ldrb	r2, [r0, #30]
 339 003e 1304     		lsls	r3, r2, #16
 340 0040 2A00     		movs	r2, r5
 341 0042 1A43     		orrs	r2, r3
 342 0044 437F     		ldrb	r3, [r0, #29]
 343 0046 1B02     		lsls	r3, r3, #8
 344 0048 1343     		orrs	r3, r2
 345 004a 027F     		ldrb	r2, [r0, #28]
 346 004c 1343     		orrs	r3, r2
 347 004e 0B60     		str	r3, [r1]
1738:fatfs/ff.c    **** 		fno->fdate = LD_WORD(dir + DIR_WrtDate);	/* Date */
 348              		.loc 1 1738 0
 349 0050 437E     		ldrb	r3, [r0, #25]
 350 0052 1B02     		lsls	r3, r3, #8
 351 0054 027E     		ldrb	r2, [r0, #24]
 352 0056 1343     		orrs	r3, r2
 353 0058 8B80     		strh	r3, [r1, #4]
1739:fatfs/ff.c    **** 		fno->ftime = LD_WORD(dir + DIR_WrtTime);	/* Time */
 354              		.loc 1 1739 0
 355 005a C37D     		ldrb	r3, [r0, #23]
 356 005c 1B02     		lsls	r3, r3, #8
 357 005e 827D     		ldrb	r2, [r0, #22]
 358 0060 1343     		orrs	r3, r2
 359 0062 CB80     		strh	r3, [r1, #6]
 360              	.LVL42:
 361              	.L19:
1740:fatfs/ff.c    **** 	}
1741:fatfs/ff.c    **** 	*p = 0;		/* Terminate SFN string by a \0 */
 362              		.loc 1 1741 0
 363 0064 0023     		movs	r3, #0
ARM GAS  C:\Users\DMYTRO~1.FED\AppData\Local\Temp\ccikP2CY.s 			page 38


 364 0066 2370     		strb	r3, [r4]
1742:fatfs/ff.c    **** 
1743:fatfs/ff.c    **** #if _USE_LFN
1744:fatfs/ff.c    **** 	if (fno->lfname) {
1745:fatfs/ff.c    **** 		i = 0; p = fno->lfname;
1746:fatfs/ff.c    **** 		if (dp->sect && fno->lfsize && dp->lfn_idx != 0xFFFF) {	/* Get LFN if available */
1747:fatfs/ff.c    **** 			lfn = dp->lfn;
1748:fatfs/ff.c    **** 			while ((w = *lfn++) != 0) {		/* Get an LFN character */
1749:fatfs/ff.c    **** #if !_LFN_UNICODE
1750:fatfs/ff.c    **** 				w = ff_convert(w, 0);		/* Unicode -> OEM */
1751:fatfs/ff.c    **** 				if (!w) { i = 0; break; }	/* No LFN if it could not be converted */
1752:fatfs/ff.c    **** 				if (_DF1S && w >= 0x100)	/* Put 1st byte if it is a DBC (always false on SBCS cfg) */
1753:fatfs/ff.c    **** 					p[i++] = (TCHAR)(w >> 8);
1754:fatfs/ff.c    **** #endif
1755:fatfs/ff.c    **** 				if (i >= fno->lfsize - 1) { i = 0; break; }	/* No LFN if buffer overflow */
1756:fatfs/ff.c    **** 				p[i++] = (TCHAR)w;
1757:fatfs/ff.c    **** 			}
1758:fatfs/ff.c    **** 		}
1759:fatfs/ff.c    **** 		p[i] = 0;	/* Terminate LFN string by a \0 */
1760:fatfs/ff.c    **** 	}
1761:fatfs/ff.c    **** #endif
1762:fatfs/ff.c    **** }
 365              		.loc 1 1762 0
 366              		@ sp needed
 367              	.LVL43:
 368 0068 30BD     		pop	{r4, r5, pc}
 369              		.cfi_endproc
 370              	.LFE21:
 371              		.size	get_fileinfo, .-get_fileinfo
 372 006a C046     		.section	.text.create_name,"ax",%progbits
 373              		.align	2
 374              		.code	16
 375              		.thumb_func
 376              		.type	create_name, %function
 377              	create_name:
 378              	.LFB22:
1763:fatfs/ff.c    **** #endif /* _FS_MINIMIZE <= 1 || _FS_RPATH >= 2 */
1764:fatfs/ff.c    **** 
1765:fatfs/ff.c    **** 
1766:fatfs/ff.c    **** 
1767:fatfs/ff.c    **** 
1768:fatfs/ff.c    **** /*-----------------------------------------------------------------------*/
1769:fatfs/ff.c    **** /* Pattern matching                                                      */
1770:fatfs/ff.c    **** /*-----------------------------------------------------------------------*/
1771:fatfs/ff.c    **** #if _USE_FIND && _FS_MINIMIZE <= 1
1772:fatfs/ff.c    **** static
1773:fatfs/ff.c    **** WCHAR get_achar (		/* Get a character and advances ptr 1 or 2 */
1774:fatfs/ff.c    **** 	const TCHAR** ptr	/* Pointer to pointer to the SBCS/DBCS/Unicode string */
1775:fatfs/ff.c    **** )
1776:fatfs/ff.c    **** {
1777:fatfs/ff.c    **** 	WCHAR chr;
1778:fatfs/ff.c    **** 
1779:fatfs/ff.c    **** #if !_LFN_UNICODE
1780:fatfs/ff.c    **** 	chr = (BYTE)*(*ptr)++;					/* Get a byte */
1781:fatfs/ff.c    **** 	if (IsLower(chr)) chr -= 0x20;			/* To upper ASCII char */
1782:fatfs/ff.c    **** 	if (IsDBCS1(chr) && IsDBCS2(**ptr))		/* Get DBC 2nd byte if needed */
1783:fatfs/ff.c    **** 		chr = chr << 8 | (BYTE)*(*ptr)++;
ARM GAS  C:\Users\DMYTRO~1.FED\AppData\Local\Temp\ccikP2CY.s 			page 39


1784:fatfs/ff.c    **** #ifdef _EXCVT
1785:fatfs/ff.c    **** 	if (chr >= 0x80) chr = ExCvt[chr - 0x80];	/* To upper SBCS extended char */
1786:fatfs/ff.c    **** #endif
1787:fatfs/ff.c    **** #else
1788:fatfs/ff.c    **** 	chr = ff_wtoupper(*(*ptr)++);			/* Get a word and to upper */
1789:fatfs/ff.c    **** #endif
1790:fatfs/ff.c    **** 	return chr;
1791:fatfs/ff.c    **** }
1792:fatfs/ff.c    **** 
1793:fatfs/ff.c    **** 
1794:fatfs/ff.c    **** static
1795:fatfs/ff.c    **** int pattern_matching (	/* 0:mismatched, 1:matched */
1796:fatfs/ff.c    **** 	const TCHAR* pat,	/* Matching pattern */
1797:fatfs/ff.c    **** 	const TCHAR* nam,	/* String to be tested */
1798:fatfs/ff.c    **** 	int skip,			/* Number of pre-skip chars (number of ?s) */
1799:fatfs/ff.c    **** 	int inf				/* Infinite search (* specified) */
1800:fatfs/ff.c    **** )
1801:fatfs/ff.c    **** {
1802:fatfs/ff.c    **** 	const TCHAR *pp, *np;
1803:fatfs/ff.c    **** 	WCHAR pc, nc;
1804:fatfs/ff.c    **** 	int nm, nx;
1805:fatfs/ff.c    **** 
1806:fatfs/ff.c    **** 
1807:fatfs/ff.c    **** 	while (skip--) {				/* Pre-skip name chars */
1808:fatfs/ff.c    **** 		if (!get_achar(&nam)) return 0;	/* Branch mismatched if less name chars */
1809:fatfs/ff.c    **** 	}
1810:fatfs/ff.c    **** 	if (!*pat && inf) return 1;		/* (short circuit) */
1811:fatfs/ff.c    **** 
1812:fatfs/ff.c    **** 	do {
1813:fatfs/ff.c    **** 		pp = pat; np = nam;			/* Top of pattern and name to match */
1814:fatfs/ff.c    **** 		for (;;) {
1815:fatfs/ff.c    **** 			if (*pp == '?' || *pp == '*') {	/* Wildcard? */
1816:fatfs/ff.c    **** 				nm = nx = 0;
1817:fatfs/ff.c    **** 				do {				/* Analyze the wildcard chars */
1818:fatfs/ff.c    **** 					if (*pp++ == '?') nm++; else nx = 1;
1819:fatfs/ff.c    **** 				} while (*pp == '?' || *pp == '*');
1820:fatfs/ff.c    **** 				if (pattern_matching(pp, np, nm, nx)) return 1;	/* Test new branch (recurs upto number of wildc
1821:fatfs/ff.c    **** 				nc = *np; break;	/* Branch mismatched */
1822:fatfs/ff.c    **** 			}
1823:fatfs/ff.c    **** 			pc = get_achar(&pp);	/* Get a pattern char */
1824:fatfs/ff.c    **** 			nc = get_achar(&np);	/* Get a name char */
1825:fatfs/ff.c    **** 			if (pc != nc) break;	/* Branch mismatched? */
1826:fatfs/ff.c    **** 			if (!pc) return 1;		/* Branch matched? (matched at end of both strings) */
1827:fatfs/ff.c    **** 		}
1828:fatfs/ff.c    **** 		get_achar(&nam);			/* nam++ */
1829:fatfs/ff.c    **** 	} while (inf && nc);			/* Retry until end of name if infinite search is specified */
1830:fatfs/ff.c    **** 
1831:fatfs/ff.c    **** 	return 0;
1832:fatfs/ff.c    **** }
1833:fatfs/ff.c    **** #endif /* _USE_FIND && _FS_MINIMIZE <= 1 */
1834:fatfs/ff.c    **** 
1835:fatfs/ff.c    **** 
1836:fatfs/ff.c    **** 
1837:fatfs/ff.c    **** 
1838:fatfs/ff.c    **** /*-----------------------------------------------------------------------*/
1839:fatfs/ff.c    **** /* Pick a top segment and create the object name in directory form       */
1840:fatfs/ff.c    **** /*-----------------------------------------------------------------------*/
ARM GAS  C:\Users\DMYTRO~1.FED\AppData\Local\Temp\ccikP2CY.s 			page 40


1841:fatfs/ff.c    **** 
1842:fatfs/ff.c    **** static
1843:fatfs/ff.c    **** FRESULT create_name (	/* FR_OK: successful, FR_INVALID_NAME: could not create */
1844:fatfs/ff.c    **** 	DIR* dp,			/* Pointer to the directory object */
1845:fatfs/ff.c    **** 	const TCHAR** path	/* Pointer to pointer to the segment in the path string */
1846:fatfs/ff.c    **** )
1847:fatfs/ff.c    **** {
 379              		.loc 1 1847 0
 380              		.cfi_startproc
 381              		@ args = 0, pretend = 0, frame = 0
 382              		@ frame_needed = 0, uses_anonymous_args = 0
 383              	.LVL44:
 384 0000 F8B5     		push	{r3, r4, r5, r6, r7, lr}
 385              		.cfi_def_cfa_offset 24
 386              		.cfi_offset 3, -24
 387              		.cfi_offset 4, -20
 388              		.cfi_offset 5, -16
 389              		.cfi_offset 6, -12
 390              		.cfi_offset 7, -8
 391              		.cfi_offset 14, -4
 392 0002 5F46     		mov	r7, fp
 393 0004 5646     		mov	r6, r10
 394 0006 4D46     		mov	r5, r9
 395 0008 4446     		mov	r4, r8
 396 000a F0B4     		push	{r4, r5, r6, r7}
 397              		.cfi_def_cfa_offset 40
 398              		.cfi_offset 8, -40
 399              		.cfi_offset 9, -36
 400              		.cfi_offset 10, -32
 401              		.cfi_offset 11, -28
 402 000c 8946     		mov	r9, r1
1848:fatfs/ff.c    **** #if _USE_LFN	/* LFN configuration */
1849:fatfs/ff.c    **** 	BYTE b, cf;
1850:fatfs/ff.c    **** 	WCHAR w, *lfn;
1851:fatfs/ff.c    **** 	UINT i, ni, si, di;
1852:fatfs/ff.c    **** 	const TCHAR *p;
1853:fatfs/ff.c    **** 
1854:fatfs/ff.c    **** 	/* Create LFN in Unicode */
1855:fatfs/ff.c    **** 	for (p = *path; *p == '/' || *p == '\\'; p++) ;	/* Strip duplicated separator */
1856:fatfs/ff.c    **** 	lfn = dp->lfn;
1857:fatfs/ff.c    **** 	si = di = 0;
1858:fatfs/ff.c    **** 	for (;;) {
1859:fatfs/ff.c    **** 		w = p[si++];					/* Get a character */
1860:fatfs/ff.c    **** 		if (w < ' ' || w == '/' || w == '\\') break;	/* Break on end of segment */
1861:fatfs/ff.c    **** 		if (di >= _MAX_LFN)				/* Reject too long name */
1862:fatfs/ff.c    **** 			return FR_INVALID_NAME;
1863:fatfs/ff.c    **** #if !_LFN_UNICODE
1864:fatfs/ff.c    **** 		w &= 0xFF;
1865:fatfs/ff.c    **** 		if (IsDBCS1(w)) {				/* Check if it is a DBC 1st byte (always false on SBCS cfg) */
1866:fatfs/ff.c    **** 			b = (BYTE)p[si++];			/* Get 2nd byte */
1867:fatfs/ff.c    **** 			w = (w << 8) + b;			/* Create a DBC */
1868:fatfs/ff.c    **** 			if (!IsDBCS2(b))
1869:fatfs/ff.c    **** 				return FR_INVALID_NAME;	/* Reject invalid sequence */
1870:fatfs/ff.c    **** 		}
1871:fatfs/ff.c    **** 		w = ff_convert(w, 1);			/* Convert ANSI/OEM to Unicode */
1872:fatfs/ff.c    **** 		if (!w) return FR_INVALID_NAME;	/* Reject invalid code */
1873:fatfs/ff.c    **** #endif
ARM GAS  C:\Users\DMYTRO~1.FED\AppData\Local\Temp\ccikP2CY.s 			page 41


1874:fatfs/ff.c    **** 		if (w < 0x80 && chk_chr("\"*:<>\?|\x7F", w)) /* Reject illegal characters for LFN */
1875:fatfs/ff.c    **** 			return FR_INVALID_NAME;
1876:fatfs/ff.c    **** 		lfn[di++] = w;					/* Store the Unicode character */
1877:fatfs/ff.c    **** 	}
1878:fatfs/ff.c    **** 	*path = &p[si];						/* Return pointer to the next segment */
1879:fatfs/ff.c    **** 	cf = (w < ' ') ? NS_LAST : 0;		/* Set last segment flag if end of path */
1880:fatfs/ff.c    **** #if _FS_RPATH
1881:fatfs/ff.c    **** 	if ((di == 1 && lfn[di - 1] == '.') ||
1882:fatfs/ff.c    **** 		(di == 2 && lfn[di - 1] == '.' && lfn[di - 2] == '.')) {	/* Is this segment a dot entry? */
1883:fatfs/ff.c    **** 		lfn[di] = 0;
1884:fatfs/ff.c    **** 		for (i = 0; i < 11; i++)		/* Create dot name for SFN entry */
1885:fatfs/ff.c    **** 			dp->fn[i] = (i < di) ? '.' : ' ';
1886:fatfs/ff.c    **** 		dp->fn[i] = cf | NS_DOT;		/* This is a dot entry */
1887:fatfs/ff.c    **** 		return FR_OK;
1888:fatfs/ff.c    **** 	}
1889:fatfs/ff.c    **** #endif
1890:fatfs/ff.c    **** 	while (di) {						/* Snip off trailing spaces and dots if exist */
1891:fatfs/ff.c    **** 		w = lfn[di - 1];
1892:fatfs/ff.c    **** 		if (w != ' ' && w != '.') break;
1893:fatfs/ff.c    **** 		di--;
1894:fatfs/ff.c    **** 	}
1895:fatfs/ff.c    **** 	if (!di) return FR_INVALID_NAME;	/* Reject nul string */
1896:fatfs/ff.c    **** 	lfn[di] = 0;						/* LFN is created */
1897:fatfs/ff.c    **** 
1898:fatfs/ff.c    **** 	/* Create SFN in directory form */
1899:fatfs/ff.c    **** 	mem_set(dp->fn, ' ', 11);
1900:fatfs/ff.c    **** 	for (si = 0; lfn[si] == ' ' || lfn[si] == '.'; si++) ;	/* Strip leading spaces and dots */
1901:fatfs/ff.c    **** 	if (si) cf |= NS_LOSS | NS_LFN;
1902:fatfs/ff.c    **** 	while (di && lfn[di - 1] != '.') di--;	/* Find extension (di<=si: no extension) */
1903:fatfs/ff.c    **** 
1904:fatfs/ff.c    **** 	b = i = 0; ni = 8;
1905:fatfs/ff.c    **** 	for (;;) {
1906:fatfs/ff.c    **** 		w = lfn[si++];					/* Get an LFN character */
1907:fatfs/ff.c    **** 		if (!w) break;					/* Break on end of the LFN */
1908:fatfs/ff.c    **** 		if (w == ' ' || (w == '.' && si != di)) {	/* Remove spaces and dots */
1909:fatfs/ff.c    **** 			cf |= NS_LOSS | NS_LFN; continue;
1910:fatfs/ff.c    **** 		}
1911:fatfs/ff.c    **** 
1912:fatfs/ff.c    **** 		if (i >= ni || si == di) {		/* Extension or end of SFN */
1913:fatfs/ff.c    **** 			if (ni == 11) {				/* Long extension */
1914:fatfs/ff.c    **** 				cf |= NS_LOSS | NS_LFN; break;
1915:fatfs/ff.c    **** 			}
1916:fatfs/ff.c    **** 			if (si != di) cf |= NS_LOSS | NS_LFN;	/* Out of 8.3 format */
1917:fatfs/ff.c    **** 			if (si > di) break;			/* No extension */
1918:fatfs/ff.c    **** 			si = di; i = 8; ni = 11;	/* Enter extension section */
1919:fatfs/ff.c    **** 			b <<= 2; continue;
1920:fatfs/ff.c    **** 		}
1921:fatfs/ff.c    **** 
1922:fatfs/ff.c    **** 		if (w >= 0x80) {				/* Non ASCII character */
1923:fatfs/ff.c    **** #ifdef _EXCVT
1924:fatfs/ff.c    **** 			w = ff_convert(w, 0);		/* Unicode -> OEM code */
1925:fatfs/ff.c    **** 			if (w) w = ExCvt[w - 0x80];	/* Convert extended character to upper (SBCS) */
1926:fatfs/ff.c    **** #else
1927:fatfs/ff.c    **** 			w = ff_convert(ff_wtoupper(w), 0);	/* Upper converted Unicode -> OEM code */
1928:fatfs/ff.c    **** #endif
1929:fatfs/ff.c    **** 			cf |= NS_LFN;				/* Force create LFN entry */
1930:fatfs/ff.c    **** 		}
ARM GAS  C:\Users\DMYTRO~1.FED\AppData\Local\Temp\ccikP2CY.s 			page 42


1931:fatfs/ff.c    **** 
1932:fatfs/ff.c    **** 		if (_DF1S && w >= 0x100) {		/* Is this DBC? (always false at SBCS cfg) */
1933:fatfs/ff.c    **** 			if (i >= ni - 1) {
1934:fatfs/ff.c    **** 				cf |= NS_LOSS | NS_LFN; i = ni; continue;
1935:fatfs/ff.c    **** 			}
1936:fatfs/ff.c    **** 			dp->fn[i++] = (BYTE)(w >> 8);
1937:fatfs/ff.c    **** 		} else {						/* SBC */
1938:fatfs/ff.c    **** 			if (!w || chk_chr("+,;=[]", w)) {	/* Replace illegal characters for SFN */
1939:fatfs/ff.c    **** 				w = '_'; cf |= NS_LOSS | NS_LFN;/* Lossy conversion */
1940:fatfs/ff.c    **** 			} else {
1941:fatfs/ff.c    **** 				if (IsUpper(w)) {		/* ASCII large capital */
1942:fatfs/ff.c    **** 					b |= 2;
1943:fatfs/ff.c    **** 				} else {
1944:fatfs/ff.c    **** 					if (IsLower(w)) {	/* ASCII small capital */
1945:fatfs/ff.c    **** 						b |= 1; w -= 0x20;
1946:fatfs/ff.c    **** 					}
1947:fatfs/ff.c    **** 				}
1948:fatfs/ff.c    **** 			}
1949:fatfs/ff.c    **** 		}
1950:fatfs/ff.c    **** 		dp->fn[i++] = (BYTE)w;
1951:fatfs/ff.c    **** 	}
1952:fatfs/ff.c    **** 
1953:fatfs/ff.c    **** 	if (dp->fn[0] == DDEM) dp->fn[0] = RDDEM;	/* If the first character collides with DDEM, replace it
1954:fatfs/ff.c    **** 
1955:fatfs/ff.c    **** 	if (ni == 8) b <<= 2;
1956:fatfs/ff.c    **** 	if ((b & 0x0C) == 0x0C || (b & 0x03) == 0x03)	/* Create LFN entry when there are composite capital
1957:fatfs/ff.c    **** 		cf |= NS_LFN;
1958:fatfs/ff.c    **** 	if (!(cf & NS_LFN)) {						/* When LFN is in 8.3 format without extended character, NT flags are c
1959:fatfs/ff.c    **** 		if ((b & 0x03) == 0x01) cf |= NS_EXT;	/* NT flag (Extension has only small capital) */
1960:fatfs/ff.c    **** 		if ((b & 0x0C) == 0x04) cf |= NS_BODY;	/* NT flag (Filename has only small capital) */
1961:fatfs/ff.c    **** 	}
1962:fatfs/ff.c    **** 
1963:fatfs/ff.c    **** 	dp->fn[NSFLAG] = cf;	/* SFN is created */
1964:fatfs/ff.c    **** 
1965:fatfs/ff.c    **** 	return FR_OK;
1966:fatfs/ff.c    **** 
1967:fatfs/ff.c    **** 
1968:fatfs/ff.c    **** #else	/* Non-LFN configuration */
1969:fatfs/ff.c    **** 	BYTE b, c, d, *sfn;
1970:fatfs/ff.c    **** 	UINT ni, si, i;
1971:fatfs/ff.c    **** 	const char *p;
1972:fatfs/ff.c    **** 
1973:fatfs/ff.c    **** 	/* Create file name in directory form */
1974:fatfs/ff.c    **** 	for (p = *path; *p == '/' || *p == '\\'; p++) ;	/* Skip duplicated separator */
 403              		.loc 1 1974 0
 404 000e 0C68     		ldr	r4, [r1]
 405              	.LVL45:
 406 0010 00E0     		b	.L27
 407              	.L28:
 408              		.loc 1 1974 0 is_stmt 0 discriminator 5
 409 0012 0134     		adds	r4, r4, #1
 410              	.LVL46:
 411              	.L27:
 412              		.loc 1 1974 0 discriminator 1
 413 0014 2378     		ldrb	r3, [r4]
 414 0016 2F2B     		cmp	r3, #47
 415 0018 FBD0     		beq	.L28
ARM GAS  C:\Users\DMYTRO~1.FED\AppData\Local\Temp\ccikP2CY.s 			page 43


 416              		.loc 1 1974 0 discriminator 4
 417 001a 5C2B     		cmp	r3, #92
 418 001c F9D0     		beq	.L28
1975:fatfs/ff.c    **** 	sfn = dp->fn;
 419              		.loc 1 1975 0 is_stmt 1
 420 001e 8669     		ldr	r6, [r0, #24]
 421              	.LVL47:
1976:fatfs/ff.c    **** 	mem_set(sfn, ' ', 11);
 422              		.loc 1 1976 0
 423 0020 0B22     		movs	r2, #11
 424 0022 2021     		movs	r1, #32
 425              	.LVL48:
 426 0024 3000     		movs	r0, r6
 427              	.LVL49:
 428 0026 FFF7FEFF 		bl	mem_set
 429              	.LVL50:
1977:fatfs/ff.c    **** 	si = i = b = 0; ni = 8;
1978:fatfs/ff.c    **** #if _FS_RPATH
1979:fatfs/ff.c    **** 	if (p[si] == '.') { /* Is this a dot entry? */
 430              		.loc 1 1979 0
 431 002a 2378     		ldrb	r3, [r4]
 432 002c 2E2B     		cmp	r3, #46
 433 002e 1ED1     		bne	.L46
 434 0030 0021     		movs	r1, #0
 435 0032 0023     		movs	r3, #0
 436              	.LVL51:
 437              	.L31:
1980:fatfs/ff.c    **** 		for (;;) {
1981:fatfs/ff.c    **** 			c = (BYTE)p[si++];
 438              		.loc 1 1981 0
 439 0034 5A1C     		adds	r2, r3, #1
 440              	.LVL52:
 441 0036 E35C     		ldrb	r3, [r4, r3]
 442              	.LVL53:
1982:fatfs/ff.c    **** 			if (c != '.' || si >= 3) break;
 443              		.loc 1 1982 0
 444 0038 2E2B     		cmp	r3, #46
 445 003a 05D1     		bne	.L30
 446              		.loc 1 1982 0 is_stmt 0 discriminator 1
 447 003c 022A     		cmp	r2, #2
 448 003e 03D8     		bhi	.L30
 449              	.LVL54:
1983:fatfs/ff.c    **** 			sfn[i++] = c;
 450              		.loc 1 1983 0 is_stmt 1
 451 0040 7354     		strb	r3, [r6, r1]
1981:fatfs/ff.c    **** 			if (c != '.' || si >= 3) break;
 452              		.loc 1 1981 0
 453 0042 1300     		movs	r3, r2
 454              	.LVL55:
 455              		.loc 1 1983 0
 456 0044 0131     		adds	r1, r1, #1
 457              	.LVL56:
1984:fatfs/ff.c    **** 		}
 458              		.loc 1 1984 0
 459 0046 F5E7     		b	.L31
 460              	.LVL57:
 461              	.L30:
ARM GAS  C:\Users\DMYTRO~1.FED\AppData\Local\Temp\ccikP2CY.s 			page 44


1985:fatfs/ff.c    **** 		if (c != '/' && c != '\\' && c > ' ') return FR_INVALID_NAME;
 462              		.loc 1 1985 0
 463 0048 2F2B     		cmp	r3, #47
 464 004a 03D0     		beq	.L32
 465              		.loc 1 1985 0 is_stmt 0 discriminator 1
 466 004c 5C2B     		cmp	r3, #92
 467 004e 01D0     		beq	.L32
 468              		.loc 1 1985 0 discriminator 2
 469 0050 202B     		cmp	r3, #32
 470 0052 78D8     		bhi	.L47
 471              	.L32:
1986:fatfs/ff.c    **** 		*path = &p[si];									/* Return pointer to the next segment */
 472              		.loc 1 1986 0 is_stmt 1
 473 0054 A418     		adds	r4, r4, r2
 474              	.LVL58:
 475 0056 4A46     		mov	r2, r9
 476              	.LVL59:
 477 0058 1460     		str	r4, [r2]
1987:fatfs/ff.c    **** 		sfn[NSFLAG] = (c <= ' ') ? NS_LAST | NS_DOT : NS_DOT;	/* Set last segment flag if end of path */
 478              		.loc 1 1987 0
 479 005a 202B     		cmp	r3, #32
 480 005c 01D8     		bhi	.L48
 481              	.LVL60:
 482 005e 2423     		movs	r3, #36
 483              	.LVL61:
 484 0060 00E0     		b	.L34
 485              	.LVL62:
 486              	.L48:
 487 0062 2023     		movs	r3, #32
 488              	.LVL63:
 489              	.L34:
 490              		.loc 1 1987 0 is_stmt 0 discriminator 4
 491 0064 F372     		strb	r3, [r6, #11]
1988:fatfs/ff.c    **** 		return FR_OK;
 492              		.loc 1 1988 0 is_stmt 1 discriminator 4
 493 0066 0020     		movs	r0, #0
 494 0068 78E0     		b	.L33
 495              	.LVL64:
 496              	.L38:
 497 006a 5346     		mov	r3, r10
 498 006c 05E0     		b	.L29
 499              	.LVL65:
 500              	.L46:
 501 006e 0027     		movs	r7, #0
 502 0070 0023     		movs	r3, #0
 503 0072 0822     		movs	r2, #8
 504 0074 9046     		mov	r8, r2
 505 0076 0022     		movs	r2, #0
 506 0078 9346     		mov	fp, r2
 507              	.LVL66:
 508              	.L29:
1989:fatfs/ff.c    **** 	}
1990:fatfs/ff.c    **** #endif
1991:fatfs/ff.c    **** 	for (;;) {
1992:fatfs/ff.c    **** 		c = (BYTE)p[si++];
 509              		.loc 1 1992 0
 510 007a 5A1C     		adds	r2, r3, #1
ARM GAS  C:\Users\DMYTRO~1.FED\AppData\Local\Temp\ccikP2CY.s 			page 45


 511 007c 9246     		mov	r10, r2
 512              	.LVL67:
 513 007e E55C     		ldrb	r5, [r4, r3]
 514              	.LVL68:
1993:fatfs/ff.c    **** 		if (c <= ' ' || c == '/' || c == '\\') break;	/* Break on end of segment */
 515              		.loc 1 1993 0
 516 0080 202D     		cmp	r5, #32
 517 0082 37D9     		bls	.L35
 518              		.loc 1 1993 0 is_stmt 0 discriminator 1
 519 0084 2F2D     		cmp	r5, #47
 520 0086 35D0     		beq	.L35
 521              		.loc 1 1993 0 discriminator 2
 522 0088 5C2D     		cmp	r5, #92
 523 008a 33D0     		beq	.L35
1994:fatfs/ff.c    **** 		if (c == '.' || i >= ni) {
 524              		.loc 1 1994 0 is_stmt 1
 525 008c 2E2D     		cmp	r5, #46
 526 008e 01D0     		beq	.L36
 527              		.loc 1 1994 0 is_stmt 0 discriminator 1
 528 0090 B845     		cmp	r8, r7
 529 0092 0CD8     		bhi	.L37
 530              	.L36:
1995:fatfs/ff.c    **** 			if (ni != 8 || c != '.') return FR_INVALID_NAME;
 531              		.loc 1 1995 0 is_stmt 1
 532 0094 4346     		mov	r3, r8
 533 0096 082B     		cmp	r3, #8
 534 0098 57D1     		bne	.L49
 535              	.LVL69:
 536              		.loc 1 1995 0 is_stmt 0 discriminator 2
 537 009a 2E2D     		cmp	r5, #46
 538 009c 57D1     		bne	.L50
 539              	.LVL70:
1996:fatfs/ff.c    **** 			i = 8; ni = 11;
1997:fatfs/ff.c    **** 			b <<= 2; continue;
 540              		.loc 1 1997 0 is_stmt 1
 541 009e 5B46     		mov	r3, fp
 542 00a0 9B00     		lsls	r3, r3, #2
 543 00a2 DBB2     		uxtb	r3, r3
 544 00a4 9B46     		mov	fp, r3
 545              	.LVL71:
1996:fatfs/ff.c    **** 			i = 8; ni = 11;
 546              		.loc 1 1996 0
 547 00a6 0827     		movs	r7, #8
 548 00a8 0B23     		movs	r3, #11
 549 00aa 9846     		mov	r8, r3
 550              		.loc 1 1997 0
 551 00ac DDE7     		b	.L38
 552              	.LVL72:
 553              	.L37:
1998:fatfs/ff.c    **** 		}
1999:fatfs/ff.c    **** 		if (c >= 0x80) {				/* Extended character? */
 554              		.loc 1 1999 0
 555 00ae 6BB2     		sxtb	r3, r5
 556 00b0 002B     		cmp	r3, #0
 557 00b2 4EDB     		blt	.L51
2000:fatfs/ff.c    **** 			b |= 3;						/* Eliminate NT flag */
2001:fatfs/ff.c    **** #ifdef _EXCVT
ARM GAS  C:\Users\DMYTRO~1.FED\AppData\Local\Temp\ccikP2CY.s 			page 46


2002:fatfs/ff.c    **** 			c = ExCvt[c - 0x80];		/* To upper extended characters (SBCS cfg) */
2003:fatfs/ff.c    **** #else
2004:fatfs/ff.c    **** #if !_DF1S
2005:fatfs/ff.c    **** 			return FR_INVALID_NAME;		/* Reject extended characters (ASCII cfg) */
2006:fatfs/ff.c    **** #endif
2007:fatfs/ff.c    **** #endif
2008:fatfs/ff.c    **** 		}
2009:fatfs/ff.c    **** 		if (IsDBCS1(c)) {				/* Check if it is a DBC 1st byte (always false at SBCS cfg.) */
2010:fatfs/ff.c    **** 			d = (BYTE)p[si++];			/* Get 2nd byte */
2011:fatfs/ff.c    **** 			if (!IsDBCS2(d) || i >= ni - 1)	/* Reject invalid DBC */
2012:fatfs/ff.c    **** 				return FR_INVALID_NAME;
2013:fatfs/ff.c    **** 			sfn[i++] = c;
2014:fatfs/ff.c    **** 			sfn[i++] = d;
2015:fatfs/ff.c    **** 		} else {						/* SBC */
2016:fatfs/ff.c    **** 			if (chk_chr("\"*+,:;<=>\?[]|\x7F", c))	/* Reject illegal chrs for SFN */
 558              		.loc 1 2016 0
 559 00b4 2900     		movs	r1, r5
 560 00b6 2C48     		ldr	r0, .L55
 561 00b8 FFF7FEFF 		bl	chk_chr
 562              	.LVL73:
 563 00bc 0028     		cmp	r0, #0
 564 00be 4AD1     		bne	.L52
2017:fatfs/ff.c    **** 				return FR_INVALID_NAME;
2018:fatfs/ff.c    **** 			if (IsUpper(c)) {			/* ASCII large capital? */
 565              		.loc 1 2018 0
 566 00c0 2B00     		movs	r3, r5
 567 00c2 413B     		subs	r3, r3, #65
 568 00c4 DBB2     		uxtb	r3, r3
 569 00c6 192B     		cmp	r3, #25
 570 00c8 05D8     		bhi	.L39
2019:fatfs/ff.c    **** 				b |= 2;
 571              		.loc 1 2019 0
 572 00ca 0223     		movs	r3, #2
 573 00cc 5A46     		mov	r2, fp
 574 00ce 1A43     		orrs	r2, r3
 575 00d0 D3B2     		uxtb	r3, r2
 576 00d2 9B46     		mov	fp, r3
 577              	.LVL74:
 578 00d4 0BE0     		b	.L40
 579              	.L39:
2020:fatfs/ff.c    **** 			} else {
2021:fatfs/ff.c    **** 				if (IsLower(c)) {		/* ASCII small capital? */
 580              		.loc 1 2021 0
 581 00d6 2B00     		movs	r3, r5
 582 00d8 613B     		subs	r3, r3, #97
 583 00da DBB2     		uxtb	r3, r3
 584 00dc 192B     		cmp	r3, #25
 585 00de 06D8     		bhi	.L40
2022:fatfs/ff.c    **** 					b |= 1; c -= 0x20;
 586              		.loc 1 2022 0
 587 00e0 0123     		movs	r3, #1
 588 00e2 5A46     		mov	r2, fp
 589 00e4 1A43     		orrs	r2, r3
 590 00e6 D3B2     		uxtb	r3, r2
 591 00e8 9B46     		mov	fp, r3
 592              	.LVL75:
 593 00ea 203D     		subs	r5, r5, #32
ARM GAS  C:\Users\DMYTRO~1.FED\AppData\Local\Temp\ccikP2CY.s 			page 47


 594              	.LVL76:
 595 00ec EDB2     		uxtb	r5, r5
 596              	.LVL77:
 597              	.L40:
2023:fatfs/ff.c    **** 				}
2024:fatfs/ff.c    **** 			}
2025:fatfs/ff.c    **** 			sfn[i++] = c;
 598              		.loc 1 2025 0
 599 00ee F555     		strb	r5, [r6, r7]
 600 00f0 0137     		adds	r7, r7, #1
 601              	.LVL78:
 602 00f2 BAE7     		b	.L38
 603              	.LVL79:
 604              	.L35:
2026:fatfs/ff.c    **** 		}
2027:fatfs/ff.c    **** 	}
2028:fatfs/ff.c    **** 	*path = &p[si];						/* Return pointer to the next segment */
 605              		.loc 1 2028 0
 606 00f4 5444     		add	r4, r4, r10
 607              	.LVL80:
 608 00f6 4B46     		mov	r3, r9
 609 00f8 1C60     		str	r4, [r3]
2029:fatfs/ff.c    **** 	c = (c <= ' ') ? NS_LAST : 0;		/* Set last segment flag if end of path */
 610              		.loc 1 2029 0
 611 00fa 202D     		cmp	r5, #32
 612 00fc 01D8     		bhi	.L53
 613              	.LVL81:
 614 00fe 0422     		movs	r2, #4
 615              	.LVL82:
 616 0100 00E0     		b	.L41
 617              	.LVL83:
 618              	.L53:
 619 0102 0022     		movs	r2, #0
 620              	.LVL84:
 621              	.L41:
2030:fatfs/ff.c    **** 
2031:fatfs/ff.c    **** 	if (!i) return FR_INVALID_NAME;		/* Reject nul string */
 622              		.loc 1 2031 0 discriminator 4
 623 0104 002F     		cmp	r7, #0
 624 0106 28D0     		beq	.L54
2032:fatfs/ff.c    **** 	if (sfn[0] == DDEM) sfn[0] = RDDEM;	/* When first character collides with DDEM, replace it with RD
 625              		.loc 1 2032 0
 626 0108 3378     		ldrb	r3, [r6]
 627              	.LVL85:
 628 010a E52B     		cmp	r3, #229
 629 010c 01D1     		bne	.L42
 630              		.loc 1 2032 0 is_stmt 0 discriminator 1
 631 010e E03B     		subs	r3, r3, #224
 632 0110 3370     		strb	r3, [r6]
 633              	.L42:
2033:fatfs/ff.c    **** 
2034:fatfs/ff.c    **** 	if (ni == 8) b <<= 2;
 634              		.loc 1 2034 0 is_stmt 1
 635 0112 4346     		mov	r3, r8
 636 0114 082B     		cmp	r3, #8
 637 0116 03D1     		bne	.L43
 638              	.LVL86:
ARM GAS  C:\Users\DMYTRO~1.FED\AppData\Local\Temp\ccikP2CY.s 			page 48


 639              		.loc 1 2034 0 is_stmt 0 discriminator 1
 640 0118 5B46     		mov	r3, fp
 641              	.LVL87:
 642 011a 9B00     		lsls	r3, r3, #2
 643 011c DBB2     		uxtb	r3, r3
 644 011e 9B46     		mov	fp, r3
 645              	.LVL88:
 646              	.L43:
2035:fatfs/ff.c    **** 	if ((b & 0x03) == 0x01) c |= NS_EXT;	/* NT flag (Name extension has only small capital) */
 647              		.loc 1 2035 0 is_stmt 1
 648 0120 0323     		movs	r3, #3
 649 0122 5946     		mov	r1, fp
 650 0124 0B40     		ands	r3, r1
 651 0126 012B     		cmp	r3, #1
 652 0128 02D1     		bne	.L44
 653              		.loc 1 2035 0 is_stmt 0 discriminator 1
 654 012a 1023     		movs	r3, #16
 655 012c 1A43     		orrs	r2, r3
 656              	.LVL89:
 657 012e D2B2     		uxtb	r2, r2
 658              	.LVL90:
 659              	.L44:
2036:fatfs/ff.c    **** 	if ((b & 0x0C) == 0x04) c |= NS_BODY;	/* NT flag (Name body has only small capital) */
 660              		.loc 1 2036 0 is_stmt 1
 661 0130 0C23     		movs	r3, #12
 662 0132 5946     		mov	r1, fp
 663 0134 0B40     		ands	r3, r1
 664 0136 042B     		cmp	r3, #4
 665 0138 02D1     		bne	.L45
 666              		.loc 1 2036 0 is_stmt 0 discriminator 1
 667 013a 0823     		movs	r3, #8
 668 013c 1A43     		orrs	r2, r3
 669              	.LVL91:
 670 013e D2B2     		uxtb	r2, r2
 671              	.LVL92:
 672              	.L45:
2037:fatfs/ff.c    **** 
2038:fatfs/ff.c    **** 	sfn[NSFLAG] = c;		/* Store NT flag, File name is created */
 673              		.loc 1 2038 0 is_stmt 1
 674 0140 F272     		strb	r2, [r6, #11]
2039:fatfs/ff.c    **** 
2040:fatfs/ff.c    **** 	return FR_OK;
 675              		.loc 1 2040 0
 676 0142 0020     		movs	r0, #0
 677 0144 0AE0     		b	.L33
 678              	.LVL93:
 679              	.L47:
1985:fatfs/ff.c    **** 		*path = &p[si];									/* Return pointer to the next segment */
 680              		.loc 1 1985 0
 681 0146 0620     		movs	r0, #6
 682 0148 08E0     		b	.L33
 683              	.LVL94:
 684              	.L49:
1995:fatfs/ff.c    **** 			i = 8; ni = 11;
 685              		.loc 1 1995 0
 686 014a 0620     		movs	r0, #6
 687 014c 06E0     		b	.L33
ARM GAS  C:\Users\DMYTRO~1.FED\AppData\Local\Temp\ccikP2CY.s 			page 49


 688              	.L50:
 689 014e 0620     		movs	r0, #6
 690 0150 04E0     		b	.L33
 691              	.LVL95:
 692              	.L51:
2005:fatfs/ff.c    **** #endif
 693              		.loc 1 2005 0
 694 0152 0620     		movs	r0, #6
 695 0154 02E0     		b	.L33
 696              	.LVL96:
 697              	.L52:
2017:fatfs/ff.c    **** 			if (IsUpper(c)) {			/* ASCII large capital? */
 698              		.loc 1 2017 0
 699 0156 0620     		movs	r0, #6
 700 0158 00E0     		b	.L33
 701              	.LVL97:
 702              	.L54:
2031:fatfs/ff.c    **** 	if (sfn[0] == DDEM) sfn[0] = RDDEM;	/* When first character collides with DDEM, replace it with RD
 703              		.loc 1 2031 0
 704 015a 0620     		movs	r0, #6
 705              	.LVL98:
 706              	.L33:
2041:fatfs/ff.c    **** #endif
2042:fatfs/ff.c    **** }
 707              		.loc 1 2042 0
 708              		@ sp needed
 709              	.LVL99:
 710              	.LVL100:
 711 015c 3CBC     		pop	{r2, r3, r4, r5}
 712 015e 9046     		mov	r8, r2
 713 0160 9946     		mov	r9, r3
 714 0162 A246     		mov	r10, r4
 715 0164 AB46     		mov	fp, r5
 716 0166 F8BD     		pop	{r3, r4, r5, r6, r7, pc}
 717              	.L56:
 718              		.align	2
 719              	.L55:
 720 0168 00000000 		.word	.LC0
 721              		.cfi_endproc
 722              	.LFE22:
 723              		.size	create_name, .-create_name
 724              		.section	.text.get_ldnumber,"ax",%progbits
 725              		.align	2
 726              		.code	16
 727              		.thumb_func
 728              		.type	get_ldnumber, %function
 729              	get_ldnumber:
 730              	.LFB24:
2043:fatfs/ff.c    **** 
2044:fatfs/ff.c    **** 
2045:fatfs/ff.c    **** 
2046:fatfs/ff.c    **** 
2047:fatfs/ff.c    **** /*-----------------------------------------------------------------------*/
2048:fatfs/ff.c    **** /* Follow a file path                                                    */
2049:fatfs/ff.c    **** /*-----------------------------------------------------------------------*/
2050:fatfs/ff.c    **** 
2051:fatfs/ff.c    **** static
ARM GAS  C:\Users\DMYTRO~1.FED\AppData\Local\Temp\ccikP2CY.s 			page 50


2052:fatfs/ff.c    **** FRESULT follow_path (	/* FR_OK(0): successful, !=0: error code */
2053:fatfs/ff.c    **** 	DIR* dp,			/* Directory object to return last directory and found object */
2054:fatfs/ff.c    **** 	const TCHAR* path	/* Full-path string to find a file or directory */
2055:fatfs/ff.c    **** )
2056:fatfs/ff.c    **** {
2057:fatfs/ff.c    **** 	FRESULT res;
2058:fatfs/ff.c    **** 	BYTE *dir, ns;
2059:fatfs/ff.c    **** 
2060:fatfs/ff.c    **** 
2061:fatfs/ff.c    **** #if _FS_RPATH
2062:fatfs/ff.c    **** 	if (*path == '/' || *path == '\\') {	/* There is a heading separator */
2063:fatfs/ff.c    **** 		path++;	dp->sclust = 0;				/* Strip it and start from the root directory */
2064:fatfs/ff.c    **** 	} else {								/* No heading separator */
2065:fatfs/ff.c    **** 		dp->sclust = dp->fs->cdir;			/* Start from the current directory */
2066:fatfs/ff.c    **** 	}
2067:fatfs/ff.c    **** #else
2068:fatfs/ff.c    **** 	if (*path == '/' || *path == '\\')		/* Strip heading separator if exist */
2069:fatfs/ff.c    **** 		path++;
2070:fatfs/ff.c    **** 	dp->sclust = 0;							/* Always start from the root directory */
2071:fatfs/ff.c    **** #endif
2072:fatfs/ff.c    **** 
2073:fatfs/ff.c    **** 	if ((UINT)*path < ' ') {				/* Null path name is the origin directory itself */
2074:fatfs/ff.c    **** 		res = dir_sdi(dp, 0);
2075:fatfs/ff.c    **** 		dp->dir = 0;
2076:fatfs/ff.c    **** 	} else {								/* Follow path */
2077:fatfs/ff.c    **** 		for (;;) {
2078:fatfs/ff.c    **** 			res = create_name(dp, &path);	/* Get a segment name of the path */
2079:fatfs/ff.c    **** 			if (res != FR_OK) break;
2080:fatfs/ff.c    **** 			res = dir_find(dp);				/* Find an object with the sagment name */
2081:fatfs/ff.c    **** 			ns = dp->fn[NSFLAG];
2082:fatfs/ff.c    **** 			if (res != FR_OK) {				/* Failed to find the object */
2083:fatfs/ff.c    **** 				if (res == FR_NO_FILE) {	/* Object is not found */
2084:fatfs/ff.c    **** 					if (_FS_RPATH && (ns & NS_DOT)) {	/* If dot entry is not exist, */
2085:fatfs/ff.c    **** 						dp->sclust = 0; dp->dir = 0;	/* it is the root directory and stay there */
2086:fatfs/ff.c    **** 						if (!(ns & NS_LAST)) continue;	/* Continue to follow if not last segment */
2087:fatfs/ff.c    **** 						res = FR_OK;					/* Ended at the root directroy. Function completed. */
2088:fatfs/ff.c    **** 					} else {							/* Could not find the object */
2089:fatfs/ff.c    **** 						if (!(ns & NS_LAST)) res = FR_NO_PATH;	/* Adjust error code if not last segment */
2090:fatfs/ff.c    **** 					}
2091:fatfs/ff.c    **** 				}
2092:fatfs/ff.c    **** 				break;
2093:fatfs/ff.c    **** 			}
2094:fatfs/ff.c    **** 			if (ns & NS_LAST) break;			/* Last segment matched. Function completed. */
2095:fatfs/ff.c    **** 			dir = dp->dir;						/* Follow the sub-directory */
2096:fatfs/ff.c    **** 			if (!(dir[DIR_Attr] & AM_DIR)) {	/* It is not a sub-directory and cannot follow */
2097:fatfs/ff.c    **** 				res = FR_NO_PATH; break;
2098:fatfs/ff.c    **** 			}
2099:fatfs/ff.c    **** 			dp->sclust = ld_clust(dp->fs, dir);
2100:fatfs/ff.c    **** 		}
2101:fatfs/ff.c    **** 	}
2102:fatfs/ff.c    **** 
2103:fatfs/ff.c    **** 	return res;
2104:fatfs/ff.c    **** }
2105:fatfs/ff.c    **** 
2106:fatfs/ff.c    **** 
2107:fatfs/ff.c    **** 
2108:fatfs/ff.c    **** 
ARM GAS  C:\Users\DMYTRO~1.FED\AppData\Local\Temp\ccikP2CY.s 			page 51


2109:fatfs/ff.c    **** /*-----------------------------------------------------------------------*/
2110:fatfs/ff.c    **** /* Get logical drive number from path name                               */
2111:fatfs/ff.c    **** /*-----------------------------------------------------------------------*/
2112:fatfs/ff.c    **** 
2113:fatfs/ff.c    **** static
2114:fatfs/ff.c    **** int get_ldnumber (		/* Returns logical drive number (-1:invalid drive) */
2115:fatfs/ff.c    **** 	const TCHAR** path	/* Pointer to pointer to the path name */
2116:fatfs/ff.c    **** )
2117:fatfs/ff.c    **** {
 731              		.loc 1 2117 0
 732              		.cfi_startproc
 733              		@ args = 0, pretend = 0, frame = 0
 734              		@ frame_needed = 0, uses_anonymous_args = 0
 735              	.LVL101:
 736 0000 10B5     		push	{r4, lr}
 737              		.cfi_def_cfa_offset 8
 738              		.cfi_offset 4, -8
 739              		.cfi_offset 14, -4
 740              	.LVL102:
2118:fatfs/ff.c    **** 	const TCHAR *tp, *tt;
2119:fatfs/ff.c    **** 	UINT i;
2120:fatfs/ff.c    **** 	int vol = -1;
2121:fatfs/ff.c    **** #if _STR_VOLUME_ID		/* Find string drive id */
2122:fatfs/ff.c    **** 	static const char* const str[] = {_VOLUME_STRS};
2123:fatfs/ff.c    **** 	const char *sp;
2124:fatfs/ff.c    **** 	char c;
2125:fatfs/ff.c    **** 	TCHAR tc;
2126:fatfs/ff.c    **** #endif
2127:fatfs/ff.c    **** 
2128:fatfs/ff.c    **** 
2129:fatfs/ff.c    **** 	if (*path) {	/* If the pointer is not a null */
 741              		.loc 1 2129 0
 742 0002 0168     		ldr	r1, [r0]
 743 0004 0029     		cmp	r1, #0
 744 0006 04D1     		bne	.L62
2120:fatfs/ff.c    **** #if _STR_VOLUME_ID		/* Find string drive id */
 745              		.loc 1 2120 0
 746 0008 0123     		movs	r3, #1
 747 000a 5B42     		rsbs	r3, r3, #0
 748 000c 1FE0     		b	.L59
 749              	.LVL103:
 750              	.L61:
2130:fatfs/ff.c    **** 		for (tt = *path; (UINT)*tt >= (_USE_LFN ? ' ' : '!') && *tt != ':'; tt++) ;	/* Find ':' in the pa
 751              		.loc 1 2130 0 discriminator 4
 752 000e 0132     		adds	r2, r2, #1
 753              	.LVL104:
 754 0010 00E0     		b	.L58
 755              	.LVL105:
 756              	.L62:
 757 0012 0A00     		movs	r2, r1
 758              	.L58:
 759              	.LVL106:
 760              		.loc 1 2130 0 is_stmt 0 discriminator 1
 761 0014 1378     		ldrb	r3, [r2]
 762 0016 202B     		cmp	r3, #32
 763 0018 01D9     		bls	.L60
 764              		.loc 1 2130 0 discriminator 3
ARM GAS  C:\Users\DMYTRO~1.FED\AppData\Local\Temp\ccikP2CY.s 			page 52


 765 001a 3A2B     		cmp	r3, #58
 766 001c F7D1     		bne	.L61
 767              	.L60:
2131:fatfs/ff.c    **** 		if (*tt == ':') {	/* If a ':' is exist in the path name */
 768              		.loc 1 2131 0 is_stmt 1
 769 001e 3A2B     		cmp	r3, #58
 770 0020 0BD1     		bne	.L63
 771              	.LVL107:
2132:fatfs/ff.c    **** 			tp = *path;
2133:fatfs/ff.c    **** 			i = *tp++ - '0'; 
 772              		.loc 1 2133 0
 773 0022 4C1C     		adds	r4, r1, #1
 774              	.LVL108:
 775 0024 0B78     		ldrb	r3, [r1]
 776 0026 303B     		subs	r3, r3, #48
 777              	.LVL109:
2134:fatfs/ff.c    **** 			if (i < 10 && tp == tt) {	/* Is there a numeric drive id? */
 778              		.loc 1 2134 0
 779 0028 092B     		cmp	r3, #9
 780 002a 08D8     		bhi	.L64
 781              		.loc 1 2134 0 is_stmt 0 discriminator 1
 782 002c A242     		cmp	r2, r4
 783 002e 09D1     		bne	.L65
2135:fatfs/ff.c    **** 				if (i < _VOLUMES) {	/* If a drive id is found, get the value and strip it */
 784              		.loc 1 2135 0 is_stmt 1
 785 0030 002B     		cmp	r3, #0
 786 0032 0AD1     		bne	.L66
 787              	.LVL110:
2136:fatfs/ff.c    **** 					vol = (int)i;
2137:fatfs/ff.c    **** 					*path = ++tt;
 788              		.loc 1 2137 0
 789 0034 0132     		adds	r2, r2, #1
 790              	.LVL111:
 791 0036 0260     		str	r2, [r0]
 792 0038 09E0     		b	.L59
 793              	.LVL112:
 794              	.L63:
2138:fatfs/ff.c    **** 				}
2139:fatfs/ff.c    **** 			}
2140:fatfs/ff.c    **** #if _STR_VOLUME_ID
2141:fatfs/ff.c    **** 			 else {	/* No numeric drive number, find string drive id */
2142:fatfs/ff.c    **** 				i = 0; tt++;
2143:fatfs/ff.c    **** 				do {
2144:fatfs/ff.c    **** 					sp = str[i]; tp = *path;
2145:fatfs/ff.c    **** 					do {	/* Compare a string drive id with path name */
2146:fatfs/ff.c    **** 						c = *sp++; tc = *tp++;
2147:fatfs/ff.c    **** 						if (IsLower(tc)) tc -= 0x20;
2148:fatfs/ff.c    **** 					} while (c && (TCHAR)c == tc);
2149:fatfs/ff.c    **** 				} while ((c || tp != tt) && ++i < _VOLUMES);	/* Repeat for each id until pattern match */
2150:fatfs/ff.c    **** 				if (i < _VOLUMES) {	/* If a drive id is found, get the value and strip it */
2151:fatfs/ff.c    **** 					vol = (int)i;
2152:fatfs/ff.c    **** 					*path = tt;
2153:fatfs/ff.c    **** 				}
2154:fatfs/ff.c    **** 			}
2155:fatfs/ff.c    **** #endif
2156:fatfs/ff.c    **** 			return vol;
2157:fatfs/ff.c    **** 		}
ARM GAS  C:\Users\DMYTRO~1.FED\AppData\Local\Temp\ccikP2CY.s 			page 53


2158:fatfs/ff.c    **** #if _FS_RPATH && _VOLUMES >= 2
2159:fatfs/ff.c    **** 		vol = CurrVol;	/* Current drive */
2160:fatfs/ff.c    **** #else
2161:fatfs/ff.c    **** 		vol = 0;		/* Drive 0 */
 795              		.loc 1 2161 0
 796 003a 0023     		movs	r3, #0
 797 003c 07E0     		b	.L59
 798              	.LVL113:
 799              	.L64:
2120:fatfs/ff.c    **** #if _STR_VOLUME_ID		/* Find string drive id */
 800              		.loc 1 2120 0
 801 003e 0123     		movs	r3, #1
 802              	.LVL114:
 803 0040 5B42     		rsbs	r3, r3, #0
 804 0042 04E0     		b	.L59
 805              	.LVL115:
 806              	.L65:
 807 0044 0123     		movs	r3, #1
 808              	.LVL116:
 809 0046 5B42     		rsbs	r3, r3, #0
 810 0048 01E0     		b	.L59
 811              	.LVL117:
 812              	.L66:
 813 004a 0123     		movs	r3, #1
 814              	.LVL118:
 815 004c 5B42     		rsbs	r3, r3, #0
 816              	.LVL119:
 817              	.L59:
2162:fatfs/ff.c    **** #endif
2163:fatfs/ff.c    **** 	}
2164:fatfs/ff.c    **** 	return vol;
2165:fatfs/ff.c    **** }
 818              		.loc 1 2165 0
 819 004e 1800     		movs	r0, r3
 820              	.LVL120:
 821              		@ sp needed
 822 0050 10BD     		pop	{r4, pc}
 823              		.cfi_endproc
 824              	.LFE24:
 825              		.size	get_ldnumber, .-get_ldnumber
 826 0052 C046     		.section	.text.sync_window,"ax",%progbits
 827              		.align	2
 828              		.code	16
 829              		.thumb_func
 830              		.type	sync_window, %function
 831              	sync_window:
 832              	.LFB4:
 703:fatfs/ff.c    **** 	DWORD wsect;
 833              		.loc 1 703 0
 834              		.cfi_startproc
 835              		@ args = 0, pretend = 0, frame = 0
 836              		@ frame_needed = 0, uses_anonymous_args = 0
 837              	.LVL121:
 838 0000 F8B5     		push	{r3, r4, r5, r6, r7, lr}
 839              		.cfi_def_cfa_offset 24
 840              		.cfi_offset 3, -24
 841              		.cfi_offset 4, -20
ARM GAS  C:\Users\DMYTRO~1.FED\AppData\Local\Temp\ccikP2CY.s 			page 54


 842              		.cfi_offset 5, -16
 843              		.cfi_offset 6, -12
 844              		.cfi_offset 7, -8
 845              		.cfi_offset 14, -4
 846 0002 0400     		movs	r4, r0
 847              	.LVL122:
 709:fatfs/ff.c    **** 		wsect = fs->winsect;	/* Current sector number */
 848              		.loc 1 709 0
 849 0004 0379     		ldrb	r3, [r0, #4]
 850 0006 002B     		cmp	r3, #0
 851 0008 21D0     		beq	.L71
 710:fatfs/ff.c    **** 		if (disk_write(fs->drv, fs->win, wsect, 1) != RES_OK) {
 852              		.loc 1 710 0
 853 000a 056B     		ldr	r5, [r0, #48]
 854              	.LVL123:
 711:fatfs/ff.c    **** 			res = FR_DISK_ERR;
 855              		.loc 1 711 0
 856 000c 0700     		movs	r7, r0
 857 000e 3437     		adds	r7, r7, #52
 858 0010 4078     		ldrb	r0, [r0, #1]
 859              	.LVL124:
 860 0012 0123     		movs	r3, #1
 861 0014 2A00     		movs	r2, r5
 862 0016 3900     		movs	r1, r7
 863 0018 FFF7FEFF 		bl	disk_write
 864              	.LVL125:
 865 001c 0028     		cmp	r0, #0
 866 001e 18D1     		bne	.L72
 714:fatfs/ff.c    **** 			if (wsect - fs->fatbase < fs->fsize) {		/* Is it in the FAT area? */
 867              		.loc 1 714 0
 868 0020 0023     		movs	r3, #0
 869 0022 2371     		strb	r3, [r4, #4]
 715:fatfs/ff.c    **** 				for (nf = fs->n_fats; nf >= 2; nf--) {	/* Reflect the change to all FAT copies */
 870              		.loc 1 715 0
 871 0024 636A     		ldr	r3, [r4, #36]
 872 0026 EB1A     		subs	r3, r5, r3
 873 0028 E269     		ldr	r2, [r4, #28]
 874 002a 9342     		cmp	r3, r2
 875 002c 13D2     		bcs	.L73
 716:fatfs/ff.c    **** 					wsect += fs->fsize;
 876              		.loc 1 716 0
 877 002e E678     		ldrb	r6, [r4, #3]
 878              	.LVL126:
 879 0030 09E0     		b	.L69
 880              	.L70:
 717:fatfs/ff.c    **** 					disk_write(fs->drv, fs->win, wsect, 1);
 881              		.loc 1 717 0 discriminator 3
 882 0032 E369     		ldr	r3, [r4, #28]
 883 0034 9C46     		mov	ip, r3
 884 0036 6544     		add	r5, r5, ip
 885              	.LVL127:
 718:fatfs/ff.c    **** 				}
 886              		.loc 1 718 0 discriminator 3
 887 0038 6078     		ldrb	r0, [r4, #1]
 888 003a 0123     		movs	r3, #1
 889 003c 2A00     		movs	r2, r5
 890 003e 3900     		movs	r1, r7
ARM GAS  C:\Users\DMYTRO~1.FED\AppData\Local\Temp\ccikP2CY.s 			page 55


 891 0040 FFF7FEFF 		bl	disk_write
 892              	.LVL128:
 716:fatfs/ff.c    **** 					wsect += fs->fsize;
 893              		.loc 1 716 0 discriminator 3
 894 0044 013E     		subs	r6, r6, #1
 895              	.LVL129:
 896              	.L69:
 716:fatfs/ff.c    **** 					wsect += fs->fsize;
 897              		.loc 1 716 0 is_stmt 0 discriminator 1
 898 0046 012E     		cmp	r6, #1
 899 0048 F3D8     		bhi	.L70
 706:fatfs/ff.c    **** 
 900              		.loc 1 706 0 is_stmt 1
 901 004a 0020     		movs	r0, #0
 902 004c 04E0     		b	.L68
 903              	.LVL130:
 904              	.L71:
 905 004e 0020     		movs	r0, #0
 906              	.LVL131:
 907 0050 02E0     		b	.L68
 908              	.LVL132:
 909              	.L72:
 712:fatfs/ff.c    **** 		} else {
 910              		.loc 1 712 0
 911 0052 0120     		movs	r0, #1
 912 0054 00E0     		b	.L68
 913              	.L73:
 706:fatfs/ff.c    **** 
 914              		.loc 1 706 0
 915 0056 0020     		movs	r0, #0
 916              	.LVL133:
 917              	.L68:
 724:fatfs/ff.c    **** #endif
 918              		.loc 1 724 0
 919              		@ sp needed
 920              	.LVL134:
 921 0058 F8BD     		pop	{r3, r4, r5, r6, r7, pc}
 922              		.cfi_endproc
 923              	.LFE4:
 924              		.size	sync_window, .-sync_window
 925 005a C046     		.section	.text.move_window,"ax",%progbits
 926              		.align	2
 927              		.code	16
 928              		.thumb_func
 929              		.type	move_window, %function
 930              	move_window:
 931              	.LFB5:
 733:fatfs/ff.c    **** 	FRESULT res = FR_OK;
 932              		.loc 1 733 0
 933              		.cfi_startproc
 934              		@ args = 0, pretend = 0, frame = 0
 935              		@ frame_needed = 0, uses_anonymous_args = 0
 936              	.LVL135:
 937 0000 70B5     		push	{r4, r5, r6, lr}
 938              		.cfi_def_cfa_offset 16
 939              		.cfi_offset 4, -16
 940              		.cfi_offset 5, -12
ARM GAS  C:\Users\DMYTRO~1.FED\AppData\Local\Temp\ccikP2CY.s 			page 56


 941              		.cfi_offset 6, -8
 942              		.cfi_offset 14, -4
 943 0002 0500     		movs	r5, r0
 944 0004 0E00     		movs	r6, r1
 945              	.LVL136:
 737:fatfs/ff.c    **** #if !_FS_READONLY
 946              		.loc 1 737 0
 947 0006 036B     		ldr	r3, [r0, #48]
 948 0008 8B42     		cmp	r3, r1
 949 000a 11D0     		beq	.L77
 739:fatfs/ff.c    **** #endif
 950              		.loc 1 739 0
 951 000c FFF7FEFF 		bl	sync_window
 952              	.LVL137:
 953 0010 041E     		subs	r4, r0, #0
 954              	.LVL138:
 741:fatfs/ff.c    **** 			if (disk_read(fs->drv, fs->win, sector, 1) != RES_OK) {
 955              		.loc 1 741 0
 956 0012 0ED1     		bne	.L75
 742:fatfs/ff.c    **** 				sector = 0xFFFFFFFF;	/* Invalidate window if data is not reliable */
 957              		.loc 1 742 0
 958 0014 2900     		movs	r1, r5
 959 0016 3431     		adds	r1, r1, #52
 960 0018 6878     		ldrb	r0, [r5, #1]
 961              	.LVL139:
 962 001a 0123     		movs	r3, #1
 963 001c 3200     		movs	r2, r6
 964 001e FFF7FEFF 		bl	disk_read
 965              	.LVL140:
 966 0022 0028     		cmp	r0, #0
 967 0024 02D0     		beq	.L76
 744:fatfs/ff.c    **** 			}
 968              		.loc 1 744 0
 969 0026 0134     		adds	r4, r4, #1
 970              	.LVL141:
 743:fatfs/ff.c    **** 				res = FR_DISK_ERR;
 971              		.loc 1 743 0
 972 0028 0126     		movs	r6, #1
 973              	.LVL142:
 974 002a 7642     		rsbs	r6, r6, #0
 975              	.LVL143:
 976              	.L76:
 746:fatfs/ff.c    **** 		}
 977              		.loc 1 746 0
 978 002c 2E63     		str	r6, [r5, #48]
 979 002e 00E0     		b	.L75
 980              	.LVL144:
 981              	.L77:
 734:fatfs/ff.c    **** 
 982              		.loc 1 734 0
 983 0030 0024     		movs	r4, #0
 984              	.LVL145:
 985              	.L75:
 750:fatfs/ff.c    **** 
 986              		.loc 1 750 0
 987 0032 2000     		movs	r0, r4
 988              		@ sp needed
ARM GAS  C:\Users\DMYTRO~1.FED\AppData\Local\Temp\ccikP2CY.s 			page 57


 989              	.LVL146:
 990              	.LVL147:
 991              	.LVL148:
 992 0034 70BD     		pop	{r4, r5, r6, pc}
 993              		.cfi_endproc
 994              	.LFE5:
 995              		.size	move_window, .-move_window
 996 0036 C046     		.section	.text.check_fs,"ax",%progbits
 997              		.align	2
 998              		.code	16
 999              		.thumb_func
 1000              		.type	check_fs, %function
 1001              	check_fs:
 1002              	.LFB25:
2166:fatfs/ff.c    **** 
2167:fatfs/ff.c    **** 
2168:fatfs/ff.c    **** 
2169:fatfs/ff.c    **** 
2170:fatfs/ff.c    **** /*-----------------------------------------------------------------------*/
2171:fatfs/ff.c    **** /* Load a sector and check if it is an FAT boot sector                   */
2172:fatfs/ff.c    **** /*-----------------------------------------------------------------------*/
2173:fatfs/ff.c    **** 
2174:fatfs/ff.c    **** static
2175:fatfs/ff.c    **** BYTE check_fs (	/* 0:Valid FAT-BS, 1:Valid BS but not FAT, 2:Not a BS, 3:Disk error */
2176:fatfs/ff.c    **** 	FATFS* fs,	/* File system object */
2177:fatfs/ff.c    **** 	DWORD sect	/* Sector# (lba) to check if it is an FAT boot record or not */
2178:fatfs/ff.c    **** )
2179:fatfs/ff.c    **** {
 1003              		.loc 1 2179 0
 1004              		.cfi_startproc
 1005              		@ args = 0, pretend = 0, frame = 0
 1006              		@ frame_needed = 0, uses_anonymous_args = 0
 1007              	.LVL149:
 1008 0000 10B5     		push	{r4, lr}
 1009              		.cfi_def_cfa_offset 8
 1010              		.cfi_offset 4, -8
 1011              		.cfi_offset 14, -4
 1012 0002 0400     		movs	r4, r0
2180:fatfs/ff.c    **** 	fs->wflag = 0; fs->winsect = 0xFFFFFFFF;	/* Invaidate window */
 1013              		.loc 1 2180 0
 1014 0004 0023     		movs	r3, #0
 1015 0006 0371     		strb	r3, [r0, #4]
 1016 0008 013B     		subs	r3, r3, #1
 1017 000a 0363     		str	r3, [r0, #48]
2181:fatfs/ff.c    **** 	if (move_window(fs, sect) != FR_OK)			/* Load boot record */
 1018              		.loc 1 2181 0
 1019 000c FFF7FEFF 		bl	move_window
 1020              	.LVL150:
 1021 0010 0028     		cmp	r0, #0
 1022 0012 32D1     		bne	.L81
2182:fatfs/ff.c    **** 		return 3;
2183:fatfs/ff.c    **** 
2184:fatfs/ff.c    **** 	if (LD_WORD(&fs->win[BS_55AA]) != 0xAA55)	/* Check boot record signature (always placed at offset 
 1023              		.loc 1 2184 0
 1024 0014 1D4B     		ldr	r3, .L85
 1025 0016 E35C     		ldrb	r3, [r4, r3]
 1026 0018 1B02     		lsls	r3, r3, #8
ARM GAS  C:\Users\DMYTRO~1.FED\AppData\Local\Temp\ccikP2CY.s 			page 58


 1027 001a 1D4A     		ldr	r2, .L85+4
 1028 001c A25C     		ldrb	r2, [r4, r2]
 1029 001e 1343     		orrs	r3, r2
 1030 0020 1BB2     		sxth	r3, r3
 1031 0022 1C4A     		ldr	r2, .L85+8
 1032 0024 9342     		cmp	r3, r2
 1033 0026 2AD1     		bne	.L82
2185:fatfs/ff.c    **** 		return 2;
2186:fatfs/ff.c    **** 
2187:fatfs/ff.c    **** 	if ((LD_DWORD(&fs->win[BS_FilSysType]) & 0xFFFFFF) == 0x544146)		/* Check "FAT" string */
 1034              		.loc 1 2187 0
 1035 0028 6D23     		movs	r3, #109
 1036 002a E25C     		ldrb	r2, [r4, r3]
 1037 002c 1106     		lsls	r1, r2, #24
 1038 002e 013B     		subs	r3, r3, #1
 1039 0030 E25C     		ldrb	r2, [r4, r3]
 1040 0032 1304     		lsls	r3, r2, #16
 1041 0034 0A00     		movs	r2, r1
 1042 0036 1A43     		orrs	r2, r3
 1043 0038 6B23     		movs	r3, #107
 1044 003a E35C     		ldrb	r3, [r4, r3]
 1045 003c 1B02     		lsls	r3, r3, #8
 1046 003e 1343     		orrs	r3, r2
 1047 0040 6A22     		movs	r2, #106
 1048 0042 A25C     		ldrb	r2, [r4, r2]
 1049 0044 1343     		orrs	r3, r2
 1050 0046 1B02     		lsls	r3, r3, #8
 1051 0048 1B0A     		lsrs	r3, r3, #8
 1052 004a 134A     		ldr	r2, .L85+12
 1053 004c 9342     		cmp	r3, r2
 1054 004e 18D0     		beq	.L83
2188:fatfs/ff.c    **** 		return 0;
2189:fatfs/ff.c    **** 	if ((LD_DWORD(&fs->win[BS_FilSysType32]) & 0xFFFFFF) == 0x544146)	/* Check "FAT" string */
 1055              		.loc 1 2189 0
 1056 0050 8923     		movs	r3, #137
 1057 0052 E25C     		ldrb	r2, [r4, r3]
 1058 0054 1106     		lsls	r1, r2, #24
 1059 0056 013B     		subs	r3, r3, #1
 1060 0058 E25C     		ldrb	r2, [r4, r3]
 1061 005a 1304     		lsls	r3, r2, #16
 1062 005c 0A00     		movs	r2, r1
 1063 005e 1A43     		orrs	r2, r3
 1064 0060 8723     		movs	r3, #135
 1065 0062 E35C     		ldrb	r3, [r4, r3]
 1066 0064 1B02     		lsls	r3, r3, #8
 1067 0066 1343     		orrs	r3, r2
 1068 0068 8622     		movs	r2, #134
 1069 006a A25C     		ldrb	r2, [r4, r2]
 1070 006c 1343     		orrs	r3, r2
 1071 006e 1B02     		lsls	r3, r3, #8
 1072 0070 1B0A     		lsrs	r3, r3, #8
 1073 0072 094A     		ldr	r2, .L85+12
 1074 0074 9342     		cmp	r3, r2
 1075 0076 06D1     		bne	.L84
 1076 0078 06E0     		b	.L80
 1077              	.L81:
2182:fatfs/ff.c    **** 
ARM GAS  C:\Users\DMYTRO~1.FED\AppData\Local\Temp\ccikP2CY.s 			page 59


 1078              		.loc 1 2182 0
 1079 007a 0320     		movs	r0, #3
 1080 007c 04E0     		b	.L80
 1081              	.L82:
2185:fatfs/ff.c    **** 		return 2;
 1082              		.loc 1 2185 0
 1083 007e 0220     		movs	r0, #2
 1084 0080 02E0     		b	.L80
 1085              	.L83:
2188:fatfs/ff.c    **** 		return 0;
 1086              		.loc 1 2188 0
 1087 0082 0020     		movs	r0, #0
 1088 0084 00E0     		b	.L80
 1089              	.L84:
2190:fatfs/ff.c    **** 		return 0;
2191:fatfs/ff.c    **** 
2192:fatfs/ff.c    **** 	return 1;
 1090              		.loc 1 2192 0
 1091 0086 0120     		movs	r0, #1
 1092              	.L80:
2193:fatfs/ff.c    **** }
 1093              		.loc 1 2193 0
 1094              		@ sp needed
 1095              	.LVL151:
 1096 0088 10BD     		pop	{r4, pc}
 1097              	.L86:
 1098 008a C046     		.align	2
 1099              	.L85:
 1100 008c 33020000 		.word	563
 1101 0090 32020000 		.word	562
 1102 0094 55AAFFFF 		.word	-21931
 1103 0098 46415400 		.word	5521734
 1104              		.cfi_endproc
 1105              	.LFE25:
 1106              		.size	check_fs, .-check_fs
 1107              		.section	.text.validate,"ax",%progbits
 1108              		.align	2
 1109              		.code	16
 1110              		.thumb_func
 1111              		.type	validate, %function
 1112              	validate:
 1113              	.LFB27:
2194:fatfs/ff.c    **** 
2195:fatfs/ff.c    **** 
2196:fatfs/ff.c    **** 
2197:fatfs/ff.c    **** 
2198:fatfs/ff.c    **** /*-----------------------------------------------------------------------*/
2199:fatfs/ff.c    **** /* Find logical drive and check if the volume is mounted                 */
2200:fatfs/ff.c    **** /*-----------------------------------------------------------------------*/
2201:fatfs/ff.c    **** 
2202:fatfs/ff.c    **** static
2203:fatfs/ff.c    **** FRESULT find_volume (	/* FR_OK(0): successful, !=0: any error occurred */
2204:fatfs/ff.c    **** 	FATFS** rfs,		/* Pointer to pointer to the found file system object */
2205:fatfs/ff.c    **** 	const TCHAR** path,	/* Pointer to pointer to the path name (drive number) */
2206:fatfs/ff.c    **** 	BYTE wmode			/* !=0: Check write protection for write access */
2207:fatfs/ff.c    **** )
2208:fatfs/ff.c    **** {
ARM GAS  C:\Users\DMYTRO~1.FED\AppData\Local\Temp\ccikP2CY.s 			page 60


2209:fatfs/ff.c    **** 	BYTE fmt, *pt;
2210:fatfs/ff.c    **** 	int vol;
2211:fatfs/ff.c    **** 	DSTATUS stat;
2212:fatfs/ff.c    **** 	DWORD bsect, fasize, tsect, sysect, nclst, szbfat, br[4];
2213:fatfs/ff.c    **** 	WORD nrsv;
2214:fatfs/ff.c    **** 	FATFS *fs;
2215:fatfs/ff.c    **** 	UINT i;
2216:fatfs/ff.c    **** 
2217:fatfs/ff.c    **** 
2218:fatfs/ff.c    **** 	/* Get logical drive number from the path name */
2219:fatfs/ff.c    **** 	*rfs = 0;
2220:fatfs/ff.c    **** 	vol = get_ldnumber(path);
2221:fatfs/ff.c    **** 	if (vol < 0) return FR_INVALID_DRIVE;
2222:fatfs/ff.c    **** 
2223:fatfs/ff.c    **** 	/* Check if the file system object is valid or not */
2224:fatfs/ff.c    **** 	fs = FatFs[vol];					/* Get pointer to the file system object */
2225:fatfs/ff.c    **** 	if (!fs) return FR_NOT_ENABLED;		/* Is the file system object available? */
2226:fatfs/ff.c    **** 
2227:fatfs/ff.c    **** 	ENTER_FF(fs);						/* Lock the volume */
2228:fatfs/ff.c    **** 	*rfs = fs;							/* Return pointer to the file system object */
2229:fatfs/ff.c    **** 
2230:fatfs/ff.c    **** 	if (fs->fs_type) {					/* If the volume has been mounted */
2231:fatfs/ff.c    **** 		stat = disk_status(fs->drv);
2232:fatfs/ff.c    **** 		if (!(stat & STA_NOINIT)) {		/* and the physical drive is kept initialized */
2233:fatfs/ff.c    **** 			if (!_FS_READONLY && wmode && (stat & STA_PROTECT))	/* Check write protection if needed */
2234:fatfs/ff.c    **** 				return FR_WRITE_PROTECTED;
2235:fatfs/ff.c    **** 			return FR_OK;				/* The file system object is valid */
2236:fatfs/ff.c    **** 		}
2237:fatfs/ff.c    **** 	}
2238:fatfs/ff.c    **** 
2239:fatfs/ff.c    **** 	/* The file system object is not valid. */
2240:fatfs/ff.c    **** 	/* Following code attempts to mount the volume. (analyze BPB and initialize the fs object) */
2241:fatfs/ff.c    **** 
2242:fatfs/ff.c    **** 	fs->fs_type = 0;					/* Clear the file system object */
2243:fatfs/ff.c    **** 	fs->drv = LD2PD(vol);				/* Bind the logical drive and a physical drive */
2244:fatfs/ff.c    **** 	stat = disk_initialize(fs->drv);	/* Initialize the physical drive */
2245:fatfs/ff.c    **** 	if (stat & STA_NOINIT)				/* Check if the initialization succeeded */
2246:fatfs/ff.c    **** 		return FR_NOT_READY;			/* Failed to initialize due to no medium or hard error */
2247:fatfs/ff.c    **** 	if (!_FS_READONLY && wmode && (stat & STA_PROTECT))	/* Check disk write protection if needed */
2248:fatfs/ff.c    **** 		return FR_WRITE_PROTECTED;
2249:fatfs/ff.c    **** #if _MAX_SS != _MIN_SS						/* Get sector size (multiple sector size cfg only) */
2250:fatfs/ff.c    **** 	if (disk_ioctl(fs->drv, GET_SECTOR_SIZE, &SS(fs)) != RES_OK
2251:fatfs/ff.c    **** 		|| SS(fs) < _MIN_SS || SS(fs) > _MAX_SS) return FR_DISK_ERR;
2252:fatfs/ff.c    **** #endif
2253:fatfs/ff.c    **** 	/* Find an FAT partition on the drive. Supports only generic partitioning, FDISK and SFD. */
2254:fatfs/ff.c    **** 	bsect = 0;
2255:fatfs/ff.c    **** 	fmt = check_fs(fs, bsect);					/* Load sector 0 and check if it is an FAT boot sector as SFD */
2256:fatfs/ff.c    **** 	if (fmt == 1 || (!fmt && (LD2PT(vol)))) {	/* Not an FAT boot sector or forced partition number */
2257:fatfs/ff.c    **** 		for (i = 0; i < 4; i++) {			/* Get partition offset */
2258:fatfs/ff.c    **** 			pt = fs->win + MBR_Table + i * SZ_PTE;
2259:fatfs/ff.c    **** 			br[i] = pt[4] ? LD_DWORD(&pt[8]) : 0;
2260:fatfs/ff.c    **** 		}
2261:fatfs/ff.c    **** 		i = LD2PT(vol);						/* Partition number: 0:auto, 1-4:forced */
2262:fatfs/ff.c    **** 		if (i) i--;
2263:fatfs/ff.c    **** 		do {								/* Find an FAT volume */
2264:fatfs/ff.c    **** 			bsect = br[i];
2265:fatfs/ff.c    **** 			fmt = bsect ? check_fs(fs, bsect) : 2;	/* Check the partition */
ARM GAS  C:\Users\DMYTRO~1.FED\AppData\Local\Temp\ccikP2CY.s 			page 61


2266:fatfs/ff.c    **** 		} while (!LD2PT(vol) && fmt && ++i < 4);
2267:fatfs/ff.c    **** 	}
2268:fatfs/ff.c    **** 	if (fmt == 3) return FR_DISK_ERR;		/* An error occured in the disk I/O layer */
2269:fatfs/ff.c    **** 	if (fmt) return FR_NO_FILESYSTEM;		/* No FAT volume is found */
2270:fatfs/ff.c    **** 
2271:fatfs/ff.c    **** 	/* An FAT volume is found. Following code initializes the file system object */
2272:fatfs/ff.c    **** 
2273:fatfs/ff.c    **** 	if (LD_WORD(fs->win + BPB_BytsPerSec) != SS(fs))	/* (BPB_BytsPerSec must be equal to the physical 
2274:fatfs/ff.c    **** 		return FR_NO_FILESYSTEM;
2275:fatfs/ff.c    **** 
2276:fatfs/ff.c    **** 	fasize = LD_WORD(fs->win + BPB_FATSz16);			/* Number of sectors per FAT */
2277:fatfs/ff.c    **** 	if (!fasize) fasize = LD_DWORD(fs->win + BPB_FATSz32);
2278:fatfs/ff.c    **** 	fs->fsize = fasize;
2279:fatfs/ff.c    **** 
2280:fatfs/ff.c    **** 	fs->n_fats = fs->win[BPB_NumFATs];					/* Number of FAT copies */
2281:fatfs/ff.c    **** 	if (fs->n_fats != 1 && fs->n_fats != 2)				/* (Must be 1 or 2) */
2282:fatfs/ff.c    **** 		return FR_NO_FILESYSTEM;
2283:fatfs/ff.c    **** 	fasize *= fs->n_fats;								/* Number of sectors for FAT area */
2284:fatfs/ff.c    **** 
2285:fatfs/ff.c    **** 	fs->csize = fs->win[BPB_SecPerClus];				/* Number of sectors per cluster */
2286:fatfs/ff.c    **** 	if (!fs->csize || (fs->csize & (fs->csize - 1)))	/* (Must be power of 2) */
2287:fatfs/ff.c    **** 		return FR_NO_FILESYSTEM;
2288:fatfs/ff.c    **** 
2289:fatfs/ff.c    **** 	fs->n_rootdir = LD_WORD(fs->win + BPB_RootEntCnt);	/* Number of root directory entries */
2290:fatfs/ff.c    **** 	if (fs->n_rootdir % (SS(fs) / SZ_DIRE))				/* (Must be sector aligned) */
2291:fatfs/ff.c    **** 		return FR_NO_FILESYSTEM;
2292:fatfs/ff.c    **** 
2293:fatfs/ff.c    **** 	tsect = LD_WORD(fs->win + BPB_TotSec16);			/* Number of sectors on the volume */
2294:fatfs/ff.c    **** 	if (!tsect) tsect = LD_DWORD(fs->win + BPB_TotSec32);
2295:fatfs/ff.c    **** 
2296:fatfs/ff.c    **** 	nrsv = LD_WORD(fs->win + BPB_RsvdSecCnt);			/* Number of reserved sectors */
2297:fatfs/ff.c    **** 	if (!nrsv) return FR_NO_FILESYSTEM;					/* (Must not be 0) */
2298:fatfs/ff.c    **** 
2299:fatfs/ff.c    **** 	/* Determine the FAT sub type */
2300:fatfs/ff.c    **** 	sysect = nrsv + fasize + fs->n_rootdir / (SS(fs) / SZ_DIRE);	/* RSV + FAT + DIR */
2301:fatfs/ff.c    **** 	if (tsect < sysect) return FR_NO_FILESYSTEM;		/* (Invalid volume size) */
2302:fatfs/ff.c    **** 	nclst = (tsect - sysect) / fs->csize;				/* Number of clusters */
2303:fatfs/ff.c    **** 	if (!nclst) return FR_NO_FILESYSTEM;				/* (Invalid volume size) */
2304:fatfs/ff.c    **** 	fmt = FS_FAT12;
2305:fatfs/ff.c    **** 	if (nclst >= MIN_FAT16) fmt = FS_FAT16;
2306:fatfs/ff.c    **** 	if (nclst >= MIN_FAT32) fmt = FS_FAT32;
2307:fatfs/ff.c    **** 
2308:fatfs/ff.c    **** 	/* Boundaries and Limits */
2309:fatfs/ff.c    **** 	fs->n_fatent = nclst + 2;							/* Number of FAT entries */
2310:fatfs/ff.c    **** 	fs->volbase = bsect;								/* Volume start sector */
2311:fatfs/ff.c    **** 	fs->fatbase = bsect + nrsv; 						/* FAT start sector */
2312:fatfs/ff.c    **** 	fs->database = bsect + sysect;						/* Data start sector */
2313:fatfs/ff.c    **** 	if (fmt == FS_FAT32) {
2314:fatfs/ff.c    **** 		if (fs->n_rootdir) return FR_NO_FILESYSTEM;		/* (BPB_RootEntCnt must be 0) */
2315:fatfs/ff.c    **** 		fs->dirbase = LD_DWORD(fs->win + BPB_RootClus);	/* Root directory start cluster */
2316:fatfs/ff.c    **** 		szbfat = fs->n_fatent * 4;						/* (Needed FAT size) */
2317:fatfs/ff.c    **** 	} else {
2318:fatfs/ff.c    **** 		if (!fs->n_rootdir)	return FR_NO_FILESYSTEM;	/* (BPB_RootEntCnt must not be 0) */
2319:fatfs/ff.c    **** 		fs->dirbase = fs->fatbase + fasize;				/* Root directory start sector */
2320:fatfs/ff.c    **** 		szbfat = (fmt == FS_FAT16) ?					/* (Needed FAT size) */
2321:fatfs/ff.c    **** 			fs->n_fatent * 2 : fs->n_fatent * 3 / 2 + (fs->n_fatent & 1);
2322:fatfs/ff.c    **** 	}
ARM GAS  C:\Users\DMYTRO~1.FED\AppData\Local\Temp\ccikP2CY.s 			page 62


2323:fatfs/ff.c    **** 	if (fs->fsize < (szbfat + (SS(fs) - 1)) / SS(fs))	/* (BPB_FATSz must not be less than the size nee
2324:fatfs/ff.c    **** 		return FR_NO_FILESYSTEM;
2325:fatfs/ff.c    **** 
2326:fatfs/ff.c    **** #if !_FS_READONLY
2327:fatfs/ff.c    **** 	/* Initialize cluster allocation information */
2328:fatfs/ff.c    **** 	fs->last_clust = fs->free_clust = 0xFFFFFFFF;
2329:fatfs/ff.c    **** 
2330:fatfs/ff.c    **** 	/* Get fsinfo if available */
2331:fatfs/ff.c    **** 	fs->fsi_flag = 0x80;
2332:fatfs/ff.c    **** #if (_FS_NOFSINFO & 3) != 3
2333:fatfs/ff.c    **** 	if (fmt == FS_FAT32				/* Enable FSINFO only if FAT32 and BPB_FSInfo == 1 */
2334:fatfs/ff.c    **** 		&& LD_WORD(fs->win + BPB_FSInfo) == 1
2335:fatfs/ff.c    **** 		&& move_window(fs, bsect + 1) == FR_OK)
2336:fatfs/ff.c    **** 	{
2337:fatfs/ff.c    **** 		fs->fsi_flag = 0;
2338:fatfs/ff.c    **** 		if (LD_WORD(fs->win + BS_55AA) == 0xAA55	/* Load FSINFO data if available */
2339:fatfs/ff.c    **** 			&& LD_DWORD(fs->win + FSI_LeadSig) == 0x41615252
2340:fatfs/ff.c    **** 			&& LD_DWORD(fs->win + FSI_StrucSig) == 0x61417272)
2341:fatfs/ff.c    **** 		{
2342:fatfs/ff.c    **** #if (_FS_NOFSINFO & 1) == 0
2343:fatfs/ff.c    **** 			fs->free_clust = LD_DWORD(fs->win + FSI_Free_Count);
2344:fatfs/ff.c    **** #endif
2345:fatfs/ff.c    **** #if (_FS_NOFSINFO & 2) == 0
2346:fatfs/ff.c    **** 			fs->last_clust = LD_DWORD(fs->win + FSI_Nxt_Free);
2347:fatfs/ff.c    **** #endif
2348:fatfs/ff.c    **** 		}
2349:fatfs/ff.c    **** 	}
2350:fatfs/ff.c    **** #endif
2351:fatfs/ff.c    **** #endif
2352:fatfs/ff.c    **** 	fs->fs_type = fmt;	/* FAT sub-type */
2353:fatfs/ff.c    **** 	fs->id = ++Fsid;	/* File system mount ID */
2354:fatfs/ff.c    **** #if _FS_RPATH
2355:fatfs/ff.c    **** 	fs->cdir = 0;		/* Set current directory to root */
2356:fatfs/ff.c    **** #endif
2357:fatfs/ff.c    **** #if _FS_LOCK			/* Clear file lock semaphores */
2358:fatfs/ff.c    **** 	clear_lock(fs);
2359:fatfs/ff.c    **** #endif
2360:fatfs/ff.c    **** 
2361:fatfs/ff.c    **** 	return FR_OK;
2362:fatfs/ff.c    **** }
2363:fatfs/ff.c    **** 
2364:fatfs/ff.c    **** 
2365:fatfs/ff.c    **** 
2366:fatfs/ff.c    **** 
2367:fatfs/ff.c    **** /*-----------------------------------------------------------------------*/
2368:fatfs/ff.c    **** /* Check if the file/directory object is valid or not                    */
2369:fatfs/ff.c    **** /*-----------------------------------------------------------------------*/
2370:fatfs/ff.c    **** 
2371:fatfs/ff.c    **** static
2372:fatfs/ff.c    **** FRESULT validate (	/* FR_OK(0): The object is valid, !=0: Invalid */
2373:fatfs/ff.c    **** 	void* obj		/* Pointer to the object FIL/DIR to check validity */
2374:fatfs/ff.c    **** )
2375:fatfs/ff.c    **** {
 1114              		.loc 1 2375 0
 1115              		.cfi_startproc
 1116              		@ args = 0, pretend = 0, frame = 0
 1117              		@ frame_needed = 0, uses_anonymous_args = 0
ARM GAS  C:\Users\DMYTRO~1.FED\AppData\Local\Temp\ccikP2CY.s 			page 63


 1118              	.LVL152:
 1119 0000 10B5     		push	{r4, lr}
 1120              		.cfi_def_cfa_offset 8
 1121              		.cfi_offset 4, -8
 1122              		.cfi_offset 14, -4
 1123              	.LVL153:
2376:fatfs/ff.c    **** 	FIL *fil = (FIL*)obj;	/* Assuming offset of .fs and .id in the FIL/DIR structure is identical */
2377:fatfs/ff.c    **** 
2378:fatfs/ff.c    **** 
2379:fatfs/ff.c    **** 	if (!fil || !fil->fs || !fil->fs->fs_type || fil->fs->id != fil->id || (disk_status(fil->fs->drv) 
 1124              		.loc 1 2379 0
 1125 0002 0028     		cmp	r0, #0
 1126 0004 10D0     		beq	.L89
 1127              		.loc 1 2379 0 is_stmt 0 discriminator 1
 1128 0006 0368     		ldr	r3, [r0]
 1129 0008 002B     		cmp	r3, #0
 1130 000a 0FD0     		beq	.L90
 1131              		.loc 1 2379 0 discriminator 2
 1132 000c 1A78     		ldrb	r2, [r3]
 1133 000e 002A     		cmp	r2, #0
 1134 0010 0ED0     		beq	.L91
 1135              		.loc 1 2379 0 discriminator 3
 1136 0012 D988     		ldrh	r1, [r3, #6]
 1137 0014 8288     		ldrh	r2, [r0, #4]
 1138 0016 9142     		cmp	r1, r2
 1139 0018 0CD1     		bne	.L92
 1140              		.loc 1 2379 0 discriminator 4
 1141 001a 5878     		ldrb	r0, [r3, #1]
 1142              	.LVL154:
 1143 001c FFF7FEFF 		bl	disk_status
 1144              	.LVL155:
 1145 0020 C307     		lsls	r3, r0, #31
 1146 0022 09D4     		bmi	.L93
2380:fatfs/ff.c    **** 		return FR_INVALID_OBJECT;
2381:fatfs/ff.c    **** 
2382:fatfs/ff.c    **** 	ENTER_FF(fil->fs);		/* Lock file system */
2383:fatfs/ff.c    **** 
2384:fatfs/ff.c    **** 	return FR_OK;
 1147              		.loc 1 2384 0 is_stmt 1
 1148 0024 0020     		movs	r0, #0
 1149 0026 08E0     		b	.L88
 1150              	.LVL156:
 1151              	.L89:
2380:fatfs/ff.c    **** 		return FR_INVALID_OBJECT;
 1152              		.loc 1 2380 0
 1153 0028 0920     		movs	r0, #9
 1154              	.LVL157:
 1155 002a 06E0     		b	.L88
 1156              	.LVL158:
 1157              	.L90:
 1158 002c 0920     		movs	r0, #9
 1159              	.LVL159:
 1160 002e 04E0     		b	.L88
 1161              	.LVL160:
 1162              	.L91:
 1163 0030 0920     		movs	r0, #9
 1164              	.LVL161:
ARM GAS  C:\Users\DMYTRO~1.FED\AppData\Local\Temp\ccikP2CY.s 			page 64


 1165 0032 02E0     		b	.L88
 1166              	.LVL162:
 1167              	.L92:
 1168 0034 0920     		movs	r0, #9
 1169              	.LVL163:
 1170 0036 00E0     		b	.L88
 1171              	.L93:
 1172 0038 0920     		movs	r0, #9
 1173              	.L88:
2385:fatfs/ff.c    **** }
 1174              		.loc 1 2385 0
 1175              		@ sp needed
 1176 003a 10BD     		pop	{r4, pc}
 1177              		.cfi_endproc
 1178              	.LFE27:
 1179              		.size	validate, .-validate
 1180              		.global	__aeabi_uidiv
 1181              		.section	.text.find_volume,"ax",%progbits
 1182              		.align	2
 1183              		.code	16
 1184              		.thumb_func
 1185              		.type	find_volume, %function
 1186              	find_volume:
 1187              	.LFB26:
2208:fatfs/ff.c    **** 	BYTE fmt, *pt;
 1188              		.loc 1 2208 0
 1189              		.cfi_startproc
 1190              		@ args = 0, pretend = 0, frame = 16
 1191              		@ frame_needed = 0, uses_anonymous_args = 0
 1192              	.LVL164:
 1193 0000 F0B5     		push	{r4, r5, r6, r7, lr}
 1194              		.cfi_def_cfa_offset 20
 1195              		.cfi_offset 4, -20
 1196              		.cfi_offset 5, -16
 1197              		.cfi_offset 6, -12
 1198              		.cfi_offset 7, -8
 1199              		.cfi_offset 14, -4
 1200 0002 5F46     		mov	r7, fp
 1201 0004 5646     		mov	r6, r10
 1202 0006 4D46     		mov	r5, r9
 1203 0008 4446     		mov	r4, r8
 1204 000a F0B4     		push	{r4, r5, r6, r7}
 1205              		.cfi_def_cfa_offset 36
 1206              		.cfi_offset 8, -36
 1207              		.cfi_offset 9, -32
 1208              		.cfi_offset 10, -28
 1209              		.cfi_offset 11, -24
 1210 000c 85B0     		sub	sp, sp, #20
 1211              		.cfi_def_cfa_offset 56
 1212 000e 0700     		movs	r7, r0
 1213 0010 1600     		movs	r6, r2
2219:fatfs/ff.c    **** 	vol = get_ldnumber(path);
 1214              		.loc 1 2219 0
 1215 0012 0023     		movs	r3, #0
 1216 0014 0360     		str	r3, [r0]
2220:fatfs/ff.c    **** 	if (vol < 0) return FR_INVALID_DRIVE;
 1217              		.loc 1 2220 0
ARM GAS  C:\Users\DMYTRO~1.FED\AppData\Local\Temp\ccikP2CY.s 			page 65


 1218 0016 0800     		movs	r0, r1
 1219              	.LVL165:
 1220 0018 FFF7FEFF 		bl	get_ldnumber
 1221              	.LVL166:
 1222 001c 041E     		subs	r4, r0, #0
 1223              	.LVL167:
2221:fatfs/ff.c    **** 
 1224              		.loc 1 2221 0
 1225 001e 00DA     		bge	.LCB1344
 1226 0020 8EE1     		b	.L112	@long jump
 1227              	.LCB1344:
2224:fatfs/ff.c    **** 	if (!fs) return FR_NOT_ENABLED;		/* Is the file system object available? */
 1228              		.loc 1 2224 0
 1229 0022 8300     		lsls	r3, r0, #2
 1230 0024 D24A     		ldr	r2, .L136
 1231 0026 9D58     		ldr	r5, [r3, r2]
 1232              	.LVL168:
2225:fatfs/ff.c    **** 
 1233              		.loc 1 2225 0
 1234 0028 002D     		cmp	r5, #0
 1235 002a 00D1     		bne	.LCB1350
 1236 002c 8AE1     		b	.L113	@long jump
 1237              	.LCB1350:
2228:fatfs/ff.c    **** 
 1238              		.loc 1 2228 0
 1239 002e 3D60     		str	r5, [r7]
2230:fatfs/ff.c    **** 		stat = disk_status(fs->drv);
 1240              		.loc 1 2230 0
 1241 0030 2B78     		ldrb	r3, [r5]
 1242 0032 002B     		cmp	r3, #0
 1243 0034 0CD0     		beq	.L96
2231:fatfs/ff.c    **** 		if (!(stat & STA_NOINIT)) {		/* and the physical drive is kept initialized */
 1244              		.loc 1 2231 0
 1245 0036 6878     		ldrb	r0, [r5, #1]
 1246              	.LVL169:
 1247 0038 FFF7FEFF 		bl	disk_status
 1248              	.LVL170:
2232:fatfs/ff.c    **** 			if (!_FS_READONLY && wmode && (stat & STA_PROTECT))	/* Check write protection if needed */
 1249              		.loc 1 2232 0
 1250 003c C307     		lsls	r3, r0, #31
 1251 003e 07D4     		bmi	.L96
2233:fatfs/ff.c    **** 				return FR_WRITE_PROTECTED;
 1252              		.loc 1 2233 0
 1253 0040 002E     		cmp	r6, #0
 1254 0042 00D1     		bne	.LCB1366
 1255 0044 80E1     		b	.L114	@long jump
 1256              	.LCB1366:
2233:fatfs/ff.c    **** 				return FR_WRITE_PROTECTED;
 1257              		.loc 1 2233 0 is_stmt 0 discriminator 1
 1258 0046 4307     		lsls	r3, r0, #29
 1259 0048 00D5     		bpl	.LCB1371
 1260 004a 7FE1     		b	.L115	@long jump
 1261              	.LCB1371:
2235:fatfs/ff.c    **** 		}
 1262              		.loc 1 2235 0 is_stmt 1
 1263 004c 0020     		movs	r0, #0
 1264              	.LVL171:
ARM GAS  C:\Users\DMYTRO~1.FED\AppData\Local\Temp\ccikP2CY.s 			page 66


 1265 004e C0E1     		b	.L95
 1266              	.L96:
2242:fatfs/ff.c    **** 	fs->drv = LD2PD(vol);				/* Bind the logical drive and a physical drive */
 1267              		.loc 1 2242 0
 1268 0050 0023     		movs	r3, #0
 1269 0052 2B70     		strb	r3, [r5]
2243:fatfs/ff.c    **** 	stat = disk_initialize(fs->drv);	/* Initialize the physical drive */
 1270              		.loc 1 2243 0
 1271 0054 E0B2     		uxtb	r0, r4
 1272 0056 6870     		strb	r0, [r5, #1]
2244:fatfs/ff.c    **** 	if (stat & STA_NOINIT)				/* Check if the initialization succeeded */
 1273              		.loc 1 2244 0
 1274 0058 FFF7FEFF 		bl	disk_initialize
 1275              	.LVL172:
2245:fatfs/ff.c    **** 		return FR_NOT_READY;			/* Failed to initialize due to no medium or hard error */
 1276              		.loc 1 2245 0
 1277 005c C307     		lsls	r3, r0, #31
 1278 005e 00D5     		bpl	.LCB1390
 1279 0060 76E1     		b	.L116	@long jump
 1280              	.LCB1390:
2247:fatfs/ff.c    **** 		return FR_WRITE_PROTECTED;
 1281              		.loc 1 2247 0
 1282 0062 002E     		cmp	r6, #0
 1283 0064 02D0     		beq	.L97
2247:fatfs/ff.c    **** 		return FR_WRITE_PROTECTED;
 1284              		.loc 1 2247 0 is_stmt 0 discriminator 1
 1285 0066 4307     		lsls	r3, r0, #29
 1286 0068 00D5     		bpl	.LCB1397
 1287 006a 73E1     		b	.L117	@long jump
 1288              	.LCB1397:
 1289              	.L97:
 1290              	.LVL173:
2255:fatfs/ff.c    **** 	if (fmt == 1 || (!fmt && (LD2PT(vol)))) {	/* Not an FAT boot sector or forced partition number */
 1291              		.loc 1 2255 0 is_stmt 1
 1292 006c 0021     		movs	r1, #0
 1293 006e 2800     		movs	r0, r5
 1294              	.LVL174:
 1295 0070 FFF7FEFF 		bl	check_fs
 1296              	.LVL175:
2256:fatfs/ff.c    **** 		for (i = 0; i < 4; i++) {			/* Get partition offset */
 1297              		.loc 1 2256 0
 1298 0074 0128     		cmp	r0, #1
 1299 0076 1CD0     		beq	.L118
2254:fatfs/ff.c    **** 	fmt = check_fs(fs, bsect);					/* Load sector 0 and check if it is an FAT boot sector as SFD */
 1300              		.loc 1 2254 0
 1301 0078 0026     		movs	r6, #0
 1302 007a 2EE0     		b	.L99
 1303              	.LVL176:
 1304              	.L101:
2258:fatfs/ff.c    **** 			br[i] = pt[4] ? LD_DWORD(&pt[8]) : 0;
 1305              		.loc 1 2258 0
 1306 007c 2800     		movs	r0, r5
 1307 007e 3430     		adds	r0, r0, #52
 1308 0080 0B01     		lsls	r3, r1, #4
 1309 0082 BF33     		adds	r3, r3, #191
 1310 0084 FF33     		adds	r3, r3, #255
 1311 0086 1A00     		movs	r2, r3
ARM GAS  C:\Users\DMYTRO~1.FED\AppData\Local\Temp\ccikP2CY.s 			page 67


 1312 0088 8318     		adds	r3, r0, r2
 1313              	.LVL177:
2259:fatfs/ff.c    **** 		}
 1314              		.loc 1 2259 0
 1315 008a 1A79     		ldrb	r2, [r3, #4]
 1316 008c 002A     		cmp	r2, #0
 1317 008e 0AD0     		beq	.L119
2259:fatfs/ff.c    **** 		}
 1318              		.loc 1 2259 0 is_stmt 0 discriminator 1
 1319 0090 D87A     		ldrb	r0, [r3, #11]
 1320 0092 0006     		lsls	r0, r0, #24
 1321 0094 9A7A     		ldrb	r2, [r3, #10]
 1322 0096 1204     		lsls	r2, r2, #16
 1323 0098 1043     		orrs	r0, r2
 1324 009a 5A7A     		ldrb	r2, [r3, #9]
 1325 009c 1202     		lsls	r2, r2, #8
 1326 009e 0243     		orrs	r2, r0
 1327 00a0 1B7A     		ldrb	r3, [r3, #8]
 1328              	.LVL178:
 1329 00a2 1A43     		orrs	r2, r3
 1330 00a4 00E0     		b	.L100
 1331              	.LVL179:
 1332              	.L119:
2259:fatfs/ff.c    **** 		}
 1333              		.loc 1 2259 0
 1334 00a6 0022     		movs	r2, #0
 1335              	.LVL180:
 1336              	.L100:
2259:fatfs/ff.c    **** 		}
 1337              		.loc 1 2259 0 discriminator 4
 1338 00a8 8B00     		lsls	r3, r1, #2
 1339 00aa 6846     		mov	r0, sp
 1340 00ac 1A50     		str	r2, [r3, r0]
2257:fatfs/ff.c    **** 			pt = fs->win + MBR_Table + i * SZ_PTE;
 1341              		.loc 1 2257 0 is_stmt 1 discriminator 4
 1342 00ae 0131     		adds	r1, r1, #1
 1343              	.LVL181:
 1344 00b0 00E0     		b	.L98
 1345              	.LVL182:
 1346              	.L118:
 1347 00b2 0021     		movs	r1, #0
 1348              	.LVL183:
 1349              	.L98:
2257:fatfs/ff.c    **** 			pt = fs->win + MBR_Table + i * SZ_PTE;
 1350              		.loc 1 2257 0 is_stmt 0 discriminator 2
 1351 00b4 0329     		cmp	r1, #3
 1352 00b6 E1D9     		bls	.L101
 1353 00b8 0024     		movs	r4, #0
 1354              	.LVL184:
 1355              	.L103:
2264:fatfs/ff.c    **** 			fmt = bsect ? check_fs(fs, bsect) : 2;	/* Check the partition */
 1356              		.loc 1 2264 0 is_stmt 1
 1357 00ba A300     		lsls	r3, r4, #2
 1358 00bc 6A46     		mov	r2, sp
 1359 00be 9E58     		ldr	r6, [r3, r2]
 1360              	.LVL185:
2265:fatfs/ff.c    **** 		} while (!LD2PT(vol) && fmt && ++i < 4);
ARM GAS  C:\Users\DMYTRO~1.FED\AppData\Local\Temp\ccikP2CY.s 			page 68


 1361              		.loc 1 2265 0
 1362 00c0 002E     		cmp	r6, #0
 1363 00c2 04D0     		beq	.L120
2265:fatfs/ff.c    **** 		} while (!LD2PT(vol) && fmt && ++i < 4);
 1364              		.loc 1 2265 0 is_stmt 0 discriminator 1
 1365 00c4 3100     		movs	r1, r6
 1366 00c6 2800     		movs	r0, r5
 1367 00c8 FFF7FEFF 		bl	check_fs
 1368              	.LVL186:
 1369 00cc 00E0     		b	.L102
 1370              	.L120:
2265:fatfs/ff.c    **** 		} while (!LD2PT(vol) && fmt && ++i < 4);
 1371              		.loc 1 2265 0
 1372 00ce 0220     		movs	r0, #2
 1373              	.L102:
 1374              	.LVL187:
2266:fatfs/ff.c    **** 	}
 1375              		.loc 1 2266 0 is_stmt 1 discriminator 4
 1376 00d0 0028     		cmp	r0, #0
 1377 00d2 02D0     		beq	.L99
2266:fatfs/ff.c    **** 	}
 1378              		.loc 1 2266 0 is_stmt 0 discriminator 1
 1379 00d4 0134     		adds	r4, r4, #1
 1380              	.LVL188:
 1381 00d6 032C     		cmp	r4, #3
 1382 00d8 EFD9     		bls	.L103
 1383              	.LVL189:
 1384              	.L99:
2268:fatfs/ff.c    **** 	if (fmt) return FR_NO_FILESYSTEM;		/* No FAT volume is found */
 1385              		.loc 1 2268 0 is_stmt 1
 1386 00da 0328     		cmp	r0, #3
 1387 00dc 00D1     		bne	.LCB1513
 1388 00de 3BE1     		b	.L121	@long jump
 1389              	.LCB1513:
2269:fatfs/ff.c    **** 
 1390              		.loc 1 2269 0
 1391 00e0 0028     		cmp	r0, #0
 1392 00e2 00D0     		beq	.LCB1515
 1393 00e4 3AE1     		b	.L122	@long jump
 1394              	.LCB1515:
2273:fatfs/ff.c    **** 		return FR_NO_FILESYSTEM;
 1395              		.loc 1 2273 0
 1396 00e6 4023     		movs	r3, #64
 1397 00e8 EB5C     		ldrb	r3, [r5, r3]
 1398 00ea 1B02     		lsls	r3, r3, #8
 1399 00ec 3F22     		movs	r2, #63
 1400 00ee AA5C     		ldrb	r2, [r5, r2]
 1401 00f0 1343     		orrs	r3, r2
 1402 00f2 1BB2     		sxth	r3, r3
 1403 00f4 8022     		movs	r2, #128
 1404 00f6 9200     		lsls	r2, r2, #2
 1405 00f8 9342     		cmp	r3, r2
 1406 00fa 00D0     		beq	.LCB1526
 1407 00fc 30E1     		b	.L123	@long jump
 1408              	.LCB1526:
2276:fatfs/ff.c    **** 	if (!fasize) fasize = LD_DWORD(fs->win + BPB_FATSz32);
 1409              		.loc 1 2276 0
ARM GAS  C:\Users\DMYTRO~1.FED\AppData\Local\Temp\ccikP2CY.s 			page 69


 1410 00fe 4B23     		movs	r3, #75
 1411 0100 EC5C     		ldrb	r4, [r5, r3]
 1412 0102 2302     		lsls	r3, r4, #8
 1413 0104 B73A     		subs	r2, r2, #183
 1414 0106 FF3A     		subs	r2, r2, #255
 1415 0108 AC5C     		ldrb	r4, [r5, r2]
 1416 010a 1C43     		orrs	r4, r3
 1417              	.LVL190:
2277:fatfs/ff.c    **** 	fs->fsize = fasize;
 1418              		.loc 1 2277 0
 1419 010c 0ED1     		bne	.L104
2277:fatfs/ff.c    **** 	fs->fsize = fasize;
 1420              		.loc 1 2277 0 is_stmt 0 discriminator 1
 1421 010e 5B23     		movs	r3, #91
 1422 0110 EA5C     		ldrb	r2, [r5, r3]
 1423 0112 1206     		lsls	r2, r2, #24
 1424 0114 013B     		subs	r3, r3, #1
 1425 0116 EB5C     		ldrb	r3, [r5, r3]
 1426 0118 1B04     		lsls	r3, r3, #16
 1427 011a 1A43     		orrs	r2, r3
 1428 011c 5923     		movs	r3, #89
 1429 011e EC5C     		ldrb	r4, [r5, r3]
 1430              	.LVL191:
 1431 0120 2402     		lsls	r4, r4, #8
 1432 0122 2300     		movs	r3, r4
 1433 0124 1343     		orrs	r3, r2
 1434 0126 5822     		movs	r2, #88
 1435 0128 AC5C     		ldrb	r4, [r5, r2]
 1436 012a 1C43     		orrs	r4, r3
 1437              	.LVL192:
 1438              	.L104:
2278:fatfs/ff.c    **** 
 1439              		.loc 1 2278 0 is_stmt 1
 1440 012c EC61     		str	r4, [r5, #28]
2280:fatfs/ff.c    **** 	if (fs->n_fats != 1 && fs->n_fats != 2)				/* (Must be 1 or 2) */
 1441              		.loc 1 2280 0
 1442 012e 4423     		movs	r3, #68
 1443 0130 EA5C     		ldrb	r2, [r5, r3]
 1444 0132 EA70     		strb	r2, [r5, #3]
2281:fatfs/ff.c    **** 		return FR_NO_FILESYSTEM;
 1445              		.loc 1 2281 0
 1446 0134 531E     		subs	r3, r2, #1
 1447 0136 DBB2     		uxtb	r3, r3
 1448 0138 012B     		cmp	r3, #1
 1449 013a 00D9     		bls	.LCB1566
 1450 013c 12E1     		b	.L124	@long jump
 1451              	.LCB1566:
2283:fatfs/ff.c    **** 
 1452              		.loc 1 2283 0
 1453 013e 6243     		muls	r2, r4
 1454 0140 9046     		mov	r8, r2
 1455              	.LVL193:
2285:fatfs/ff.c    **** 	if (!fs->csize || (fs->csize & (fs->csize - 1)))	/* (Must be power of 2) */
 1456              		.loc 1 2285 0
 1457 0142 4123     		movs	r3, #65
 1458 0144 E95C     		ldrb	r1, [r5, r3]
 1459 0146 A970     		strb	r1, [r5, #2]
ARM GAS  C:\Users\DMYTRO~1.FED\AppData\Local\Temp\ccikP2CY.s 			page 70


2286:fatfs/ff.c    **** 		return FR_NO_FILESYSTEM;
 1460              		.loc 1 2286 0
 1461 0148 0029     		cmp	r1, #0
 1462 014a 00D1     		bne	.LCB1575
 1463 014c 0CE1     		b	.L125	@long jump
 1464              	.LCB1575:
2286:fatfs/ff.c    **** 		return FR_NO_FILESYSTEM;
 1465              		.loc 1 2286 0 is_stmt 0 discriminator 1
 1466 014e 4B1E     		subs	r3, r1, #1
 1467 0150 0B42     		tst	r3, r1
 1468 0152 00D0     		beq	.LCB1579
 1469 0154 0AE1     		b	.L126	@long jump
 1470              	.LCB1579:
2289:fatfs/ff.c    **** 	if (fs->n_rootdir % (SS(fs) / SZ_DIRE))				/* (Must be sector aligned) */
 1471              		.loc 1 2289 0 is_stmt 1
 1472 0156 4623     		movs	r3, #70
 1473 0158 EB5C     		ldrb	r3, [r5, r3]
 1474 015a 1B02     		lsls	r3, r3, #8
 1475 015c 4522     		movs	r2, #69
 1476              	.LVL194:
 1477 015e AA5C     		ldrb	r2, [r5, r2]
 1478 0160 1343     		orrs	r3, r2
 1479 0162 9946     		mov	r9, r3
 1480 0164 2B81     		strh	r3, [r5, #8]
2290:fatfs/ff.c    **** 		return FR_NO_FILESYSTEM;
 1481              		.loc 1 2290 0
 1482 0166 1B07     		lsls	r3, r3, #28
 1483 0168 00D0     		beq	.LCB1594
 1484 016a 25E1     		b	.L127	@long jump
 1485              	.LCB1594:
2293:fatfs/ff.c    **** 	if (!tsect) tsect = LD_DWORD(fs->win + BPB_TotSec32);
 1486              		.loc 1 2293 0
 1487 016c 4823     		movs	r3, #72
 1488 016e E85C     		ldrb	r0, [r5, r3]
 1489              	.LVL195:
 1490 0170 0302     		lsls	r3, r0, #8
 1491 0172 4722     		movs	r2, #71
 1492 0174 A85C     		ldrb	r0, [r5, r2]
 1493 0176 1843     		orrs	r0, r3
 1494              	.LVL196:
2294:fatfs/ff.c    **** 
 1495              		.loc 1 2294 0
 1496 0178 0ED1     		bne	.L105
2294:fatfs/ff.c    **** 
 1497              		.loc 1 2294 0 is_stmt 0 discriminator 1
 1498 017a 5723     		movs	r3, #87
 1499 017c EA5C     		ldrb	r2, [r5, r3]
 1500 017e 1206     		lsls	r2, r2, #24
 1501 0180 013B     		subs	r3, r3, #1
 1502 0182 EB5C     		ldrb	r3, [r5, r3]
 1503 0184 1B04     		lsls	r3, r3, #16
 1504 0186 1A43     		orrs	r2, r3
 1505 0188 5523     		movs	r3, #85
 1506 018a E85C     		ldrb	r0, [r5, r3]
 1507              	.LVL197:
 1508 018c 0002     		lsls	r0, r0, #8
 1509 018e 0300     		movs	r3, r0
ARM GAS  C:\Users\DMYTRO~1.FED\AppData\Local\Temp\ccikP2CY.s 			page 71


 1510 0190 1343     		orrs	r3, r2
 1511 0192 5422     		movs	r2, #84
 1512 0194 A85C     		ldrb	r0, [r5, r2]
 1513 0196 1843     		orrs	r0, r3
 1514              	.LVL198:
 1515              	.L105:
2296:fatfs/ff.c    **** 	if (!nrsv) return FR_NO_FILESYSTEM;					/* (Must not be 0) */
 1516              		.loc 1 2296 0 is_stmt 1
 1517 0198 4323     		movs	r3, #67
 1518 019a EF5C     		ldrb	r7, [r5, r3]
 1519              	.LVL199:
 1520 019c 3B02     		lsls	r3, r7, #8
 1521 019e 4222     		movs	r2, #66
 1522 01a0 AF5C     		ldrb	r7, [r5, r2]
 1523 01a2 1F43     		orrs	r7, r3
 1524              	.LVL200:
2297:fatfs/ff.c    **** 
 1525              		.loc 1 2297 0
 1526 01a4 00D1     		bne	.LCB1638
 1527 01a6 09E1     		b	.L128	@long jump
 1528              	.LCB1638:
2300:fatfs/ff.c    **** 	if (tsect < sysect) return FR_NO_FILESYSTEM;		/* (Invalid volume size) */
 1529              		.loc 1 2300 0
 1530 01a8 4346     		mov	r3, r8
 1531 01aa DB19     		adds	r3, r3, r7
 1532 01ac 4A46     		mov	r2, r9
 1533 01ae 1209     		lsrs	r2, r2, #4
 1534 01b0 9B46     		mov	fp, r3
 1535 01b2 9344     		add	fp, fp, r2
 1536              	.LVL201:
2301:fatfs/ff.c    **** 	nclst = (tsect - sysect) / fs->csize;				/* Number of clusters */
 1537              		.loc 1 2301 0
 1538 01b4 5845     		cmp	r0, fp
 1539 01b6 00D2     		bcs	.LCB1649
 1540 01b8 02E1     		b	.L129	@long jump
 1541              	.LCB1649:
2302:fatfs/ff.c    **** 	if (!nclst) return FR_NO_FILESYSTEM;				/* (Invalid volume size) */
 1542              		.loc 1 2302 0
 1543 01ba 5B46     		mov	r3, fp
 1544 01bc C01A     		subs	r0, r0, r3
 1545              	.LVL202:
 1546 01be FFF7FEFF 		bl	__aeabi_uidiv
 1547              	.LVL203:
2303:fatfs/ff.c    **** 	fmt = FS_FAT12;
 1548              		.loc 1 2303 0
 1549 01c2 0028     		cmp	r0, #0
 1550 01c4 00D1     		bne	.LCB1657
 1551 01c6 FDE0     		b	.L130	@long jump
 1552              	.LCB1657:
 1553              	.LVL204:
2305:fatfs/ff.c    **** 	if (nclst >= MIN_FAT32) fmt = FS_FAT32;
 1554              		.loc 1 2305 0
 1555 01c8 6A4B     		ldr	r3, .L136+4
 1556 01ca 9842     		cmp	r0, r3
 1557 01cc 02D8     		bhi	.L131
2304:fatfs/ff.c    **** 	if (nclst >= MIN_FAT16) fmt = FS_FAT16;
 1558              		.loc 1 2304 0
ARM GAS  C:\Users\DMYTRO~1.FED\AppData\Local\Temp\ccikP2CY.s 			page 72


 1559 01ce 0123     		movs	r3, #1
 1560 01d0 9A46     		mov	r10, r3
 1561 01d2 01E0     		b	.L106
 1562              	.L131:
2305:fatfs/ff.c    **** 	if (nclst >= MIN_FAT32) fmt = FS_FAT32;
 1563              		.loc 1 2305 0
 1564 01d4 0223     		movs	r3, #2
 1565 01d6 9A46     		mov	r10, r3
 1566              	.L106:
 1567              	.LVL205:
2306:fatfs/ff.c    **** 
 1568              		.loc 1 2306 0
 1569 01d8 674B     		ldr	r3, .L136+8
 1570 01da 9842     		cmp	r0, r3
 1571 01dc 01D9     		bls	.L107
 1572 01de 0323     		movs	r3, #3
 1573 01e0 9A46     		mov	r10, r3
 1574              	.LVL206:
 1575              	.L107:
2309:fatfs/ff.c    **** 	fs->volbase = bsect;								/* Volume start sector */
 1576              		.loc 1 2309 0
 1577 01e2 0230     		adds	r0, r0, #2
 1578              	.LVL207:
 1579 01e4 A861     		str	r0, [r5, #24]
2310:fatfs/ff.c    **** 	fs->fatbase = bsect + nrsv; 						/* FAT start sector */
 1580              		.loc 1 2310 0
 1581 01e6 2E62     		str	r6, [r5, #32]
2311:fatfs/ff.c    **** 	fs->database = bsect + sysect;						/* Data start sector */
 1582              		.loc 1 2311 0
 1583 01e8 F719     		adds	r7, r6, r7
 1584              	.LVL208:
 1585 01ea 6F62     		str	r7, [r5, #36]
2312:fatfs/ff.c    **** 	if (fmt == FS_FAT32) {
 1586              		.loc 1 2312 0
 1587 01ec 5B46     		mov	r3, fp
 1588 01ee F318     		adds	r3, r6, r3
 1589 01f0 EB62     		str	r3, [r5, #44]
2313:fatfs/ff.c    **** 		if (fs->n_rootdir) return FR_NO_FILESYSTEM;		/* (BPB_RootEntCnt must be 0) */
 1590              		.loc 1 2313 0
 1591 01f2 5346     		mov	r3, r10
 1592 01f4 032B     		cmp	r3, #3
 1593 01f6 15D1     		bne	.L108
2314:fatfs/ff.c    **** 		fs->dirbase = LD_DWORD(fs->win + BPB_RootClus);	/* Root directory start cluster */
 1594              		.loc 1 2314 0
 1595 01f8 4B46     		mov	r3, r9
 1596 01fa 002B     		cmp	r3, #0
 1597 01fc 00D0     		beq	.LCB1698
 1598 01fe E3E0     		b	.L133	@long jump
 1599              	.LCB1698:
2315:fatfs/ff.c    **** 		szbfat = fs->n_fatent * 4;						/* (Needed FAT size) */
 1600              		.loc 1 2315 0
 1601 0200 6333     		adds	r3, r3, #99
 1602 0202 EA5C     		ldrb	r2, [r5, r3]
 1603 0204 1106     		lsls	r1, r2, #24
 1604 0206 013B     		subs	r3, r3, #1
 1605 0208 EA5C     		ldrb	r2, [r5, r3]
 1606 020a 1304     		lsls	r3, r2, #16
ARM GAS  C:\Users\DMYTRO~1.FED\AppData\Local\Temp\ccikP2CY.s 			page 73


 1607 020c 0A00     		movs	r2, r1
 1608 020e 1A43     		orrs	r2, r3
 1609 0210 6123     		movs	r3, #97
 1610 0212 EB5C     		ldrb	r3, [r5, r3]
 1611 0214 1B02     		lsls	r3, r3, #8
 1612 0216 1343     		orrs	r3, r2
 1613 0218 6022     		movs	r2, #96
 1614 021a AA5C     		ldrb	r2, [r5, r2]
 1615 021c 1343     		orrs	r3, r2
 1616 021e AB62     		str	r3, [r5, #40]
2316:fatfs/ff.c    **** 	} else {
 1617              		.loc 1 2316 0
 1618 0220 8000     		lsls	r0, r0, #2
 1619              	.LVL209:
 1620 0222 10E0     		b	.L109
 1621              	.LVL210:
 1622              	.L108:
2318:fatfs/ff.c    **** 		fs->dirbase = fs->fatbase + fasize;				/* Root directory start sector */
 1623              		.loc 1 2318 0
 1624 0224 4B46     		mov	r3, r9
 1625 0226 002B     		cmp	r3, #0
 1626 0228 00D1     		bne	.LCB1726
 1627 022a CFE0     		b	.L134	@long jump
 1628              	.LCB1726:
2319:fatfs/ff.c    **** 		szbfat = (fmt == FS_FAT16) ?					/* (Needed FAT size) */
 1629              		.loc 1 2319 0
 1630 022c 4744     		add	r7, r7, r8
 1631 022e AF62     		str	r7, [r5, #40]
2321:fatfs/ff.c    **** 	}
 1632              		.loc 1 2321 0
 1633 0230 5346     		mov	r3, r10
 1634 0232 022B     		cmp	r3, #2
 1635 0234 01D1     		bne	.L110
2321:fatfs/ff.c    **** 	}
 1636              		.loc 1 2321 0 is_stmt 0 discriminator 1
 1637 0236 4000     		lsls	r0, r0, #1
 1638              	.LVL211:
 1639 0238 05E0     		b	.L109
 1640              	.LVL212:
 1641              	.L110:
2321:fatfs/ff.c    **** 	}
 1642              		.loc 1 2321 0 discriminator 2
 1643 023a 0323     		movs	r3, #3
 1644 023c 4343     		muls	r3, r0
 1645 023e 5B08     		lsrs	r3, r3, #1
 1646 0240 0122     		movs	r2, #1
 1647 0242 1040     		ands	r0, r2
 1648              	.LVL213:
 1649 0244 1818     		adds	r0, r3, r0
 1650              	.L109:
 1651              	.LVL214:
2323:fatfs/ff.c    **** 		return FR_NO_FILESYSTEM;
 1652              		.loc 1 2323 0 is_stmt 1
 1653 0246 4D4B     		ldr	r3, .L136+12
 1654 0248 9C46     		mov	ip, r3
 1655 024a 6044     		add	r0, r0, ip
 1656              	.LVL215:
ARM GAS  C:\Users\DMYTRO~1.FED\AppData\Local\Temp\ccikP2CY.s 			page 74


 1657 024c 400A     		lsrs	r0, r0, #9
 1658              	.LVL216:
 1659 024e 8442     		cmp	r4, r0
 1660 0250 00D2     		bcs	.LCB1759
 1661 0252 BDE0     		b	.L135	@long jump
 1662              	.LCB1759:
2328:fatfs/ff.c    **** 
 1663              		.loc 1 2328 0
 1664 0254 0123     		movs	r3, #1
 1665 0256 5B42     		rsbs	r3, r3, #0
 1666 0258 2B61     		str	r3, [r5, #16]
 1667 025a EB60     		str	r3, [r5, #12]
2331:fatfs/ff.c    **** #if (_FS_NOFSINFO & 3) != 3
 1668              		.loc 1 2331 0
 1669 025c 8133     		adds	r3, r3, #129
 1670 025e 6B71     		strb	r3, [r5, #5]
2333:fatfs/ff.c    **** 		&& LD_WORD(fs->win + BPB_FSInfo) == 1
 1671              		.loc 1 2333 0
 1672 0260 5346     		mov	r3, r10
 1673 0262 032B     		cmp	r3, #3
 1674 0264 61D1     		bne	.L111
2334:fatfs/ff.c    **** 		&& move_window(fs, bsect + 1) == FR_OK)
 1675              		.loc 1 2334 0
 1676 0266 6233     		adds	r3, r3, #98
 1677 0268 EB5C     		ldrb	r3, [r5, r3]
 1678 026a 1A02     		lsls	r2, r3, #8
 1679 026c 6423     		movs	r3, #100
 1680 026e EB5C     		ldrb	r3, [r5, r3]
 1681 0270 1343     		orrs	r3, r2
 1682 0272 1BB2     		sxth	r3, r3
 1683 0274 012B     		cmp	r3, #1
 1684 0276 58D1     		bne	.L111
2335:fatfs/ff.c    **** 	{
 1685              		.loc 1 2335 0
 1686 0278 711C     		adds	r1, r6, #1
 1687 027a 2800     		movs	r0, r5
 1688 027c FFF7FEFF 		bl	move_window
 1689              	.LVL217:
 1690 0280 0028     		cmp	r0, #0
 1691 0282 52D1     		bne	.L111
2337:fatfs/ff.c    **** 		if (LD_WORD(fs->win + BS_55AA) == 0xAA55	/* Load FSINFO data if available */
 1692              		.loc 1 2337 0
 1693 0284 0023     		movs	r3, #0
 1694 0286 6B71     		strb	r3, [r5, #5]
2338:fatfs/ff.c    **** 			&& LD_DWORD(fs->win + FSI_LeadSig) == 0x41615252
 1695              		.loc 1 2338 0
 1696 0288 3D4B     		ldr	r3, .L136+16
 1697 028a EB5C     		ldrb	r3, [r5, r3]
 1698 028c 1A02     		lsls	r2, r3, #8
 1699 028e 3D4B     		ldr	r3, .L136+20
 1700 0290 EB5C     		ldrb	r3, [r5, r3]
 1701 0292 1343     		orrs	r3, r2
 1702 0294 1BB2     		sxth	r3, r3
 1703 0296 3C4A     		ldr	r2, .L136+24
 1704 0298 9342     		cmp	r3, r2
 1705 029a 46D1     		bne	.L111
2339:fatfs/ff.c    **** 			&& LD_DWORD(fs->win + FSI_StrucSig) == 0x61417272)
ARM GAS  C:\Users\DMYTRO~1.FED\AppData\Local\Temp\ccikP2CY.s 			page 75


 1706              		.loc 1 2339 0
 1707 029c 3723     		movs	r3, #55
 1708 029e EA5C     		ldrb	r2, [r5, r3]
 1709 02a0 1106     		lsls	r1, r2, #24
 1710 02a2 013B     		subs	r3, r3, #1
 1711 02a4 EA5C     		ldrb	r2, [r5, r3]
 1712 02a6 1304     		lsls	r3, r2, #16
 1713 02a8 0A00     		movs	r2, r1
 1714 02aa 1A43     		orrs	r2, r3
 1715 02ac 3523     		movs	r3, #53
 1716 02ae EB5C     		ldrb	r3, [r5, r3]
 1717 02b0 1B02     		lsls	r3, r3, #8
 1718 02b2 1343     		orrs	r3, r2
 1719 02b4 3422     		movs	r2, #52
 1720 02b6 AA5C     		ldrb	r2, [r5, r2]
 1721 02b8 1343     		orrs	r3, r2
 1722 02ba 344A     		ldr	r2, .L136+28
 1723 02bc 9342     		cmp	r3, r2
 1724 02be 34D1     		bne	.L111
2340:fatfs/ff.c    **** 		{
 1725              		.loc 1 2340 0
 1726 02c0 334B     		ldr	r3, .L136+32
 1727 02c2 EA5C     		ldrb	r2, [r5, r3]
 1728 02c4 1106     		lsls	r1, r2, #24
 1729 02c6 334B     		ldr	r3, .L136+36
 1730 02c8 EA5C     		ldrb	r2, [r5, r3]
 1731 02ca 1304     		lsls	r3, r2, #16
 1732 02cc 0A00     		movs	r2, r1
 1733 02ce 1A43     		orrs	r2, r3
 1734 02d0 314B     		ldr	r3, .L136+40
 1735 02d2 EB5C     		ldrb	r3, [r5, r3]
 1736 02d4 1B02     		lsls	r3, r3, #8
 1737 02d6 1343     		orrs	r3, r2
 1738 02d8 8622     		movs	r2, #134
 1739 02da 9200     		lsls	r2, r2, #2
 1740 02dc AA5C     		ldrb	r2, [r5, r2]
 1741 02de 1343     		orrs	r3, r2
 1742 02e0 2E4A     		ldr	r2, .L136+44
 1743 02e2 9342     		cmp	r3, r2
 1744 02e4 21D1     		bne	.L111
2343:fatfs/ff.c    **** #endif
 1745              		.loc 1 2343 0
 1746 02e6 2E4B     		ldr	r3, .L136+48
 1747 02e8 EA5C     		ldrb	r2, [r5, r3]
 1748 02ea 1106     		lsls	r1, r2, #24
 1749 02ec 2D4B     		ldr	r3, .L136+52
 1750 02ee EA5C     		ldrb	r2, [r5, r3]
 1751 02f0 1304     		lsls	r3, r2, #16
 1752 02f2 0A00     		movs	r2, r1
 1753 02f4 1A43     		orrs	r2, r3
 1754 02f6 2C4B     		ldr	r3, .L136+56
 1755 02f8 EB5C     		ldrb	r3, [r5, r3]
 1756 02fa 1B02     		lsls	r3, r3, #8
 1757 02fc 1343     		orrs	r3, r2
 1758 02fe 8722     		movs	r2, #135
 1759 0300 9200     		lsls	r2, r2, #2
 1760 0302 AA5C     		ldrb	r2, [r5, r2]
ARM GAS  C:\Users\DMYTRO~1.FED\AppData\Local\Temp\ccikP2CY.s 			page 76


 1761 0304 1343     		orrs	r3, r2
 1762 0306 2B61     		str	r3, [r5, #16]
2346:fatfs/ff.c    **** #endif
 1763              		.loc 1 2346 0
 1764 0308 284B     		ldr	r3, .L136+60
 1765 030a EA5C     		ldrb	r2, [r5, r3]
 1766 030c 1106     		lsls	r1, r2, #24
 1767 030e 284B     		ldr	r3, .L136+64
 1768 0310 EA5C     		ldrb	r2, [r5, r3]
 1769 0312 1304     		lsls	r3, r2, #16
 1770 0314 0A00     		movs	r2, r1
 1771 0316 1A43     		orrs	r2, r3
 1772 0318 264B     		ldr	r3, .L136+68
 1773 031a EB5C     		ldrb	r3, [r5, r3]
 1774 031c 1B02     		lsls	r3, r3, #8
 1775 031e 1343     		orrs	r3, r2
 1776 0320 8822     		movs	r2, #136
 1777 0322 9200     		lsls	r2, r2, #2
 1778 0324 AA5C     		ldrb	r2, [r5, r2]
 1779 0326 1343     		orrs	r3, r2
 1780 0328 EB60     		str	r3, [r5, #12]
 1781              	.L111:
2352:fatfs/ff.c    **** 	fs->id = ++Fsid;	/* File system mount ID */
 1782              		.loc 1 2352 0
 1783 032a 5346     		mov	r3, r10
 1784 032c 2B70     		strb	r3, [r5]
2353:fatfs/ff.c    **** #if _FS_RPATH
 1785              		.loc 1 2353 0
 1786 032e 104A     		ldr	r2, .L136
 1787 0330 9388     		ldrh	r3, [r2, #4]
 1788 0332 0133     		adds	r3, r3, #1
 1789 0334 9BB2     		uxth	r3, r3
 1790 0336 9380     		strh	r3, [r2, #4]
 1791 0338 EB80     		strh	r3, [r5, #6]
2355:fatfs/ff.c    **** #endif
 1792              		.loc 1 2355 0
 1793 033a 0020     		movs	r0, #0
 1794 033c 6861     		str	r0, [r5, #20]
2361:fatfs/ff.c    **** }
 1795              		.loc 1 2361 0
 1796 033e 48E0     		b	.L95
 1797              	.LVL218:
 1798              	.L112:
2221:fatfs/ff.c    **** 
 1799              		.loc 1 2221 0
 1800 0340 0B20     		movs	r0, #11
 1801              	.LVL219:
 1802 0342 46E0     		b	.L95
 1803              	.LVL220:
 1804              	.L113:
2225:fatfs/ff.c    **** 
 1805              		.loc 1 2225 0
 1806 0344 0C20     		movs	r0, #12
 1807              	.LVL221:
 1808 0346 44E0     		b	.L95
 1809              	.LVL222:
 1810              	.L114:
ARM GAS  C:\Users\DMYTRO~1.FED\AppData\Local\Temp\ccikP2CY.s 			page 77


2235:fatfs/ff.c    **** 		}
 1811              		.loc 1 2235 0
 1812 0348 0020     		movs	r0, #0
 1813              	.LVL223:
 1814 034a 42E0     		b	.L95
 1815              	.LVL224:
 1816              	.L115:
2234:fatfs/ff.c    **** 			return FR_OK;				/* The file system object is valid */
 1817              		.loc 1 2234 0
 1818 034c 0A20     		movs	r0, #10
 1819              	.LVL225:
 1820 034e 40E0     		b	.L95
 1821              	.LVL226:
 1822              	.L116:
2246:fatfs/ff.c    **** 	if (!_FS_READONLY && wmode && (stat & STA_PROTECT))	/* Check disk write protection if needed */
 1823              		.loc 1 2246 0
 1824 0350 0320     		movs	r0, #3
 1825              	.LVL227:
 1826 0352 3EE0     		b	.L95
 1827              	.LVL228:
 1828              	.L117:
2248:fatfs/ff.c    **** #if _MAX_SS != _MIN_SS						/* Get sector size (multiple sector size cfg only) */
 1829              		.loc 1 2248 0
 1830 0354 0A20     		movs	r0, #10
 1831              	.LVL229:
 1832 0356 3CE0     		b	.L95
 1833              	.LVL230:
 1834              	.L121:
2268:fatfs/ff.c    **** 	if (fmt) return FR_NO_FILESYSTEM;		/* No FAT volume is found */
 1835              		.loc 1 2268 0
 1836 0358 0120     		movs	r0, #1
 1837              	.LVL231:
 1838 035a 3AE0     		b	.L95
 1839              	.LVL232:
 1840              	.L122:
2269:fatfs/ff.c    **** 
 1841              		.loc 1 2269 0
 1842 035c 0D20     		movs	r0, #13
 1843              	.LVL233:
 1844 035e 38E0     		b	.L95
 1845              	.LVL234:
 1846              	.L123:
2274:fatfs/ff.c    **** 
 1847              		.loc 1 2274 0
 1848 0360 0D20     		movs	r0, #13
 1849              	.LVL235:
 1850 0362 36E0     		b	.L95
 1851              	.LVL236:
 1852              	.L124:
2282:fatfs/ff.c    **** 	fasize *= fs->n_fats;								/* Number of sectors for FAT area */
 1853              		.loc 1 2282 0
 1854 0364 0D20     		movs	r0, #13
 1855              	.LVL237:
 1856 0366 34E0     		b	.L95
 1857              	.LVL238:
 1858              	.L125:
2287:fatfs/ff.c    **** 
ARM GAS  C:\Users\DMYTRO~1.FED\AppData\Local\Temp\ccikP2CY.s 			page 78


 1859              		.loc 1 2287 0
 1860 0368 0D20     		movs	r0, #13
 1861              	.LVL239:
 1862 036a 32E0     		b	.L95
 1863              	.LVL240:
 1864              	.L126:
 1865 036c 0D20     		movs	r0, #13
 1866              	.LVL241:
 1867 036e 30E0     		b	.L95
 1868              	.L137:
 1869              		.align	2
 1870              	.L136:
 1871 0370 00000000 		.word	.LANCHOR0
 1872 0374 F50F0000 		.word	4085
 1873 0378 F5FF0000 		.word	65525
 1874 037c FF010000 		.word	511
 1875 0380 33020000 		.word	563
 1876 0384 32020000 		.word	562
 1877 0388 55AAFFFF 		.word	-21931
 1878 038c 52526141 		.word	1096897106
 1879 0390 1B020000 		.word	539
 1880 0394 1A020000 		.word	538
 1881 0398 19020000 		.word	537
 1882 039c 72724161 		.word	1631679090
 1883 03a0 1F020000 		.word	543
 1884 03a4 1E020000 		.word	542
 1885 03a8 1D020000 		.word	541
 1886 03ac 23020000 		.word	547
 1887 03b0 22020000 		.word	546
 1888 03b4 21020000 		.word	545
 1889              	.LVL242:
 1890              	.L127:
2291:fatfs/ff.c    **** 
 1891              		.loc 1 2291 0
 1892 03b8 0D20     		movs	r0, #13
 1893              	.LVL243:
 1894 03ba 0AE0     		b	.L95
 1895              	.LVL244:
 1896              	.L128:
2297:fatfs/ff.c    **** 
 1897              		.loc 1 2297 0
 1898 03bc 0D20     		movs	r0, #13
 1899              	.LVL245:
 1900 03be 08E0     		b	.L95
 1901              	.LVL246:
 1902              	.L129:
2301:fatfs/ff.c    **** 	nclst = (tsect - sysect) / fs->csize;				/* Number of clusters */
 1903              		.loc 1 2301 0
 1904 03c0 0D20     		movs	r0, #13
 1905              	.LVL247:
 1906 03c2 06E0     		b	.L95
 1907              	.LVL248:
 1908              	.L130:
2303:fatfs/ff.c    **** 	fmt = FS_FAT12;
 1909              		.loc 1 2303 0
 1910 03c4 0D20     		movs	r0, #13
 1911              	.LVL249:
ARM GAS  C:\Users\DMYTRO~1.FED\AppData\Local\Temp\ccikP2CY.s 			page 79


 1912 03c6 04E0     		b	.L95
 1913              	.LVL250:
 1914              	.L133:
2314:fatfs/ff.c    **** 		fs->dirbase = LD_DWORD(fs->win + BPB_RootClus);	/* Root directory start cluster */
 1915              		.loc 1 2314 0
 1916 03c8 0D20     		movs	r0, #13
 1917              	.LVL251:
 1918 03ca 02E0     		b	.L95
 1919              	.LVL252:
 1920              	.L134:
2318:fatfs/ff.c    **** 		fs->dirbase = fs->fatbase + fasize;				/* Root directory start sector */
 1921              		.loc 1 2318 0
 1922 03cc 0D20     		movs	r0, #13
 1923              	.LVL253:
 1924 03ce 00E0     		b	.L95
 1925              	.L135:
2324:fatfs/ff.c    **** 
 1926              		.loc 1 2324 0
 1927 03d0 0D20     		movs	r0, #13
 1928              	.LVL254:
 1929              	.L95:
2362:fatfs/ff.c    **** 
 1930              		.loc 1 2362 0
 1931 03d2 05B0     		add	sp, sp, #20
 1932              		@ sp needed
 1933 03d4 3CBC     		pop	{r2, r3, r4, r5}
 1934 03d6 9046     		mov	r8, r2
 1935 03d8 9946     		mov	r9, r3
 1936 03da A246     		mov	r10, r4
 1937 03dc AB46     		mov	fp, r5
 1938 03de F0BD     		pop	{r4, r5, r6, r7, pc}
 1939              		.cfi_endproc
 1940              	.LFE26:
 1941              		.size	find_volume, .-find_volume
 1942              		.section	.text.sync_fs,"ax",%progbits
 1943              		.align	2
 1944              		.code	16
 1945              		.thumb_func
 1946              		.type	sync_fs, %function
 1947              	sync_fs:
 1948              	.LFB6:
 763:fatfs/ff.c    **** 	FRESULT res;
 1949              		.loc 1 763 0
 1950              		.cfi_startproc
 1951              		@ args = 0, pretend = 0, frame = 0
 1952              		@ frame_needed = 0, uses_anonymous_args = 0
 1953              	.LVL255:
 1954 0000 70B5     		push	{r4, r5, r6, lr}
 1955              		.cfi_def_cfa_offset 16
 1956              		.cfi_offset 4, -16
 1957              		.cfi_offset 5, -12
 1958              		.cfi_offset 6, -8
 1959              		.cfi_offset 14, -4
 1960 0002 0500     		movs	r5, r0
 767:fatfs/ff.c    **** 	if (res == FR_OK) {
 1961              		.loc 1 767 0
 1962 0004 FFF7FEFF 		bl	sync_window
ARM GAS  C:\Users\DMYTRO~1.FED\AppData\Local\Temp\ccikP2CY.s 			page 80


 1963              	.LVL256:
 1964 0008 041E     		subs	r4, r0, #0
 1965              	.LVL257:
 768:fatfs/ff.c    **** 		/* Update FSInfo sector if needed */
 1966              		.loc 1 768 0
 1967 000a 53D1     		bne	.L139
 770:fatfs/ff.c    **** 			/* Create FSInfo structure */
 1968              		.loc 1 770 0
 1969 000c 2B78     		ldrb	r3, [r5]
 1970 000e 032B     		cmp	r3, #3
 1971 0010 48D1     		bne	.L140
 770:fatfs/ff.c    **** 			/* Create FSInfo structure */
 1972              		.loc 1 770 0 is_stmt 0 discriminator 1
 1973 0012 6B79     		ldrb	r3, [r5, #5]
 1974 0014 012B     		cmp	r3, #1
 1975 0016 45D1     		bne	.L140
 772:fatfs/ff.c    **** 			ST_WORD(fs->win + BS_55AA, 0xAA55);
 1976              		.loc 1 772 0 is_stmt 1
 1977 0018 2E00     		movs	r6, r5
 1978 001a 3436     		adds	r6, r6, #52
 1979 001c 8022     		movs	r2, #128
 1980 001e 9200     		lsls	r2, r2, #2
 1981 0020 0021     		movs	r1, #0
 1982 0022 3000     		movs	r0, r6
 1983              	.LVL258:
 1984 0024 FFF7FEFF 		bl	mem_set
 1985              	.LVL259:
 773:fatfs/ff.c    **** 			ST_DWORD(fs->win + FSI_LeadSig, 0x41615252);
 1986              		.loc 1 773 0
 1987 0028 5522     		movs	r2, #85
 1988 002a 234B     		ldr	r3, .L142
 1989 002c EA54     		strb	r2, [r5, r3]
 1990 002e 5532     		adds	r2, r2, #85
 1991 0030 224B     		ldr	r3, .L142+4
 1992 0032 EA54     		strb	r2, [r5, r3]
 774:fatfs/ff.c    **** 			ST_DWORD(fs->win + FSI_StrucSig, 0x61417272);
 1993              		.loc 1 774 0
 1994 0034 E23B     		subs	r3, r3, #226
 1995 0036 FF3B     		subs	r3, r3, #255
 1996 0038 763A     		subs	r2, r2, #118
 1997 003a AB54     		strb	r3, [r5, r2]
 1998 003c 0132     		adds	r2, r2, #1
 1999 003e AB54     		strb	r3, [r5, r2]
 2000 0040 0F33     		adds	r3, r3, #15
 2001 0042 0132     		adds	r2, r2, #1
 2002 0044 AB54     		strb	r3, [r5, r2]
 2003 0046 0B32     		adds	r2, r2, #11
 2004 0048 3721     		movs	r1, #55
 2005 004a 6A54     		strb	r2, [r5, r1]
 775:fatfs/ff.c    **** 			ST_DWORD(fs->win + FSI_Free_Count, fs->free_clust);
 2006              		.loc 1 775 0
 2007 004c 3B31     		adds	r1, r1, #59
 2008 004e 8620     		movs	r0, #134
 2009 0050 8000     		lsls	r0, r0, #2
 2010 0052 2954     		strb	r1, [r5, r0]
 2011 0054 1A48     		ldr	r0, .L142+8
 2012 0056 2954     		strb	r1, [r5, r0]
ARM GAS  C:\Users\DMYTRO~1.FED\AppData\Local\Temp\ccikP2CY.s 			page 81


 2013 0058 1A49     		ldr	r1, .L142+12
 2014 005a 6A54     		strb	r2, [r5, r1]
 2015 005c 1A4A     		ldr	r2, .L142+16
 2016 005e AB54     		strb	r3, [r5, r2]
 776:fatfs/ff.c    **** 			ST_DWORD(fs->win + FSI_Nxt_Free, fs->last_clust);
 2017              		.loc 1 776 0
 2018 0060 2B69     		ldr	r3, [r5, #16]
 2019 0062 0132     		adds	r2, r2, #1
 2020 0064 AB54     		strb	r3, [r5, r2]
 2021 0066 1912     		asrs	r1, r3, #8
 2022 0068 184A     		ldr	r2, .L142+20
 2023 006a A954     		strb	r1, [r5, r2]
 2024 006c 190C     		lsrs	r1, r3, #16
 2025 006e 184A     		ldr	r2, .L142+24
 2026 0070 A954     		strb	r1, [r5, r2]
 2027 0072 1B0E     		lsrs	r3, r3, #24
 2028 0074 174A     		ldr	r2, .L142+28
 2029 0076 AB54     		strb	r3, [r5, r2]
 777:fatfs/ff.c    **** 			/* Write it into the FSInfo sector */
 2030              		.loc 1 777 0
 2031 0078 EB68     		ldr	r3, [r5, #12]
 2032 007a 0132     		adds	r2, r2, #1
 2033 007c AB54     		strb	r3, [r5, r2]
 2034 007e 1912     		asrs	r1, r3, #8
 2035 0080 154A     		ldr	r2, .L142+32
 2036 0082 A954     		strb	r1, [r5, r2]
 2037 0084 190C     		lsrs	r1, r3, #16
 2038 0086 154A     		ldr	r2, .L142+36
 2039 0088 A954     		strb	r1, [r5, r2]
 2040 008a 1B0E     		lsrs	r3, r3, #24
 2041 008c 144A     		ldr	r2, .L142+40
 2042 008e AB54     		strb	r3, [r5, r2]
 779:fatfs/ff.c    **** 			disk_write(fs->drv, fs->win, fs->winsect, 1);
 2043              		.loc 1 779 0
 2044 0090 2B6A     		ldr	r3, [r5, #32]
 2045 0092 5A1C     		adds	r2, r3, #1
 2046 0094 2A63     		str	r2, [r5, #48]
 780:fatfs/ff.c    **** 			fs->fsi_flag = 0;
 2047              		.loc 1 780 0
 2048 0096 6878     		ldrb	r0, [r5, #1]
 2049 0098 0123     		movs	r3, #1
 2050 009a 3100     		movs	r1, r6
 2051 009c FFF7FEFF 		bl	disk_write
 2052              	.LVL260:
 781:fatfs/ff.c    **** 		}
 2053              		.loc 1 781 0
 2054 00a0 0023     		movs	r3, #0
 2055 00a2 6B71     		strb	r3, [r5, #5]
 2056              	.L140:
 784:fatfs/ff.c    **** 			res = FR_DISK_ERR;
 2057              		.loc 1 784 0
 2058 00a4 6878     		ldrb	r0, [r5, #1]
 2059 00a6 0022     		movs	r2, #0
 2060 00a8 0021     		movs	r1, #0
 2061 00aa FFF7FEFF 		bl	disk_ioctl
 2062              	.LVL261:
 2063 00ae 0028     		cmp	r0, #0
ARM GAS  C:\Users\DMYTRO~1.FED\AppData\Local\Temp\ccikP2CY.s 			page 82


 2064 00b0 00D0     		beq	.L139
 785:fatfs/ff.c    **** 	}
 2065              		.loc 1 785 0
 2066 00b2 0124     		movs	r4, #1
 2067              	.LVL262:
 2068              	.L139:
 789:fatfs/ff.c    **** #endif
 2069              		.loc 1 789 0
 2070 00b4 2000     		movs	r0, r4
 2071              		@ sp needed
 2072              	.LVL263:
 2073              	.LVL264:
 2074 00b6 70BD     		pop	{r4, r5, r6, pc}
 2075              	.L143:
 2076              		.align	2
 2077              	.L142:
 2078 00b8 32020000 		.word	562
 2079 00bc 33020000 		.word	563
 2080 00c0 19020000 		.word	537
 2081 00c4 1A020000 		.word	538
 2082 00c8 1B020000 		.word	539
 2083 00cc 1D020000 		.word	541
 2084 00d0 1E020000 		.word	542
 2085 00d4 1F020000 		.word	543
 2086 00d8 21020000 		.word	545
 2087 00dc 22020000 		.word	546
 2088 00e0 23020000 		.word	547
 2089              		.cfi_endproc
 2090              	.LFE6:
 2091              		.size	sync_fs, .-sync_fs
 2092              		.section	.text.clust2sect,"ax",%progbits
 2093              		.align	2
 2094              		.global	clust2sect
 2095              		.code	16
 2096              		.thumb_func
 2097              		.type	clust2sect, %function
 2098              	clust2sect:
 2099              	.LFB7:
 804:fatfs/ff.c    **** 	clst -= 2;
 2100              		.loc 1 804 0
 2101              		.cfi_startproc
 2102              		@ args = 0, pretend = 0, frame = 0
 2103              		@ frame_needed = 0, uses_anonymous_args = 0
 2104              		@ link register save eliminated.
 2105              	.LVL265:
 805:fatfs/ff.c    **** 	if (clst >= fs->n_fatent - 2) return 0;		/* Invalid cluster# */
 2106              		.loc 1 805 0
 2107 0000 0239     		subs	r1, r1, #2
 2108              	.LVL266:
 806:fatfs/ff.c    **** 	return clst * fs->csize + fs->database;
 2109              		.loc 1 806 0
 2110 0002 8369     		ldr	r3, [r0, #24]
 2111 0004 023B     		subs	r3, r3, #2
 2112 0006 9942     		cmp	r1, r3
 2113 0008 04D2     		bcs	.L146
 807:fatfs/ff.c    **** }
 2114              		.loc 1 807 0
ARM GAS  C:\Users\DMYTRO~1.FED\AppData\Local\Temp\ccikP2CY.s 			page 83


 2115 000a 8378     		ldrb	r3, [r0, #2]
 2116 000c 5943     		muls	r1, r3
 2117              	.LVL267:
 2118 000e C06A     		ldr	r0, [r0, #44]
 2119              	.LVL268:
 2120 0010 0818     		adds	r0, r1, r0
 2121 0012 00E0     		b	.L145
 2122              	.LVL269:
 2123              	.L146:
 806:fatfs/ff.c    **** 	return clst * fs->csize + fs->database;
 2124              		.loc 1 806 0
 2125 0014 0020     		movs	r0, #0
 2126              	.LVL270:
 2127              	.L145:
 808:fatfs/ff.c    **** 
 2128              		.loc 1 808 0
 2129              		@ sp needed
 2130 0016 7047     		bx	lr
 2131              		.cfi_endproc
 2132              	.LFE7:
 2133              		.size	clust2sect, .-clust2sect
 2134              		.section	.text.get_fat,"ax",%progbits
 2135              		.align	2
 2136              		.global	get_fat
 2137              		.code	16
 2138              		.thumb_func
 2139              		.type	get_fat, %function
 2140              	get_fat:
 2141              	.LFB8:
 822:fatfs/ff.c    **** 	UINT wc, bc;
 2142              		.loc 1 822 0
 2143              		.cfi_startproc
 2144              		@ args = 0, pretend = 0, frame = 0
 2145              		@ frame_needed = 0, uses_anonymous_args = 0
 2146              	.LVL271:
 2147 0000 F8B5     		push	{r3, r4, r5, r6, r7, lr}
 2148              		.cfi_def_cfa_offset 24
 2149              		.cfi_offset 3, -24
 2150              		.cfi_offset 4, -20
 2151              		.cfi_offset 5, -16
 2152              		.cfi_offset 6, -12
 2153              		.cfi_offset 7, -8
 2154              		.cfi_offset 14, -4
 2155 0002 0500     		movs	r5, r0
 2156 0004 0C00     		movs	r4, r1
 828:fatfs/ff.c    **** 		val = 1;	/* Internal error */
 2157              		.loc 1 828 0
 2158 0006 0129     		cmp	r1, #1
 2159 0008 64D9     		bls	.L153
 828:fatfs/ff.c    **** 		val = 1;	/* Internal error */
 2160              		.loc 1 828 0 is_stmt 0 discriminator 1
 2161 000a 8369     		ldr	r3, [r0, #24]
 2162 000c 9942     		cmp	r1, r3
 2163 000e 63D2     		bcs	.L154
 2164              	.LVL272:
 834:fatfs/ff.c    **** 		case FS_FAT12 :
 2165              		.loc 1 834 0 is_stmt 1
ARM GAS  C:\Users\DMYTRO~1.FED\AppData\Local\Temp\ccikP2CY.s 			page 84


 2166 0010 0378     		ldrb	r3, [r0]
 2167 0012 022B     		cmp	r3, #2
 2168 0014 2AD0     		beq	.L149
 2169 0016 032B     		cmp	r3, #3
 2170 0018 3ED0     		beq	.L150
 2171 001a 012B     		cmp	r3, #1
 2172 001c 5ED1     		bne	.L160
 2173              	.LVL273:
 836:fatfs/ff.c    **** 			if (move_window(fs, fs->fatbase + (bc / SS(fs))) != FR_OK) break;
 2174              		.loc 1 836 0
 2175 001e 4E08     		lsrs	r6, r1, #1
 2176 0020 8E19     		adds	r6, r1, r6
 2177              	.LVL274:
 837:fatfs/ff.c    **** 			wc = fs->win[bc++ % SS(fs)];
 2178              		.loc 1 837 0
 2179 0022 710A     		lsrs	r1, r6, #9
 2180              	.LVL275:
 2181 0024 436A     		ldr	r3, [r0, #36]
 2182 0026 9C46     		mov	ip, r3
 2183 0028 6144     		add	r1, r1, ip
 2184 002a FFF7FEFF 		bl	move_window
 2185              	.LVL276:
 2186 002e 0028     		cmp	r0, #0
 2187 0030 56D1     		bne	.L156
 838:fatfs/ff.c    **** 			if (move_window(fs, fs->fatbase + (bc / SS(fs))) != FR_OK) break;
 2188              		.loc 1 838 0
 2189 0032 771C     		adds	r7, r6, #1
 2190              	.LVL277:
 2191 0034 F305     		lsls	r3, r6, #23
 2192 0036 DB0D     		lsrs	r3, r3, #23
 2193 0038 EB18     		adds	r3, r5, r3
 2194 003a 3433     		adds	r3, r3, #52
 2195 003c 1E78     		ldrb	r6, [r3]
 2196              	.LVL278:
 839:fatfs/ff.c    **** 			wc |= fs->win[bc % SS(fs)] << 8;
 2197              		.loc 1 839 0
 2198 003e 790A     		lsrs	r1, r7, #9
 2199 0040 6B6A     		ldr	r3, [r5, #36]
 2200 0042 9C46     		mov	ip, r3
 2201 0044 6144     		add	r1, r1, ip
 2202 0046 2800     		movs	r0, r5
 2203 0048 FFF7FEFF 		bl	move_window
 2204              	.LVL279:
 2205 004c 0028     		cmp	r0, #0
 2206 004e 4AD1     		bne	.L157
 840:fatfs/ff.c    **** 			val = clst & 1 ? wc >> 4 : (wc & 0xFFF);
 2207              		.loc 1 840 0
 2208 0050 FF05     		lsls	r7, r7, #23
 2209              	.LVL280:
 2210 0052 FF0D     		lsrs	r7, r7, #23
 2211 0054 ED19     		adds	r5, r5, r7
 2212              	.LVL281:
 2213 0056 3435     		adds	r5, r5, #52
 2214 0058 2878     		ldrb	r0, [r5]
 2215 005a 0002     		lsls	r0, r0, #8
 2216 005c 3043     		orrs	r0, r6
 2217              	.LVL282:
ARM GAS  C:\Users\DMYTRO~1.FED\AppData\Local\Temp\ccikP2CY.s 			page 85


 841:fatfs/ff.c    **** 			break;
 2218              		.loc 1 841 0
 2219 005e E307     		lsls	r3, r4, #31
 2220 0060 01D5     		bpl	.L152
 841:fatfs/ff.c    **** 			break;
 2221              		.loc 1 841 0 is_stmt 0 discriminator 1
 2222 0062 0009     		lsrs	r0, r0, #4
 2223              	.LVL283:
 2224 0064 47E0     		b	.L148
 2225              	.LVL284:
 2226              	.L152:
 841:fatfs/ff.c    **** 			break;
 2227              		.loc 1 841 0 discriminator 2
 2228 0066 0005     		lsls	r0, r0, #20
 2229              	.LVL285:
 2230 0068 000D     		lsrs	r0, r0, #20
 2231 006a 44E0     		b	.L148
 2232              	.LVL286:
 2233              	.L149:
 845:fatfs/ff.c    **** 			p = &fs->win[clst * 2 % SS(fs)];
 2234              		.loc 1 845 0 is_stmt 1
 2235 006c 090A     		lsrs	r1, r1, #8
 2236              	.LVL287:
 2237 006e 436A     		ldr	r3, [r0, #36]
 2238 0070 9C46     		mov	ip, r3
 2239 0072 6144     		add	r1, r1, ip
 2240 0074 FFF7FEFF 		bl	move_window
 2241              	.LVL288:
 2242 0078 0028     		cmp	r0, #0
 2243 007a 37D1     		bne	.L158
 846:fatfs/ff.c    **** 			val = LD_WORD(p);
 2244              		.loc 1 846 0
 2245 007c 6400     		lsls	r4, r4, #1
 2246              	.LVL289:
 2247 007e FF23     		movs	r3, #255
 2248 0080 5B00     		lsls	r3, r3, #1
 2249 0082 1C40     		ands	r4, r3
 2250 0084 2300     		movs	r3, r4
 2251 0086 3033     		adds	r3, r3, #48
 2252 0088 EB18     		adds	r3, r5, r3
 2253              	.LVL290:
 847:fatfs/ff.c    **** 			break;
 2254              		.loc 1 847 0
 2255 008a 5879     		ldrb	r0, [r3, #5]
 2256 008c 0002     		lsls	r0, r0, #8
 2257 008e 2C19     		adds	r4, r5, r4
 2258 0090 3434     		adds	r4, r4, #52
 2259 0092 2378     		ldrb	r3, [r4]
 2260              	.LVL291:
 2261 0094 1843     		orrs	r0, r3
 2262              	.LVL292:
 848:fatfs/ff.c    **** 
 2263              		.loc 1 848 0
 2264 0096 2EE0     		b	.L148
 2265              	.LVL293:
 2266              	.L150:
 851:fatfs/ff.c    **** 			p = &fs->win[clst * 4 % SS(fs)];
ARM GAS  C:\Users\DMYTRO~1.FED\AppData\Local\Temp\ccikP2CY.s 			page 86


 2267              		.loc 1 851 0
 2268 0098 C909     		lsrs	r1, r1, #7
 2269              	.LVL294:
 2270 009a 436A     		ldr	r3, [r0, #36]
 2271 009c 9C46     		mov	ip, r3
 2272 009e 6144     		add	r1, r1, ip
 2273 00a0 FFF7FEFF 		bl	move_window
 2274              	.LVL295:
 2275 00a4 0028     		cmp	r0, #0
 2276 00a6 24D1     		bne	.L159
 852:fatfs/ff.c    **** 			val = LD_DWORD(p) & 0x0FFFFFFF;
 2277              		.loc 1 852 0
 2278 00a8 A400     		lsls	r4, r4, #2
 2279              	.LVL296:
 2280 00aa FE23     		movs	r3, #254
 2281 00ac 5B00     		lsls	r3, r3, #1
 2282 00ae 1C40     		ands	r4, r3
 2283 00b0 2200     		movs	r2, r4
 2284 00b2 3032     		adds	r2, r2, #48
 2285 00b4 AA18     		adds	r2, r5, r2
 2286              	.LVL297:
 853:fatfs/ff.c    **** 			break;
 2287              		.loc 1 853 0
 2288 00b6 D079     		ldrb	r0, [r2, #7]
 2289 00b8 0006     		lsls	r0, r0, #24
 2290 00ba 9379     		ldrb	r3, [r2, #6]
 2291 00bc 1B04     		lsls	r3, r3, #16
 2292 00be 0343     		orrs	r3, r0
 2293 00c0 5079     		ldrb	r0, [r2, #5]
 2294 00c2 0002     		lsls	r0, r0, #8
 2295 00c4 1843     		orrs	r0, r3
 2296 00c6 2C19     		adds	r4, r5, r4
 2297 00c8 3434     		adds	r4, r4, #52
 2298 00ca 2378     		ldrb	r3, [r4]
 2299 00cc 1843     		orrs	r0, r3
 2300 00ce 0001     		lsls	r0, r0, #4
 2301 00d0 0009     		lsrs	r0, r0, #4
 2302              	.LVL298:
 854:fatfs/ff.c    **** 
 2303              		.loc 1 854 0
 2304 00d2 10E0     		b	.L148
 2305              	.LVL299:
 2306              	.L153:
 829:fatfs/ff.c    **** 
 2307              		.loc 1 829 0
 2308 00d4 0120     		movs	r0, #1
 2309              	.LVL300:
 2310 00d6 0EE0     		b	.L148
 2311              	.LVL301:
 2312              	.L154:
 2313 00d8 0120     		movs	r0, #1
 2314              	.LVL302:
 2315 00da 0CE0     		b	.L148
 2316              	.LVL303:
 2317              	.L160:
 857:fatfs/ff.c    **** 		}
 2318              		.loc 1 857 0
ARM GAS  C:\Users\DMYTRO~1.FED\AppData\Local\Temp\ccikP2CY.s 			page 87


 2319 00dc 0120     		movs	r0, #1
 2320              	.LVL304:
 2321 00de 0AE0     		b	.L148
 2322              	.LVL305:
 2323              	.L156:
 832:fatfs/ff.c    **** 
 2324              		.loc 1 832 0
 2325 00e0 0120     		movs	r0, #1
 2326 00e2 4042     		rsbs	r0, r0, #0
 2327 00e4 07E0     		b	.L148
 2328              	.LVL306:
 2329              	.L157:
 2330 00e6 0120     		movs	r0, #1
 2331 00e8 4042     		rsbs	r0, r0, #0
 2332 00ea 04E0     		b	.L148
 2333              	.LVL307:
 2334              	.L158:
 2335 00ec 0120     		movs	r0, #1
 2336 00ee 4042     		rsbs	r0, r0, #0
 2337 00f0 01E0     		b	.L148
 2338              	.L159:
 2339 00f2 0120     		movs	r0, #1
 2340 00f4 4042     		rsbs	r0, r0, #0
 2341              	.LVL308:
 2342              	.L148:
 862:fatfs/ff.c    **** 
 2343              		.loc 1 862 0
 2344              		@ sp needed
 2345 00f6 F8BD     		pop	{r3, r4, r5, r6, r7, pc}
 2346              		.cfi_endproc
 2347              	.LFE8:
 2348              		.size	get_fat, .-get_fat
 2349              		.section	.text.dir_sdi,"ax",%progbits
 2350              		.align	2
 2351              		.code	16
 2352              		.thumb_func
 2353              		.type	dir_sdi, %function
 2354              	dir_sdi:
 2355              	.LFB12:
1084:fatfs/ff.c    **** 	DWORD clst, sect;
 2356              		.loc 1 1084 0
 2357              		.cfi_startproc
 2358              		@ args = 0, pretend = 0, frame = 0
 2359              		@ frame_needed = 0, uses_anonymous_args = 0
 2360              	.LVL309:
 2361 0000 F8B5     		push	{r3, r4, r5, r6, r7, lr}
 2362              		.cfi_def_cfa_offset 24
 2363              		.cfi_offset 3, -24
 2364              		.cfi_offset 4, -20
 2365              		.cfi_offset 5, -16
 2366              		.cfi_offset 6, -12
 2367              		.cfi_offset 7, -8
 2368              		.cfi_offset 14, -4
 2369 0002 0500     		movs	r5, r0
 2370 0004 0E00     		movs	r6, r1
1089:fatfs/ff.c    **** 	clst = dp->sclust;		/* Table start cluster (0:root) */
 2371              		.loc 1 1089 0
ARM GAS  C:\Users\DMYTRO~1.FED\AppData\Local\Temp\ccikP2CY.s 			page 88


 2372 0006 E980     		strh	r1, [r5, #6]
1090:fatfs/ff.c    **** 	if (clst == 1 || clst >= dp->fs->n_fatent)	/* Check start cluster range */
 2373              		.loc 1 1090 0
 2374 0008 8468     		ldr	r4, [r0, #8]
 2375              	.LVL310:
1091:fatfs/ff.c    **** 		return FR_INT_ERR;
 2376              		.loc 1 1091 0
 2377 000a 012C     		cmp	r4, #1
 2378 000c 36D0     		beq	.L168
1091:fatfs/ff.c    **** 		return FR_INT_ERR;
 2379              		.loc 1 1091 0 is_stmt 0 discriminator 1
 2380 000e 0368     		ldr	r3, [r0]
 2381 0010 9A69     		ldr	r2, [r3, #24]
 2382 0012 9442     		cmp	r4, r2
 2383 0014 34D2     		bcs	.L169
1093:fatfs/ff.c    **** 		clst = dp->fs->dirbase;
 2384              		.loc 1 1093 0 is_stmt 1
 2385 0016 002C     		cmp	r4, #0
 2386 0018 03D1     		bne	.L163
1093:fatfs/ff.c    **** 		clst = dp->fs->dirbase;
 2387              		.loc 1 1093 0 is_stmt 0 discriminator 1
 2388 001a 1A78     		ldrb	r2, [r3]
 2389 001c 032A     		cmp	r2, #3
 2390 001e 00D1     		bne	.L163
1094:fatfs/ff.c    **** 
 2391              		.loc 1 1094 0 is_stmt 1
 2392 0020 9C6A     		ldr	r4, [r3, #40]
 2393              	.LVL311:
 2394              	.L163:
1096:fatfs/ff.c    **** 		if (idx >= dp->fs->n_rootdir)	/* Is index out of range? */
 2395              		.loc 1 1096 0
 2396 0022 002C     		cmp	r4, #0
 2397 0024 04D1     		bne	.L164
1097:fatfs/ff.c    **** 			return FR_INT_ERR;
 2398              		.loc 1 1097 0
 2399 0026 1A89     		ldrh	r2, [r3, #8]
 2400 0028 9642     		cmp	r6, r2
 2401 002a 2BD2     		bcs	.L170
1099:fatfs/ff.c    **** 	}
 2402              		.loc 1 1099 0
 2403 002c 986A     		ldr	r0, [r3, #40]
 2404              	.LVL312:
 2405 002e 16E0     		b	.L165
 2406              	.LVL313:
 2407              	.L164:
1102:fatfs/ff.c    **** 		while (idx >= ic) {	/* Follow cluster chain */
 2408              		.loc 1 1102 0
 2409 0030 9F78     		ldrb	r7, [r3, #2]
 2410 0032 3F01     		lsls	r7, r7, #4
 2411              	.LVL314:
1103:fatfs/ff.c    **** 			clst = get_fat(dp->fs, clst);				/* Get next cluster */
 2412              		.loc 1 1103 0
 2413 0034 0DE0     		b	.L166
 2414              	.LVL315:
 2415              	.L167:
1104:fatfs/ff.c    **** 			if (clst == 0xFFFFFFFF) return FR_DISK_ERR;	/* Disk error */
 2416              		.loc 1 1104 0
ARM GAS  C:\Users\DMYTRO~1.FED\AppData\Local\Temp\ccikP2CY.s 			page 89


 2417 0036 2100     		movs	r1, r4
 2418 0038 2868     		ldr	r0, [r5]
 2419 003a FFF7FEFF 		bl	get_fat
 2420              	.LVL316:
 2421 003e 0400     		movs	r4, r0
 2422              	.LVL317:
1105:fatfs/ff.c    **** 			if (clst < 2 || clst >= dp->fs->n_fatent)	/* Reached to end of table or internal error */
 2423              		.loc 1 1105 0
 2424 0040 431C     		adds	r3, r0, #1
 2425 0042 21D0     		beq	.L171
1106:fatfs/ff.c    **** 				return FR_INT_ERR;
 2426              		.loc 1 1106 0
 2427 0044 0128     		cmp	r0, #1
 2428 0046 21D9     		bls	.L172
1106:fatfs/ff.c    **** 				return FR_INT_ERR;
 2429              		.loc 1 1106 0 is_stmt 0 discriminator 1
 2430 0048 2B68     		ldr	r3, [r5]
 2431 004a 9B69     		ldr	r3, [r3, #24]
 2432 004c 9842     		cmp	r0, r3
 2433 004e 1FD2     		bcs	.L173
1108:fatfs/ff.c    **** 		}
 2434              		.loc 1 1108 0 is_stmt 1
 2435 0050 F61B     		subs	r6, r6, r7
 2436              	.LVL318:
 2437              	.L166:
1103:fatfs/ff.c    **** 			clst = get_fat(dp->fs, clst);				/* Get next cluster */
 2438              		.loc 1 1103 0
 2439 0052 BE42     		cmp	r6, r7
 2440 0054 EFD2     		bcs	.L167
1110:fatfs/ff.c    **** 	}
 2441              		.loc 1 1110 0
 2442 0056 2100     		movs	r1, r4
 2443 0058 2868     		ldr	r0, [r5]
 2444 005a FFF7FEFF 		bl	clust2sect
 2445              	.LVL319:
 2446              	.L165:
1112:fatfs/ff.c    **** 	if (!sect) return FR_INT_ERR;
 2447              		.loc 1 1112 0
 2448 005e EC60     		str	r4, [r5, #12]
1113:fatfs/ff.c    **** 	dp->sect = sect + idx / (SS(dp->fs) / SZ_DIRE);					/* Sector# of the directory entry */
 2449              		.loc 1 1113 0
 2450 0060 0028     		cmp	r0, #0
 2451 0062 17D0     		beq	.L174
1114:fatfs/ff.c    **** 	dp->dir = dp->fs->win + (idx % (SS(dp->fs) / SZ_DIRE)) * SZ_DIRE;	/* Ptr to the entry in the secto
 2452              		.loc 1 1114 0
 2453 0064 3309     		lsrs	r3, r6, #4
 2454 0066 C018     		adds	r0, r0, r3
 2455              	.LVL320:
 2456 0068 2861     		str	r0, [r5, #16]
1115:fatfs/ff.c    **** 
 2457              		.loc 1 1115 0
 2458 006a 2B68     		ldr	r3, [r5]
 2459 006c 3433     		adds	r3, r3, #52
 2460 006e 0F22     		movs	r2, #15
 2461 0070 1640     		ands	r6, r2
 2462              	.LVL321:
 2463 0072 7601     		lsls	r6, r6, #5
ARM GAS  C:\Users\DMYTRO~1.FED\AppData\Local\Temp\ccikP2CY.s 			page 90


 2464 0074 9E19     		adds	r6, r3, r6
 2465 0076 6E61     		str	r6, [r5, #20]
1117:fatfs/ff.c    **** }
 2466              		.loc 1 1117 0
 2467 0078 0020     		movs	r0, #0
 2468 007a 0CE0     		b	.L162
 2469              	.LVL322:
 2470              	.L168:
1092:fatfs/ff.c    **** 	if (!clst && dp->fs->fs_type == FS_FAT32)	/* Replace cluster# 0 with root cluster# if in FAT32 */
 2471              		.loc 1 1092 0
 2472 007c 0220     		movs	r0, #2
 2473              	.LVL323:
 2474 007e 0AE0     		b	.L162
 2475              	.LVL324:
 2476              	.L169:
 2477 0080 0220     		movs	r0, #2
 2478              	.LVL325:
 2479 0082 08E0     		b	.L162
 2480              	.LVL326:
 2481              	.L170:
1098:fatfs/ff.c    **** 		sect = dp->fs->dirbase;
 2482              		.loc 1 1098 0
 2483 0084 0220     		movs	r0, #2
 2484              	.LVL327:
 2485 0086 06E0     		b	.L162
 2486              	.LVL328:
 2487              	.L171:
1105:fatfs/ff.c    **** 			if (clst < 2 || clst >= dp->fs->n_fatent)	/* Reached to end of table or internal error */
 2488              		.loc 1 1105 0
 2489 0088 0120     		movs	r0, #1
 2490              	.LVL329:
 2491 008a 04E0     		b	.L162
 2492              	.LVL330:
 2493              	.L172:
1107:fatfs/ff.c    **** 			idx -= ic;
 2494              		.loc 1 1107 0
 2495 008c 0220     		movs	r0, #2
 2496              	.LVL331:
 2497 008e 02E0     		b	.L162
 2498              	.LVL332:
 2499              	.L173:
 2500 0090 0220     		movs	r0, #2
 2501              	.LVL333:
 2502 0092 00E0     		b	.L162
 2503              	.LVL334:
 2504              	.L174:
1113:fatfs/ff.c    **** 	dp->sect = sect + idx / (SS(dp->fs) / SZ_DIRE);					/* Sector# of the directory entry */
 2505              		.loc 1 1113 0
 2506 0094 0220     		movs	r0, #2
 2507              	.LVL335:
 2508              	.L162:
1118:fatfs/ff.c    **** 
 2509              		.loc 1 1118 0
 2510              		@ sp needed
 2511              	.LVL336:
 2512              	.LVL337:
 2513 0096 F8BD     		pop	{r3, r4, r5, r6, r7, pc}
ARM GAS  C:\Users\DMYTRO~1.FED\AppData\Local\Temp\ccikP2CY.s 			page 91


 2514              		.cfi_endproc
 2515              	.LFE12:
 2516              		.size	dir_sdi, .-dir_sdi
 2517              		.section	.text.dir_remove,"ax",%progbits
 2518              		.align	2
 2519              		.code	16
 2520              		.thumb_func
 2521              		.type	dir_remove, %function
 2522              	dir_remove:
 2523              	.LFB20:
1659:fatfs/ff.c    **** 	FRESULT res;
 2524              		.loc 1 1659 0
 2525              		.cfi_startproc
 2526              		@ args = 0, pretend = 0, frame = 0
 2527              		@ frame_needed = 0, uses_anonymous_args = 0
 2528              	.LVL338:
 2529 0000 70B5     		push	{r4, r5, r6, lr}
 2530              		.cfi_def_cfa_offset 16
 2531              		.cfi_offset 4, -16
 2532              		.cfi_offset 5, -12
 2533              		.cfi_offset 6, -8
 2534              		.cfi_offset 14, -4
 2535 0002 0500     		movs	r5, r0
1680:fatfs/ff.c    **** 	if (res == FR_OK) {
 2536              		.loc 1 1680 0
 2537 0004 C188     		ldrh	r1, [r0, #6]
 2538 0006 FFF7FEFF 		bl	dir_sdi
 2539              	.LVL339:
 2540 000a 041E     		subs	r4, r0, #0
 2541              	.LVL340:
1681:fatfs/ff.c    **** 		res = move_window(dp->fs, dp->sect);
 2542              		.loc 1 1681 0
 2543 000c 10D1     		bne	.L176
1682:fatfs/ff.c    **** 		if (res == FR_OK) {
 2544              		.loc 1 1682 0
 2545 000e 2969     		ldr	r1, [r5, #16]
 2546 0010 2868     		ldr	r0, [r5]
 2547              	.LVL341:
 2548 0012 FFF7FEFF 		bl	move_window
 2549              	.LVL342:
 2550 0016 041E     		subs	r4, r0, #0
 2551              	.LVL343:
1683:fatfs/ff.c    **** 			mem_set(dp->dir, 0, SZ_DIRE);	/* Clear and mark the entry "deleted" */
 2552              		.loc 1 1683 0
 2553 0018 0AD1     		bne	.L176
1684:fatfs/ff.c    **** 			*dp->dir = DDEM;
 2554              		.loc 1 1684 0
 2555 001a 2022     		movs	r2, #32
 2556 001c 0021     		movs	r1, #0
 2557 001e 6869     		ldr	r0, [r5, #20]
 2558              	.LVL344:
 2559 0020 FFF7FEFF 		bl	mem_set
 2560              	.LVL345:
1685:fatfs/ff.c    **** 			dp->fs->wflag = 1;
 2561              		.loc 1 1685 0
 2562 0024 E523     		movs	r3, #229
 2563 0026 6A69     		ldr	r2, [r5, #20]
ARM GAS  C:\Users\DMYTRO~1.FED\AppData\Local\Temp\ccikP2CY.s 			page 92


 2564 0028 1370     		strb	r3, [r2]
1686:fatfs/ff.c    **** 		}
 2565              		.loc 1 1686 0
 2566 002a 2B68     		ldr	r3, [r5]
 2567 002c 0122     		movs	r2, #1
 2568 002e 1A71     		strb	r2, [r3, #4]
 2569              	.LVL346:
 2570              	.L176:
1692:fatfs/ff.c    **** #endif /* !_FS_READONLY */
 2571              		.loc 1 1692 0
 2572 0030 2000     		movs	r0, r4
 2573              		@ sp needed
 2574              	.LVL347:
 2575              	.LVL348:
 2576 0032 70BD     		pop	{r4, r5, r6, pc}
 2577              		.cfi_endproc
 2578              	.LFE20:
 2579              		.size	dir_remove, .-dir_remove
 2580              		.section	.text.put_fat,"ax",%progbits
 2581              		.align	2
 2582              		.global	put_fat
 2583              		.code	16
 2584              		.thumb_func
 2585              		.type	put_fat, %function
 2586              	put_fat:
 2587              	.LFB9:
 878:fatfs/ff.c    **** 	UINT bc;
 2588              		.loc 1 878 0
 2589              		.cfi_startproc
 2590              		@ args = 0, pretend = 0, frame = 0
 2591              		@ frame_needed = 0, uses_anonymous_args = 0
 2592              	.LVL349:
 2593 0000 F0B5     		push	{r4, r5, r6, r7, lr}
 2594              		.cfi_def_cfa_offset 20
 2595              		.cfi_offset 4, -20
 2596              		.cfi_offset 5, -16
 2597              		.cfi_offset 6, -12
 2598              		.cfi_offset 7, -8
 2599              		.cfi_offset 14, -4
 2600 0002 4746     		mov	r7, r8
 2601 0004 80B4     		push	{r7}
 2602              		.cfi_def_cfa_offset 24
 2603              		.cfi_offset 8, -24
 2604 0006 0600     		movs	r6, r0
 2605 0008 0C00     		movs	r4, r1
 2606 000a 1500     		movs	r5, r2
 884:fatfs/ff.c    **** 		res = FR_INT_ERR;
 2607              		.loc 1 884 0
 2608 000c 0129     		cmp	r1, #1
 2609 000e 00D8     		bhi	.LCB2817
 2610 0010 81E0     		b	.L186	@long jump
 2611              	.LCB2817:
 884:fatfs/ff.c    **** 		res = FR_INT_ERR;
 2612              		.loc 1 884 0 is_stmt 0 discriminator 1
 2613 0012 8369     		ldr	r3, [r0, #24]
 2614 0014 9942     		cmp	r1, r3
