ARM GAS  C:\Users\DMYTRO~1.FED\AppData\Local\Temp\ccwnL3dO.s 			page 1


   1              		.syntax unified
   2              		.cpu cortex-m0plus
   3              		.fpu softvfp
   4              		.eabi_attribute 20, 1
   5              		.eabi_attribute 21, 1
   6              		.eabi_attribute 23, 3
   7              		.eabi_attribute 24, 1
   8              		.eabi_attribute 25, 1
   9              		.eabi_attribute 26, 1
  10              		.eabi_attribute 30, 1
  11              		.eabi_attribute 34, 0
  12              		.eabi_attribute 18, 4
  13              		.thumb
  14              		.syntax unified
  15              		.file	"filePlayer.c"
  16              		.text
  17              	.Ltext0:
  18              		.cfi_sections	.debug_frame
  19              		.section	.text.filePlayer_GetNextFile,"ax",%progbits
  20              		.align	2
  21              		.code	16
  22              		.thumb_func
  23              		.type	filePlayer_GetNextFile, %function
  24              	filePlayer_GetNextFile:
  25              	.LFB7:
  26              		.file 1 "filePlayer.c"
   1:filePlayer.c  **** /** @file
   2:filePlayer.c  ****  *  @brief Source file for player of sound files
   3:filePlayer.c  ****  */  
   4:filePlayer.c  **** #include <string.h>
   5:filePlayer.c  **** #include "filePlayer.h"
   6:filePlayer.c  **** #include "card.h"
   7:filePlayer.c  **** #include "player.h"
   8:filePlayer.c  **** #include "pcmPlayer.h"
   9:filePlayer.c  **** #include "midiPlayer.h"
  10:filePlayer.c  **** #include "assert.h"
  11:filePlayer.c  **** 
  12:filePlayer.c  **** /** Maximum size of the file extension */
  13:filePlayer.c  **** #define MAX_EXT_SIZE 4U
  14:filePlayer.c  **** 
  15:filePlayer.c  **** const char rootDir[] ="/"; 
  16:filePlayer.c  **** 
  17:filePlayer.c  **** typedef enum
  18:filePlayer.c  **** {
  19:filePlayer.c  ****     FILE_NOT_SUPPORTED,
  20:filePlayer.c  ****     FILE_PCM,
  21:filePlayer.c  ****     FILE_MIDI,
  22:filePlayer.c  ****     FILE_WAV,
  23:filePlayer.c  ****     FILE_AMOUNT
  24:filePlayer.c  **** } fileType_t;
  25:filePlayer.c  **** 
  26:filePlayer.c  **** typedef struct
  27:filePlayer.c  **** {
  28:filePlayer.c  ****     char        ext[MAX_EXT_SIZE + 1];
  29:filePlayer.c  ****     fileType_t  type;
  30:filePlayer.c  **** } fileExstRow_t;
  31:filePlayer.c  **** 
ARM GAS  C:\Users\DMYTRO~1.FED\AppData\Local\Temp\ccwnL3dO.s 			page 2


  32:filePlayer.c  **** typedef enum
  33:filePlayer.c  **** {
  34:filePlayer.c  ****     FILE_PLAYER_START,
  35:filePlayer.c  ****     FILE_PLAYER_PLAY,
  36:filePlayer.c  ****     FILE_PLAYER_PAUSE,
  37:filePlayer.c  ****     FILE_PLAYER_STOP,
  38:filePlayer.c  ****     FILE_PLAYER_NO_DIR,
  39:filePlayer.c  **** } filePlayer_State_t;
  40:filePlayer.c  **** 
  41:filePlayer.c  **** typedef struct
  42:filePlayer.c  **** {
  43:filePlayer.c  ****     DIR                 dir;
  44:filePlayer.c  ****     FILINFO             fno_temp;
  45:filePlayer.c  ****     filePlayer_State_t  state;
  46:filePlayer.c  **** } filePlayer_t;
  47:filePlayer.c  **** 
  48:filePlayer.c  **** static const fileExstRow_t extDB[] = 
  49:filePlayer.c  **** {
  50:filePlayer.c  ****     { .ext = ".WAV",  .type =  FILE_WAV, },
  51:filePlayer.c  ****     { .ext = ".PCM",  .type =  FILE_PCM, },
  52:filePlayer.c  ****     { .ext = ".MID",  .type =  FILE_MIDI,},
  53:filePlayer.c  **** };
  54:filePlayer.c  **** 
  55:filePlayer.c  **** static const uint32_t extDB_size = sizeof(extDB) / sizeof(fileExstRow_t); /* Will be calculated at 
  56:filePlayer.c  **** 
  57:filePlayer.c  **** static bool filePlayer_Init(void);
  58:filePlayer.c  **** static bool filePlayer_GetNextFile(void);
  59:filePlayer.c  **** static fileType_t filePlayer_GetFileType(void);
  60:filePlayer.c  **** 
  61:filePlayer.c  **** static filePlayer_t filePlayer = {.state = FILE_PLAYER_START,};
  62:filePlayer.c  **** 
  63:filePlayer.c  **** void filePlayer_Pause(void)
  64:filePlayer.c  **** {
  65:filePlayer.c  ****     if (FILE_PLAYER_PLAY == filePlayer.state)
  66:filePlayer.c  ****     {
  67:filePlayer.c  ****         player_Pause();
  68:filePlayer.c  ****         filePlayer.state = FILE_PLAYER_PAUSE;
  69:filePlayer.c  ****     }
  70:filePlayer.c  **** }
  71:filePlayer.c  **** 
  72:filePlayer.c  **** void filePlayer_Stop(void)
  73:filePlayer.c  **** {
  74:filePlayer.c  ****     if (FILE_PLAYER_START != filePlayer.state)
  75:filePlayer.c  ****     {
  76:filePlayer.c  ****         filePlayer.state = FILE_PLAYER_STOP;
  77:filePlayer.c  ****         player_Stop();
  78:filePlayer.c  ****     }
  79:filePlayer.c  **** }
  80:filePlayer.c  **** 
  81:filePlayer.c  **** void filePlayer_Play(void)
  82:filePlayer.c  **** {
  83:filePlayer.c  ****     if (FILE_PLAYER_PAUSE == filePlayer.state)
  84:filePlayer.c  ****     {
  85:filePlayer.c  ****         filePlayer.state = FILE_PLAYER_PLAY;
  86:filePlayer.c  ****         player_Play();
  87:filePlayer.c  ****     } else
  88:filePlayer.c  ****     {
ARM GAS  C:\Users\DMYTRO~1.FED\AppData\Local\Temp\ccwnL3dO.s 			page 3


  89:filePlayer.c  ****        filePlayer_Next();
  90:filePlayer.c  ****     }
  91:filePlayer.c  **** }
  92:filePlayer.c  **** 
  93:filePlayer.c  **** bool filePlayer_isPlay(void)
  94:filePlayer.c  **** {
  95:filePlayer.c  ****     return (filePlayer.state == FILE_PLAYER_PLAY);
  96:filePlayer.c  **** }
  97:filePlayer.c  **** 
  98:filePlayer.c  **** void filePlayer_Next(void)
  99:filePlayer.c  **** {
 100:filePlayer.c  ****     fileType_t fileType;
 101:filePlayer.c  ****     bool ret = false;
 102:filePlayer.c  ****      
 103:filePlayer.c  ****     if (FILE_PLAYER_START != filePlayer.state)
 104:filePlayer.c  ****     {
 105:filePlayer.c  ****         filePlayer_Stop();
 106:filePlayer.c  ****         do
 107:filePlayer.c  ****         {
 108:filePlayer.c  ****             ret = filePlayer_GetNextFile();
 109:filePlayer.c  ****             if (!ret)
 110:filePlayer.c  ****             {
 111:filePlayer.c  ****                 uartPrintf("FPLAYER: No files, rewind to the begining\r\n");
 112:filePlayer.c  ****                 filePlayer.state = FILE_PLAYER_START;
 113:filePlayer.c  ****                 break;
 114:filePlayer.c  ****             }
 115:filePlayer.c  ****             
 116:filePlayer.c  ****             fileType = filePlayer_GetFileType();
 117:filePlayer.c  ****             uartPrintf("FPLAYER: %s Type: %d\r\n", filePlayer.fno_temp.fname, fileType);
 118:filePlayer.c  ****             switch(fileType)
 119:filePlayer.c  ****             {
 120:filePlayer.c  ****                 case FILE_WAV:
 121:filePlayer.c  ****                     ret = pcmPlayerPlayWav(filePlayer.fno_temp.fname);
 122:filePlayer.c  ****                     break;
 123:filePlayer.c  ****                 
 124:filePlayer.c  ****                 case FILE_PCM:
 125:filePlayer.c  ****                     audio_SetSampleRate(AUDIO_SAMPLE_RATE_32K);
 126:filePlayer.c  ****                     ret = pcmPlayerPlay(filePlayer.fno_temp.fname);
 127:filePlayer.c  ****                     break;
 128:filePlayer.c  ****                 
 129:filePlayer.c  ****                 case FILE_MIDI:
 130:filePlayer.c  ****                     ret = midiPlayer_Play(filePlayer.fno_temp.fname);
 131:filePlayer.c  ****                     break;
 132:filePlayer.c  ****                 
 133:filePlayer.c  ****                 default:
 134:filePlayer.c  ****                     ret = false;
 135:filePlayer.c  ****                     break;
 136:filePlayer.c  ****             } 
 137:filePlayer.c  ****         } while(!ret);
 138:filePlayer.c  ****         
 139:filePlayer.c  ****         if (ret)
 140:filePlayer.c  ****         {
 141:filePlayer.c  ****            filePlayer.state = FILE_PLAYER_PLAY;
 142:filePlayer.c  ****         }
 143:filePlayer.c  ****     }
 144:filePlayer.c  **** }
 145:filePlayer.c  **** 
ARM GAS  C:\Users\DMYTRO~1.FED\AppData\Local\Temp\ccwnL3dO.s 			page 4


 146:filePlayer.c  **** void filePlayer_Run(void)
 147:filePlayer.c  **** {
 148:filePlayer.c  ****     player_Run();
 149:filePlayer.c  ****     switch (filePlayer.state)
 150:filePlayer.c  ****     {
 151:filePlayer.c  ****         case FILE_PLAYER_START:
 152:filePlayer.c  ****             if (filePlayer_Init())
 153:filePlayer.c  ****             {
 154:filePlayer.c  ****                 uartPrintf("FPLAYER: Started!\r\n");
 155:filePlayer.c  ****                 filePlayer.state = FILE_PLAYER_STOP;
 156:filePlayer.c  ****             }
 157:filePlayer.c  ****             break;
 158:filePlayer.c  ****             
 159:filePlayer.c  ****         case FILE_PLAYER_STOP:   
 160:filePlayer.c  ****         case FILE_PLAYER_PAUSE:
 161:filePlayer.c  ****             break;
 162:filePlayer.c  ****             
 163:filePlayer.c  ****         case FILE_PLAYER_PLAY:
 164:filePlayer.c  ****             if (!player_IsPlaying())
 165:filePlayer.c  ****             {
 166:filePlayer.c  ****                 filePlayer_Next();
 167:filePlayer.c  ****             }
 168:filePlayer.c  ****             break;
 169:filePlayer.c  ****         
 170:filePlayer.c  ****         default:
 171:filePlayer.c  ****             uartPrintf("FPLAYER: Wrong state %d\r\n", filePlayer.state);
 172:filePlayer.c  ****             ASSERT(false);
 173:filePlayer.c  ****             break;
 174:filePlayer.c  ****     }
 175:filePlayer.c  ****  
 176:filePlayer.c  **** }
 177:filePlayer.c  **** 
 178:filePlayer.c  **** static fileType_t filePlayer_GetFileType(void)
 179:filePlayer.c  **** {
 180:filePlayer.c  ****     uint32_t i;
 181:filePlayer.c  ****     fileType_t ret = FILE_NOT_SUPPORTED;
 182:filePlayer.c  ****     
 183:filePlayer.c  ****     for (i = 0; i < extDB_size; i++)
 184:filePlayer.c  ****     {
 185:filePlayer.c  ****         if (NULL != strstr(filePlayer.fno_temp.fname, extDB[i].ext))
 186:filePlayer.c  ****         {
 187:filePlayer.c  ****             ret = extDB[i].type;
 188:filePlayer.c  ****             break;
 189:filePlayer.c  ****         }
 190:filePlayer.c  ****     }
 191:filePlayer.c  ****     
 192:filePlayer.c  ****     return ret; 
 193:filePlayer.c  **** }
 194:filePlayer.c  **** 
 195:filePlayer.c  **** static bool filePlayer_GetNextFile(void)
 196:filePlayer.c  **** {
  27              		.loc 1 196 0
  28              		.cfi_startproc
  29              		@ args = 0, pretend = 0, frame = 0
  30              		@ frame_needed = 0, uses_anonymous_args = 0
  31 0000 70B5     		push	{r4, r5, r6, lr}
  32              		.cfi_def_cfa_offset 16
ARM GAS  C:\Users\DMYTRO~1.FED\AppData\Local\Temp\ccwnL3dO.s 			page 5


  33              		.cfi_offset 4, -16
  34              		.cfi_offset 5, -12
  35              		.cfi_offset 6, -8
  36              		.cfi_offset 14, -4
  37              	.L5:
 197:filePlayer.c  ****     FRESULT res;
 198:filePlayer.c  ****     bool ret = false;
 199:filePlayer.c  ****     
 200:filePlayer.c  ****     do
 201:filePlayer.c  ****     {
 202:filePlayer.c  ****          res = f_readdir(&filePlayer.dir, &filePlayer.fno_temp);
  38              		.loc 1 202 0
  39 0002 1148     		ldr	r0, .L7
  40 0004 0100     		movs	r1, r0
  41 0006 1C31     		adds	r1, r1, #28
  42 0008 FFF7FEFF 		bl	f_readdir
  43              	.LVL0:
  44 000c 041E     		subs	r4, r0, #0
  45              	.LVL1:
 203:filePlayer.c  ****          if (res != FR_OK)
  46              		.loc 1 203 0
  47 000e 04D0     		beq	.L2
 204:filePlayer.c  ****          {
 205:filePlayer.c  ****             uartPrintf("FPLAYER: Error readdir\r\n");
  48              		.loc 1 205 0
  49 0010 0E48     		ldr	r0, .L7+4
  50              	.LVL2:
  51 0012 FFF7FEFF 		bl	uartPrintf
  52              	.LVL3:
 198:filePlayer.c  ****     
  53              		.loc 1 198 0
  54 0016 0025     		movs	r5, #0
 206:filePlayer.c  ****             break;
  55              		.loc 1 206 0
  56 0018 0FE0     		b	.L3
  57              	.LVL4:
  58              	.L2:
 207:filePlayer.c  ****          }
 208:filePlayer.c  ****             
 209:filePlayer.c  ****          if (0 == filePlayer.fno_temp.fname[0])
  59              		.loc 1 209 0
  60 001a 2523     		movs	r3, #37
  61 001c 0A4A     		ldr	r2, .L7
  62 001e D35C     		ldrb	r3, [r2, r3]
  63 0020 002B     		cmp	r3, #0
  64 0022 04D1     		bne	.L4
 210:filePlayer.c  ****          {
 211:filePlayer.c  ****            uartPrintf("FPLAYER: Dir end, restart!\r\n");
  65              		.loc 1 211 0
  66 0024 0A48     		ldr	r0, .L7+8
  67              	.LVL5:
  68 0026 FFF7FEFF 		bl	uartPrintf
  69              	.LVL6:
 198:filePlayer.c  ****     
  70              		.loc 1 198 0
  71 002a 0025     		movs	r5, #0
 212:filePlayer.c  ****            break;              
ARM GAS  C:\Users\DMYTRO~1.FED\AppData\Local\Temp\ccwnL3dO.s 			page 6


  72              		.loc 1 212 0
  73 002c 05E0     		b	.L3
  74              	.LVL7:
  75              	.L4:
 213:filePlayer.c  ****           } else
 214:filePlayer.c  ****           {
 215:filePlayer.c  ****             if (!(filePlayer.fno_temp.fattrib & AM_DIR))
  76              		.loc 1 215 0
  77 002e 2423     		movs	r3, #36
  78 0030 054A     		ldr	r2, .L7
  79 0032 D35C     		ldrb	r3, [r2, r3]
  80 0034 DB06     		lsls	r3, r3, #27
  81 0036 E4D4     		bmi	.L5
 216:filePlayer.c  ****             {
 217:filePlayer.c  ****                ret = true;
  82              		.loc 1 217 0
  83 0038 0125     		movs	r5, #1
  84              	.LVL8:
  85              	.L3:
 218:filePlayer.c  ****                break;
 219:filePlayer.c  ****              }
 220:filePlayer.c  ****           }
 221:filePlayer.c  ****     } while (true);
 222:filePlayer.c  ****         
 223:filePlayer.c  ****     if (FR_OK != res)
  86              		.loc 1 223 0
  87 003a 002C     		cmp	r4, #0
  88 003c 02D0     		beq	.L6
 224:filePlayer.c  ****     {
 225:filePlayer.c  ****        cardErrorPrint(res);
  89              		.loc 1 225 0
  90 003e 2000     		movs	r0, r4
  91 0040 FFF7FEFF 		bl	cardErrorPrint
  92              	.LVL9:
  93              	.L6:
 226:filePlayer.c  ****     }
 227:filePlayer.c  ****         
 228:filePlayer.c  ****     return ret;
 229:filePlayer.c  **** }
  94              		.loc 1 229 0
  95 0044 2800     		movs	r0, r5
  96              		@ sp needed
  97              	.LVL10:
  98              	.LVL11:
  99 0046 70BD     		pop	{r4, r5, r6, pc}
 100              	.L8:
 101              		.align	2
 102              	.L7:
 103 0048 00000000 		.word	.LANCHOR0
 104 004c 00000000 		.word	.LC1
 105 0050 1C000000 		.word	.LC3
 106              		.cfi_endproc
 107              	.LFE7:
 108              		.size	filePlayer_GetNextFile, .-filePlayer_GetNextFile
 109              		.section	.text.filePlayer_GetFileType,"ax",%progbits
 110              		.align	2
 111              		.code	16
ARM GAS  C:\Users\DMYTRO~1.FED\AppData\Local\Temp\ccwnL3dO.s 			page 7


 112              		.thumb_func
 113              		.type	filePlayer_GetFileType, %function
 114              	filePlayer_GetFileType:
 115              	.LFB6:
 179:filePlayer.c  ****     uint32_t i;
 116              		.loc 1 179 0
 117              		.cfi_startproc
 118              		@ args = 0, pretend = 0, frame = 0
 119              		@ frame_needed = 0, uses_anonymous_args = 0
 120 0000 10B5     		push	{r4, lr}
 121              		.cfi_def_cfa_offset 8
 122              		.cfi_offset 4, -8
 123              		.cfi_offset 14, -4
 124              	.LVL12:
 183:filePlayer.c  ****     {
 125              		.loc 1 183 0
 126 0002 0024     		movs	r4, #0
 127 0004 12E0     		b	.L10
 128              	.LVL13:
 129              	.L13:
 185:filePlayer.c  ****         {
 130              		.loc 1 185 0
 131 0006 6300     		lsls	r3, r4, #1
 132 0008 1B19     		adds	r3, r3, r4
 133 000a 5900     		lsls	r1, r3, #1
 134 000c 094B     		ldr	r3, .L14
 135 000e 5918     		adds	r1, r3, r1
 136 0010 0948     		ldr	r0, .L14+4
 137 0012 2530     		adds	r0, r0, #37
 138 0014 FFF7FEFF 		bl	strstr
 139              	.LVL14:
 140 0018 0028     		cmp	r0, #0
 141 001a 06D0     		beq	.L11
 187:filePlayer.c  ****             break;
 142              		.loc 1 187 0
 143 001c 6300     		lsls	r3, r4, #1
 144 001e 1C19     		adds	r4, r3, r4
 145              	.LVL15:
 146 0020 6300     		lsls	r3, r4, #1
 147 0022 044A     		ldr	r2, .L14
 148 0024 D318     		adds	r3, r2, r3
 149 0026 5879     		ldrb	r0, [r3, #5]
 150              	.LVL16:
 188:filePlayer.c  ****         }
 151              		.loc 1 188 0
 152 0028 03E0     		b	.L12
 153              	.LVL17:
 154              	.L11:
 183:filePlayer.c  ****     {
 155              		.loc 1 183 0 discriminator 2
 156 002a 0134     		adds	r4, r4, #1
 157              	.LVL18:
 158              	.L10:
 183:filePlayer.c  ****     {
 159              		.loc 1 183 0 is_stmt 0 discriminator 1
 160 002c 022C     		cmp	r4, #2
 161 002e EAD9     		bls	.L13
ARM GAS  C:\Users\DMYTRO~1.FED\AppData\Local\Temp\ccwnL3dO.s 			page 8


 181:filePlayer.c  ****     
 162              		.loc 1 181 0 is_stmt 1
 163 0030 0020     		movs	r0, #0
 164              	.LVL19:
 165              	.L12:
 193:filePlayer.c  **** 
 166              		.loc 1 193 0
 167              		@ sp needed
 168 0032 10BD     		pop	{r4, pc}
 169              	.L15:
 170              		.align	2
 171              	.L14:
 172 0034 00000000 		.word	.LANCHOR1
 173 0038 00000000 		.word	.LANCHOR0
 174              		.cfi_endproc
 175              	.LFE6:
 176              		.size	filePlayer_GetFileType, .-filePlayer_GetFileType
 177              		.section	.text.filePlayer_Init,"ax",%progbits
 178              		.align	2
 179              		.code	16
 180              		.thumb_func
 181              		.type	filePlayer_Init, %function
 182              	filePlayer_Init:
 183              	.LFB8:
 230:filePlayer.c  **** 
 231:filePlayer.c  **** static bool filePlayer_Init(void)
 232:filePlayer.c  **** {
 184              		.loc 1 232 0
 185              		.cfi_startproc
 186              		@ args = 0, pretend = 0, frame = 0
 187              		@ frame_needed = 0, uses_anonymous_args = 0
 188 0000 10B5     		push	{r4, lr}
 189              		.cfi_def_cfa_offset 8
 190              		.cfi_offset 4, -8
 191              		.cfi_offset 14, -4
 192              	.LVL20:
 233:filePlayer.c  ****     bool res = false;
 234:filePlayer.c  **** 
 235:filePlayer.c  ****     FRESULT resF = f_opendir(&filePlayer.dir, rootDir);
 193              		.loc 1 235 0
 194 0002 0849     		ldr	r1, .L19
 195 0004 1431     		adds	r1, r1, #20
 196 0006 0848     		ldr	r0, .L19+4
 197 0008 FFF7FEFF 		bl	f_opendir
 198              	.LVL21:
 199 000c 041E     		subs	r4, r0, #0
 200              	.LVL22:
 236:filePlayer.c  ****     if (resF == FR_OK) {
 201              		.loc 1 236 0
 202 000e 07D0     		beq	.L18
 237:filePlayer.c  ****         res = true;
 238:filePlayer.c  ****     } else
 239:filePlayer.c  ****     {
 240:filePlayer.c  ****         uartPrintf("FPLAYER: Error openDir\r\n");
 203              		.loc 1 240 0
 204 0010 0648     		ldr	r0, .L19+8
 205              	.LVL23:
ARM GAS  C:\Users\DMYTRO~1.FED\AppData\Local\Temp\ccwnL3dO.s 			page 9


 206 0012 FFF7FEFF 		bl	uartPrintf
 207              	.LVL24:
 241:filePlayer.c  ****         cardErrorPrint(resF);
 208              		.loc 1 241 0
 209 0016 2000     		movs	r0, r4
 210 0018 FFF7FEFF 		bl	cardErrorPrint
 211              	.LVL25:
 233:filePlayer.c  **** 
 212              		.loc 1 233 0
 213 001c 0020     		movs	r0, #0
 214 001e 00E0     		b	.L17
 215              	.LVL26:
 216              	.L18:
 237:filePlayer.c  ****         res = true;
 217              		.loc 1 237 0
 218 0020 0120     		movs	r0, #1
 219              	.LVL27:
 220              	.L17:
 242:filePlayer.c  ****     }
 243:filePlayer.c  ****     
 244:filePlayer.c  ****     return res;
 245:filePlayer.c  **** }
 221              		.loc 1 245 0
 222              		@ sp needed
 223 0022 10BD     		pop	{r4, pc}
 224              	.L20:
 225              		.align	2
 226              	.L19:
 227 0024 00000000 		.word	.LANCHOR1
 228 0028 00000000 		.word	.LANCHOR0
 229 002c 3C000000 		.word	.LC10
 230              		.cfi_endproc
 231              	.LFE8:
 232              		.size	filePlayer_Init, .-filePlayer_Init
 233              		.section	.text.filePlayer_Pause,"ax",%progbits
 234              		.align	2
 235              		.global	filePlayer_Pause
 236              		.code	16
 237              		.thumb_func
 238              		.type	filePlayer_Pause, %function
 239              	filePlayer_Pause:
 240              	.LFB0:
  64:filePlayer.c  ****     if (FILE_PLAYER_PLAY == filePlayer.state)
 241              		.loc 1 64 0
 242              		.cfi_startproc
 243              		@ args = 0, pretend = 0, frame = 0
 244              		@ frame_needed = 0, uses_anonymous_args = 0
 245 0000 10B5     		push	{r4, lr}
 246              		.cfi_def_cfa_offset 8
 247              		.cfi_offset 4, -8
 248              		.cfi_offset 14, -4
  65:filePlayer.c  ****     {
 249              		.loc 1 65 0
 250 0002 3423     		movs	r3, #52
 251 0004 054A     		ldr	r2, .L23
 252 0006 D35C     		ldrb	r3, [r2, r3]
 253 0008 012B     		cmp	r3, #1
ARM GAS  C:\Users\DMYTRO~1.FED\AppData\Local\Temp\ccwnL3dO.s 			page 10


 254 000a 05D1     		bne	.L21
  67:filePlayer.c  ****         filePlayer.state = FILE_PLAYER_PAUSE;
 255              		.loc 1 67 0
 256 000c FFF7FEFF 		bl	player_Pause
 257              	.LVL28:
  68:filePlayer.c  ****     }
 258              		.loc 1 68 0
 259 0010 0221     		movs	r1, #2
 260 0012 3423     		movs	r3, #52
 261 0014 014A     		ldr	r2, .L23
 262 0016 D154     		strb	r1, [r2, r3]
 263              	.L21:
  70:filePlayer.c  **** 
 264              		.loc 1 70 0
 265              		@ sp needed
 266 0018 10BD     		pop	{r4, pc}
 267              	.L24:
 268 001a C046     		.align	2
 269              	.L23:
 270 001c 00000000 		.word	.LANCHOR0
 271              		.cfi_endproc
 272              	.LFE0:
 273              		.size	filePlayer_Pause, .-filePlayer_Pause
 274              		.section	.text.filePlayer_Stop,"ax",%progbits
 275              		.align	2
 276              		.global	filePlayer_Stop
 277              		.code	16
 278              		.thumb_func
 279              		.type	filePlayer_Stop, %function
 280              	filePlayer_Stop:
 281              	.LFB1:
  73:filePlayer.c  ****     if (FILE_PLAYER_START != filePlayer.state)
 282              		.loc 1 73 0
 283              		.cfi_startproc
 284              		@ args = 0, pretend = 0, frame = 0
 285              		@ frame_needed = 0, uses_anonymous_args = 0
 286 0000 10B5     		push	{r4, lr}
 287              		.cfi_def_cfa_offset 8
 288              		.cfi_offset 4, -8
 289              		.cfi_offset 14, -4
  74:filePlayer.c  ****     {
 290              		.loc 1 74 0
 291 0002 3423     		movs	r3, #52
 292 0004 044A     		ldr	r2, .L27
 293 0006 D35C     		ldrb	r3, [r2, r3]
 294 0008 002B     		cmp	r3, #0
 295 000a 04D0     		beq	.L25
  76:filePlayer.c  ****         player_Stop();
 296              		.loc 1 76 0
 297 000c 0321     		movs	r1, #3
 298 000e 3423     		movs	r3, #52
 299 0010 D154     		strb	r1, [r2, r3]
  77:filePlayer.c  ****     }
 300              		.loc 1 77 0
 301 0012 FFF7FEFF 		bl	player_Stop
 302              	.LVL29:
 303              	.L25:
ARM GAS  C:\Users\DMYTRO~1.FED\AppData\Local\Temp\ccwnL3dO.s 			page 11


  79:filePlayer.c  **** 
 304              		.loc 1 79 0
 305              		@ sp needed
 306 0016 10BD     		pop	{r4, pc}
 307              	.L28:
 308              		.align	2
 309              	.L27:
 310 0018 00000000 		.word	.LANCHOR0
 311              		.cfi_endproc
 312              	.LFE1:
 313              		.size	filePlayer_Stop, .-filePlayer_Stop
 314              		.section	.text.filePlayer_isPlay,"ax",%progbits
 315              		.align	2
 316              		.global	filePlayer_isPlay
 317              		.code	16
 318              		.thumb_func
 319              		.type	filePlayer_isPlay, %function
 320              	filePlayer_isPlay:
 321              	.LFB3:
  94:filePlayer.c  ****     return (filePlayer.state == FILE_PLAYER_PLAY);
 322              		.loc 1 94 0
 323              		.cfi_startproc
 324              		@ args = 0, pretend = 0, frame = 0
 325              		@ frame_needed = 0, uses_anonymous_args = 0
 326              		@ link register save eliminated.
  95:filePlayer.c  **** }
 327              		.loc 1 95 0
 328 0000 3423     		movs	r3, #52
 329 0002 034A     		ldr	r2, .L30
 330 0004 D05C     		ldrb	r0, [r2, r3]
 331 0006 0138     		subs	r0, r0, #1
 332 0008 4342     		rsbs	r3, r0, #0
 333 000a 5841     		adcs	r0, r0, r3
 334 000c C0B2     		uxtb	r0, r0
  96:filePlayer.c  **** 
 335              		.loc 1 96 0
 336              		@ sp needed
 337 000e 7047     		bx	lr
 338              	.L31:
 339              		.align	2
 340              	.L30:
 341 0010 00000000 		.word	.LANCHOR0
 342              		.cfi_endproc
 343              	.LFE3:
 344              		.size	filePlayer_isPlay, .-filePlayer_isPlay
 345              		.section	.text.filePlayer_Next,"ax",%progbits
 346              		.align	2
 347              		.global	filePlayer_Next
 348              		.code	16
 349              		.thumb_func
 350              		.type	filePlayer_Next, %function
 351              	filePlayer_Next:
 352              	.LFB4:
  99:filePlayer.c  ****     fileType_t fileType;
 353              		.loc 1 99 0
 354              		.cfi_startproc
 355              		@ args = 0, pretend = 0, frame = 0
ARM GAS  C:\Users\DMYTRO~1.FED\AppData\Local\Temp\ccwnL3dO.s 			page 12


 356              		@ frame_needed = 0, uses_anonymous_args = 0
 357 0000 10B5     		push	{r4, lr}
 358              		.cfi_def_cfa_offset 8
 359              		.cfi_offset 4, -8
 360              		.cfi_offset 14, -4
 361              	.LVL30:
 103:filePlayer.c  ****     {
 362              		.loc 1 103 0
 363 0002 3423     		movs	r3, #52
 364 0004 204A     		ldr	r2, .L43
 365 0006 D35C     		ldrb	r3, [r2, r3]
 366 0008 002B     		cmp	r3, #0
 367 000a 3BD0     		beq	.L32
 105:filePlayer.c  ****         do
 368              		.loc 1 105 0
 369 000c FFF7FEFF 		bl	filePlayer_Stop
 370              	.LVL31:
 371              	.L40:
 108:filePlayer.c  ****             if (!ret)
 372              		.loc 1 108 0
 373 0010 FFF7FEFF 		bl	filePlayer_GetNextFile
 374              	.LVL32:
 375 0014 041E     		subs	r4, r0, #0
 376              	.LVL33:
 109:filePlayer.c  ****             {
 377              		.loc 1 109 0
 378 0016 07D1     		bne	.L34
 111:filePlayer.c  ****                 filePlayer.state = FILE_PLAYER_START;
 379              		.loc 1 111 0
 380 0018 1C48     		ldr	r0, .L43+4
 381              	.LVL34:
 382 001a FFF7FEFF 		bl	uartPrintf
 383              	.LVL35:
 112:filePlayer.c  ****                 break;
 384              		.loc 1 112 0
 385 001e 0021     		movs	r1, #0
 386 0020 3423     		movs	r3, #52
 387 0022 194A     		ldr	r2, .L43
 388 0024 D154     		strb	r1, [r2, r3]
 113:filePlayer.c  ****             }
 389              		.loc 1 113 0
 390 0026 27E0     		b	.L35
 391              	.LVL36:
 392              	.L34:
 116:filePlayer.c  ****             uartPrintf("FPLAYER: %s Type: %d\r\n", filePlayer.fno_temp.fname, fileType);
 393              		.loc 1 116 0
 394 0028 FFF7FEFF 		bl	filePlayer_GetFileType
 395              	.LVL37:
 396 002c 0200     		movs	r2, r0
 397 002e 0400     		movs	r4, r0
 398              	.LVL38:
 117:filePlayer.c  ****             switch(fileType)
 399              		.loc 1 117 0
 400 0030 1549     		ldr	r1, .L43
 401 0032 2531     		adds	r1, r1, #37
 402 0034 1648     		ldr	r0, .L43+8
 403 0036 FFF7FEFF 		bl	uartPrintf
ARM GAS  C:\Users\DMYTRO~1.FED\AppData\Local\Temp\ccwnL3dO.s 			page 13


 404              	.LVL39:
 118:filePlayer.c  ****             {
 405              		.loc 1 118 0
 406 003a 022C     		cmp	r4, #2
 407 003c 13D0     		beq	.L37
 408 003e 032C     		cmp	r4, #3
 409 0040 02D0     		beq	.L38
 410 0042 012C     		cmp	r4, #1
 411 0044 15D1     		bne	.L42
 412 0046 05E0     		b	.L39
 413              	.L38:
 121:filePlayer.c  ****                     break;
 414              		.loc 1 121 0
 415 0048 0F48     		ldr	r0, .L43
 416 004a 2530     		adds	r0, r0, #37
 417 004c FFF7FEFF 		bl	pcmPlayerPlayWav
 418              	.LVL40:
 419 0050 0400     		movs	r4, r0
 420              	.LVL41:
 122:filePlayer.c  ****                 
 421              		.loc 1 122 0
 422 0052 0FE0     		b	.L36
 423              	.LVL42:
 424              	.L39:
 125:filePlayer.c  ****                     ret = pcmPlayerPlay(filePlayer.fno_temp.fname);
 425              		.loc 1 125 0
 426 0054 0320     		movs	r0, #3
 427 0056 FFF7FEFF 		bl	audio_SetSampleRate
 428              	.LVL43:
 126:filePlayer.c  ****                     break;
 429              		.loc 1 126 0
 430 005a 0B48     		ldr	r0, .L43
 431 005c 2530     		adds	r0, r0, #37
 432 005e FFF7FEFF 		bl	pcmPlayerPlay
 433              	.LVL44:
 434 0062 0400     		movs	r4, r0
 435              	.LVL45:
 127:filePlayer.c  ****                 
 436              		.loc 1 127 0
 437 0064 06E0     		b	.L36
 438              	.LVL46:
 439              	.L37:
 130:filePlayer.c  ****                     break;
 440              		.loc 1 130 0
 441 0066 0848     		ldr	r0, .L43
 442 0068 2530     		adds	r0, r0, #37
 443 006a FFF7FEFF 		bl	midiPlayer_Play
 444              	.LVL47:
 445 006e 0400     		movs	r4, r0
 446              	.LVL48:
 131:filePlayer.c  ****                 
 447              		.loc 1 131 0
 448 0070 00E0     		b	.L36
 449              	.LVL49:
 450              	.L42:
 134:filePlayer.c  ****                     break;
 451              		.loc 1 134 0
ARM GAS  C:\Users\DMYTRO~1.FED\AppData\Local\Temp\ccwnL3dO.s 			page 14


 452 0072 0024     		movs	r4, #0
 453              	.L36:
 454              	.LVL50:
 137:filePlayer.c  ****         
 455              		.loc 1 137 0
 456 0074 002C     		cmp	r4, #0
 457 0076 CBD0     		beq	.L40
 458              	.LVL51:
 459              	.L35:
 139:filePlayer.c  ****         {
 460              		.loc 1 139 0
 461 0078 002C     		cmp	r4, #0
 462 007a 03D0     		beq	.L32
 141:filePlayer.c  ****         }
 463              		.loc 1 141 0
 464 007c 0121     		movs	r1, #1
 465 007e 3423     		movs	r3, #52
 466 0080 014A     		ldr	r2, .L43
 467 0082 D154     		strb	r1, [r2, r3]
 468              	.LVL52:
 469              	.L32:
 144:filePlayer.c  **** 
 470              		.loc 1 144 0
 471              		@ sp needed
 472 0084 10BD     		pop	{r4, pc}
 473              	.L44:
 474 0086 C046     		.align	2
 475              	.L43:
 476 0088 00000000 		.word	.LANCHOR0
 477 008c 58000000 		.word	.LC16
 478 0090 84000000 		.word	.LC18
 479              		.cfi_endproc
 480              	.LFE4:
 481              		.size	filePlayer_Next, .-filePlayer_Next
 482              		.section	.text.filePlayer_Play,"ax",%progbits
 483              		.align	2
 484              		.global	filePlayer_Play
 485              		.code	16
 486              		.thumb_func
 487              		.type	filePlayer_Play, %function
 488              	filePlayer_Play:
 489              	.LFB2:
  82:filePlayer.c  ****     if (FILE_PLAYER_PAUSE == filePlayer.state)
 490              		.loc 1 82 0
 491              		.cfi_startproc
 492              		@ args = 0, pretend = 0, frame = 0
 493              		@ frame_needed = 0, uses_anonymous_args = 0
 494 0000 10B5     		push	{r4, lr}
 495              		.cfi_def_cfa_offset 8
 496              		.cfi_offset 4, -8
 497              		.cfi_offset 14, -4
  83:filePlayer.c  ****     {
 498              		.loc 1 83 0
 499 0002 3423     		movs	r3, #52
 500 0004 064A     		ldr	r2, .L48
 501 0006 D35C     		ldrb	r3, [r2, r3]
 502 0008 022B     		cmp	r3, #2
ARM GAS  C:\Users\DMYTRO~1.FED\AppData\Local\Temp\ccwnL3dO.s 			page 15


 503 000a 05D1     		bne	.L46
  85:filePlayer.c  ****         player_Play();
 504              		.loc 1 85 0
 505 000c 0121     		movs	r1, #1
 506 000e 3233     		adds	r3, r3, #50
 507 0010 D154     		strb	r1, [r2, r3]
  86:filePlayer.c  ****     } else
 508              		.loc 1 86 0
 509 0012 FFF7FEFF 		bl	player_Play
 510              	.LVL53:
 511 0016 01E0     		b	.L45
 512              	.L46:
  89:filePlayer.c  ****     }
 513              		.loc 1 89 0
 514 0018 FFF7FEFF 		bl	filePlayer_Next
 515              	.LVL54:
 516              	.L45:
  91:filePlayer.c  **** 
 517              		.loc 1 91 0
 518              		@ sp needed
 519 001c 10BD     		pop	{r4, pc}
 520              	.L49:
 521 001e C046     		.align	2
 522              	.L48:
 523 0020 00000000 		.word	.LANCHOR0
 524              		.cfi_endproc
 525              	.LFE2:
 526              		.size	filePlayer_Play, .-filePlayer_Play
 527              		.section	.text.filePlayer_Run,"ax",%progbits
 528              		.align	2
 529              		.global	filePlayer_Run
 530              		.code	16
 531              		.thumb_func
 532              		.type	filePlayer_Run, %function
 533              	filePlayer_Run:
 534              	.LFB5:
 147:filePlayer.c  ****     player_Run();
 535              		.loc 1 147 0
 536              		.cfi_startproc
 537              		@ args = 0, pretend = 0, frame = 0
 538              		@ frame_needed = 0, uses_anonymous_args = 0
 539 0000 10B5     		push	{r4, lr}
 540              		.cfi_def_cfa_offset 8
 541              		.cfi_offset 4, -8
 542              		.cfi_offset 14, -4
 148:filePlayer.c  ****     switch (filePlayer.state)
 543              		.loc 1 148 0
 544 0002 FFF7FEFF 		bl	player_Run
 545              	.LVL55:
 149:filePlayer.c  ****     {
 546              		.loc 1 149 0
 547 0006 3423     		movs	r3, #52
 548 0008 124A     		ldr	r2, .L56
 549 000a D15C     		ldrb	r1, [r2, r3]
 550 000c 0129     		cmp	r1, #1
 551 000e 10D0     		beq	.L52
 552 0010 0029     		cmp	r1, #0
ARM GAS  C:\Users\DMYTRO~1.FED\AppData\Local\Temp\ccwnL3dO.s 			page 16


 553 0012 02D0     		beq	.L53
 554 0014 0329     		cmp	r1, #3
 555 0016 13D8     		bhi	.L51
 556 0018 1BE0     		b	.L50
 557              	.L53:
 152:filePlayer.c  ****             {
 558              		.loc 1 152 0
 559 001a FFF7FEFF 		bl	filePlayer_Init
 560              	.LVL56:
 561 001e 0028     		cmp	r0, #0
 562 0020 17D0     		beq	.L50
 154:filePlayer.c  ****                 filePlayer.state = FILE_PLAYER_STOP;
 563              		.loc 1 154 0
 564 0022 0D48     		ldr	r0, .L56+4
 565 0024 FFF7FEFF 		bl	uartPrintf
 566              	.LVL57:
 155:filePlayer.c  ****             }
 567              		.loc 1 155 0
 568 0028 0321     		movs	r1, #3
 569 002a 3423     		movs	r3, #52
 570 002c 094A     		ldr	r2, .L56
 571 002e D154     		strb	r1, [r2, r3]
 572 0030 0FE0     		b	.L50
 573              	.L52:
 164:filePlayer.c  ****             {
 574              		.loc 1 164 0
 575 0032 FFF7FEFF 		bl	player_IsPlaying
 576              	.LVL58:
 577 0036 0028     		cmp	r0, #0
 578 0038 0BD1     		bne	.L50
 166:filePlayer.c  ****             }
 579              		.loc 1 166 0
 580 003a FFF7FEFF 		bl	filePlayer_Next
 581              	.LVL59:
 582 003e 08E0     		b	.L50
 583              	.L51:
 171:filePlayer.c  ****             ASSERT(false);
 584              		.loc 1 171 0
 585 0040 0648     		ldr	r0, .L56+8
 586 0042 FFF7FEFF 		bl	uartPrintf
 587              	.LVL60:
 172:filePlayer.c  ****             break;
 588              		.loc 1 172 0
 589 0046 AC22     		movs	r2, #172
 590 0048 0549     		ldr	r1, .L56+12
 591 004a 0648     		ldr	r0, .L56+16
 592 004c FFF7FEFF 		bl	uartPrintf
 593              	.LVL61:
 594              	.L55:
 595 0050 FEE7     		b	.L55
 596              	.L50:
 176:filePlayer.c  **** 
 597              		.loc 1 176 0
 598              		@ sp needed
 599 0052 10BD     		pop	{r4, pc}
 600              	.L57:
 601              		.align	2
ARM GAS  C:\Users\DMYTRO~1.FED\AppData\Local\Temp\ccwnL3dO.s 			page 17


 602              	.L56:
 603 0054 00000000 		.word	.LANCHOR0
 604 0058 9C000000 		.word	.LC22
 605 005c B0000000 		.word	.LC24
 606 0060 CC000000 		.word	.LC26
 607 0064 DC000000 		.word	.LC28
 608              		.cfi_endproc
 609              	.LFE5:
 610              		.size	filePlayer_Run, .-filePlayer_Run
 611              		.global	rootDir
 612              		.section	.rodata
 613              		.align	2
 614              		.set	.LANCHOR1,. + 0
 615              		.type	extDB, %object
 616              		.size	extDB, 18
 617              	extDB:
 618 0000 2E574156 		.ascii	".WAV\000"
 618      00
 619 0005 03       		.byte	3
 620 0006 2E50434D 		.ascii	".PCM\000"
 620      00
 621 000b 01       		.byte	1
 622 000c 2E4D4944 		.ascii	".MID\000"
 622      00
 623 0011 02       		.byte	2
 624 0012 0000     		.space	2
 625              		.type	rootDir, %object
 626              		.size	rootDir, 2
 627              	rootDir:
 628 0014 2F00     		.ascii	"/\000"
 629              		.section	.rodata.str1.4,"aMS",%progbits,1
 630              		.align	2
 631              	.LC1:
 632 0000 46504C41 		.ascii	"FPLAYER: Error readdir\015\012\000"
 632      5945523A 
 632      20457272 
 632      6F722072 
 632      65616464 
 633 0019 000000   		.space	3
 634              	.LC3:
 635 001c 46504C41 		.ascii	"FPLAYER: Dir end, restart!\015\012\000"
 635      5945523A 
 635      20446972 
 635      20656E64 
 635      2C207265 
 636 0039 000000   		.space	3
 637              	.LC10:
 638 003c 46504C41 		.ascii	"FPLAYER: Error openDir\015\012\000"
 638      5945523A 
 638      20457272 
 638      6F72206F 
 638      70656E44 
 639 0055 000000   		.space	3
 640              	.LC16:
 641 0058 46504C41 		.ascii	"FPLAYER: No files, rewind to the begining\015\012\000"
 641      5945523A 
 641      204E6F20 
ARM GAS  C:\Users\DMYTRO~1.FED\AppData\Local\Temp\ccwnL3dO.s 			page 18


 641      66696C65 
 641      732C2072 
 642              	.LC18:
 643 0084 46504C41 		.ascii	"FPLAYER: %s Type: %d\015\012\000"
 643      5945523A 
 643      20257320 
 643      54797065 
 643      3A202564 
 644 009b 00       		.space	1
 645              	.LC22:
 646 009c 46504C41 		.ascii	"FPLAYER: Started!\015\012\000"
 646      5945523A 
 646      20537461 
 646      72746564 
 646      210D0A00 
 647              	.LC24:
 648 00b0 46504C41 		.ascii	"FPLAYER: Wrong state %d\015\012\000"
 648      5945523A 
 648      2057726F 
 648      6E672073 
 648      74617465 
 649 00ca 0000     		.space	2
 650              	.LC26:
 651 00cc 66696C65 		.ascii	"filePlayer.c\000"
 651      506C6179 
 651      65722E63 
 651      00
 652 00d9 000000   		.space	3
 653              	.LC28:
 654 00dc 52756E74 		.ascii	"RuntimeError: Assert in file: %s line: %d\015\012\000"
 654      696D6545 
 654      72726F72 
 654      3A204173 
 654      73657274 
 655              		.bss
 656              		.align	2
 657              		.set	.LANCHOR0,. + 0
 658              		.type	filePlayer, %object
 659              		.size	filePlayer, 56
 660              	filePlayer:
 661 0000 00000000 		.space	56
 661      00000000 
 661      00000000 
 661      00000000 
 661      00000000 
 662              		.text
 663              	.Letext0:
 664              		.file 2 "c:\\program files (x86)\\cypress\\psoc creator\\4.2\\psoc creator\\import\\gnu\\arm\\5.4.
 665              		.file 3 "fatfs\\integer.h"
 666              		.file 4 "fatfs\\ff.h"
 667              		.file 5 "c:\\program files (x86)\\cypress\\psoc creator\\4.2\\psoc creator\\import\\gnu\\arm\\5.4.
 668              		.file 6 "audio.h"
 669              		.file 7 "uartPrint.h"
 670              		.file 8 "card.h"
 671              		.file 9 "c:\\program files (x86)\\cypress\\psoc creator\\4.2\\psoc creator\\import\\gnu\\arm\\5.4.
 672              		.file 10 "player.h"
 673              		.file 11 "pcmPlayer.h"
ARM GAS  C:\Users\DMYTRO~1.FED\AppData\Local\Temp\ccwnL3dO.s 			page 19


 674              		.file 12 "midiPlayer.h"