ARM GAS  C:\Users\DMYTRO~1.FED\AppData\Local\Temp\ccvPy5Kr.s 			page 1


   1              		.syntax unified
   2              		.cpu cortex-m0plus
   3              		.fpu softvfp
   4              		.eabi_attribute 20, 1
   5              		.eabi_attribute 21, 1
   6              		.eabi_attribute 23, 3
   7              		.eabi_attribute 24, 1
   8              		.eabi_attribute 25, 1
   9              		.eabi_attribute 26, 1
  10              		.eabi_attribute 30, 1
  11              		.eabi_attribute 34, 0
  12              		.eabi_attribute 18, 4
  13              		.thumb
  14              		.syntax unified
  15              		.file	"IDAC7_1.c"
  16              		.text
  17              	.Ltext0:
  18              		.cfi_sections	.debug_frame
  19              		.section	.text.IDAC7_1_Enable,"ax",%progbits
  20              		.align	2
  21              		.global	IDAC7_1_Enable
  22              		.code	16
  23              		.thumb_func
  24              		.type	IDAC7_1_Enable, %function
  25              	IDAC7_1_Enable:
  26              	.LFB2:
  27              		.file 1 "Generated_Source\\PSoC4\\IDAC7_1.c"
   1:Generated_Source\PSoC4/IDAC7_1.c **** /***************************************************************************//**
   2:Generated_Source\PSoC4/IDAC7_1.c **** * \file IDAC7_1.c
   3:Generated_Source\PSoC4/IDAC7_1.c **** * \version 1.10
   4:Generated_Source\PSoC4/IDAC7_1.c **** *
   5:Generated_Source\PSoC4/IDAC7_1.c **** * \brief
   6:Generated_Source\PSoC4/IDAC7_1.c **** *  This file provides the source code of APIs for the IDAC7 component.
   7:Generated_Source\PSoC4/IDAC7_1.c **** *
   8:Generated_Source\PSoC4/IDAC7_1.c **** *******************************************************************************
   9:Generated_Source\PSoC4/IDAC7_1.c **** * \copyright
  10:Generated_Source\PSoC4/IDAC7_1.c **** * Copyright 2017, Cypress Semiconductor Corporation.  All rights reserved.
  11:Generated_Source\PSoC4/IDAC7_1.c **** * You may use this file only in accordance with the license, terms, conditions,
  12:Generated_Source\PSoC4/IDAC7_1.c **** * disclaimers, and limitations in the end user license agreement accompanying
  13:Generated_Source\PSoC4/IDAC7_1.c **** * the software package with which this file was provided.
  14:Generated_Source\PSoC4/IDAC7_1.c **** *******************************************************************************/
  15:Generated_Source\PSoC4/IDAC7_1.c **** 
  16:Generated_Source\PSoC4/IDAC7_1.c **** #include "IDAC7_1.h"
  17:Generated_Source\PSoC4/IDAC7_1.c **** 
  18:Generated_Source\PSoC4/IDAC7_1.c **** uint32 IDAC7_1_initVar = 0u;
  19:Generated_Source\PSoC4/IDAC7_1.c **** 
  20:Generated_Source\PSoC4/IDAC7_1.c **** 
  21:Generated_Source\PSoC4/IDAC7_1.c **** /*******************************************************************************
  22:Generated_Source\PSoC4/IDAC7_1.c **** * Function Name: IDAC7_1_Init
  23:Generated_Source\PSoC4/IDAC7_1.c **** ****************************************************************************//**
  24:Generated_Source\PSoC4/IDAC7_1.c **** *
  25:Generated_Source\PSoC4/IDAC7_1.c **** *  Initializes all initial parameters and operating modes.
  26:Generated_Source\PSoC4/IDAC7_1.c **** *
  27:Generated_Source\PSoC4/IDAC7_1.c **** *******************************************************************************/
  28:Generated_Source\PSoC4/IDAC7_1.c **** void IDAC7_1_Init(void)
  29:Generated_Source\PSoC4/IDAC7_1.c **** {
  30:Generated_Source\PSoC4/IDAC7_1.c ****     uint8 interruptState;
ARM GAS  C:\Users\DMYTRO~1.FED\AppData\Local\Temp\ccvPy5Kr.s 			page 2


  31:Generated_Source\PSoC4/IDAC7_1.c **** 
  32:Generated_Source\PSoC4/IDAC7_1.c ****     /* Set IDAC default values */
  33:Generated_Source\PSoC4/IDAC7_1.c ****     interruptState = CyEnterCriticalSection();
  34:Generated_Source\PSoC4/IDAC7_1.c **** 
  35:Generated_Source\PSoC4/IDAC7_1.c ****     IDAC7_1_IDAC_CONTROL_REG &= (~IDAC7_1_POLY_DYN  &
  36:Generated_Source\PSoC4/IDAC7_1.c ****                                           ~IDAC7_1_LEG1_MODE_MASK &
  37:Generated_Source\PSoC4/IDAC7_1.c ****                                           ~IDAC7_1_LEG2_MODE_MASK &
  38:Generated_Source\PSoC4/IDAC7_1.c ****                                           ~IDAC7_1_DSI_CTRL_EN);
  39:Generated_Source\PSoC4/IDAC7_1.c **** 
  40:Generated_Source\PSoC4/IDAC7_1.c ****     CyExitCriticalSection(interruptState);
  41:Generated_Source\PSoC4/IDAC7_1.c **** 
  42:Generated_Source\PSoC4/IDAC7_1.c ****     /* Set initial configuration */
  43:Generated_Source\PSoC4/IDAC7_1.c ****     IDAC7_1_SetValue(IDAC7_1_CURRENT_VALUE);
  44:Generated_Source\PSoC4/IDAC7_1.c ****     IDAC7_1_SetPolarity(IDAC7_1_CURRENT_POLARITY);
  45:Generated_Source\PSoC4/IDAC7_1.c ****     IDAC7_1_SetRange(IDAC7_1_CURRENT_RANGE);
  46:Generated_Source\PSoC4/IDAC7_1.c **** }
  47:Generated_Source\PSoC4/IDAC7_1.c **** 
  48:Generated_Source\PSoC4/IDAC7_1.c **** 
  49:Generated_Source\PSoC4/IDAC7_1.c **** /*******************************************************************************
  50:Generated_Source\PSoC4/IDAC7_1.c **** * Function Name: IDAC7_1_Enable
  51:Generated_Source\PSoC4/IDAC7_1.c **** ****************************************************************************//**
  52:Generated_Source\PSoC4/IDAC7_1.c **** *
  53:Generated_Source\PSoC4/IDAC7_1.c **** *  Enables the IDAC for operation.
  54:Generated_Source\PSoC4/IDAC7_1.c **** *
  55:Generated_Source\PSoC4/IDAC7_1.c **** *******************************************************************************/
  56:Generated_Source\PSoC4/IDAC7_1.c **** void IDAC7_1_Enable(void)
  57:Generated_Source\PSoC4/IDAC7_1.c **** {
  28              		.loc 1 57 0
  29              		.cfi_startproc
  30              		@ args = 0, pretend = 0, frame = 0
  31              		@ frame_needed = 0, uses_anonymous_args = 0
  32 0000 10B5     		push	{r4, lr}
  33              		.cfi_def_cfa_offset 8
  34              		.cfi_offset 4, -8
  35              		.cfi_offset 14, -4
  58:Generated_Source\PSoC4/IDAC7_1.c ****     uint8 interruptState;
  59:Generated_Source\PSoC4/IDAC7_1.c **** 
  60:Generated_Source\PSoC4/IDAC7_1.c ****     interruptState = CyEnterCriticalSection();
  36              		.loc 1 60 0
  37 0002 FFF7FEFF 		bl	CyEnterCriticalSection
  38              	.LVL0:
  61:Generated_Source\PSoC4/IDAC7_1.c **** 
  62:Generated_Source\PSoC4/IDAC7_1.c ****     /* Enable CSD */
  63:Generated_Source\PSoC4/IDAC7_1.c ****     IDAC7_1_CSD_CONTROL_REG |= IDAC7_1_IDAC_EN_CONFIG;
  39              		.loc 1 63 0
  40 0006 044A     		ldr	r2, .L2
  41 0008 1368     		ldr	r3, [r2]
  42 000a 0449     		ldr	r1, .L2+4
  43 000c 0B43     		orrs	r3, r1
  44 000e 1360     		str	r3, [r2]
  64:Generated_Source\PSoC4/IDAC7_1.c **** 
  65:Generated_Source\PSoC4/IDAC7_1.c ****     CyExitCriticalSection(interruptState);
  45              		.loc 1 65 0
  46 0010 FFF7FEFF 		bl	CyExitCriticalSection
  47              	.LVL1:
  66:Generated_Source\PSoC4/IDAC7_1.c **** }
  48              		.loc 1 66 0
ARM GAS  C:\Users\DMYTRO~1.FED\AppData\Local\Temp\ccvPy5Kr.s 			page 3


  49              		@ sp needed
  50 0014 10BD     		pop	{r4, pc}
  51              	.L3:
  52 0016 C046     		.align	2
  53              	.L2:
  54 0018 00000B40 		.word	1074462720
  55 001c 00100080 		.word	-2147479552
  56              		.cfi_endproc
  57              	.LFE2:
  58              		.size	IDAC7_1_Enable, .-IDAC7_1_Enable
  59              		.section	.text.IDAC7_1_Stop,"ax",%progbits
  60              		.align	2
  61              		.global	IDAC7_1_Stop
  62              		.code	16
  63              		.thumb_func
  64              		.type	IDAC7_1_Stop, %function
  65              	IDAC7_1_Stop:
  66              	.LFB4:
  67:Generated_Source\PSoC4/IDAC7_1.c **** 
  68:Generated_Source\PSoC4/IDAC7_1.c **** 
  69:Generated_Source\PSoC4/IDAC7_1.c **** /*******************************************************************************
  70:Generated_Source\PSoC4/IDAC7_1.c **** * Function Name: IDAC7_1_Start
  71:Generated_Source\PSoC4/IDAC7_1.c **** ****************************************************************************//**
  72:Generated_Source\PSoC4/IDAC7_1.c **** *
  73:Generated_Source\PSoC4/IDAC7_1.c **** *  Initializes all the parameters required to setup the component as defined
  74:Generated_Source\PSoC4/IDAC7_1.c **** *  in the customizer.
  75:Generated_Source\PSoC4/IDAC7_1.c **** *
  76:Generated_Source\PSoC4/IDAC7_1.c **** *  This component does not stop the CSD IP block. One possible way to turn off 
  77:Generated_Source\PSoC4/IDAC7_1.c **** *  the entire CSD block is to use a specific define (IDAC7_1_CSD_CONFIG_ENABLE) 
  78:Generated_Source\PSoC4/IDAC7_1.c **** *  for the m0s8csdv2 IP block control register (IDAC7_1_CSD_CONTROL_REG): 
  79:Generated_Source\PSoC4/IDAC7_1.c **** *  IDAC7_1_CSD_CONTROL_REG &= ~IDAC7_1_CSD_CONFIG_ENABLE
  80:Generated_Source\PSoC4/IDAC7_1.c **** *
  81:Generated_Source\PSoC4/IDAC7_1.c **** * \globalvars
  82:Generated_Source\PSoC4/IDAC7_1.c **** *  \ref IDAC7_1_initVar - this variable is used to indicate the initial
  83:Generated_Source\PSoC4/IDAC7_1.c **** *  configuration of this component. The variable is initialized to zero and
  84:Generated_Source\PSoC4/IDAC7_1.c **** *  set to 1 the first time IDAC7_1_Start() is called. This allows
  85:Generated_Source\PSoC4/IDAC7_1.c **** *  the component initialization without re-initialization in all subsequent
  86:Generated_Source\PSoC4/IDAC7_1.c **** *  calls to the IDAC7_1_Start() routine.
  87:Generated_Source\PSoC4/IDAC7_1.c **** *
  88:Generated_Source\PSoC4/IDAC7_1.c **** *******************************************************************************/
  89:Generated_Source\PSoC4/IDAC7_1.c **** void IDAC7_1_Start(void)
  90:Generated_Source\PSoC4/IDAC7_1.c **** {
  91:Generated_Source\PSoC4/IDAC7_1.c ****     if(0u == IDAC7_1_initVar)
  92:Generated_Source\PSoC4/IDAC7_1.c ****     {
  93:Generated_Source\PSoC4/IDAC7_1.c ****         IDAC7_1_Init();
  94:Generated_Source\PSoC4/IDAC7_1.c ****         IDAC7_1_initVar = 1u;
  95:Generated_Source\PSoC4/IDAC7_1.c ****     }
  96:Generated_Source\PSoC4/IDAC7_1.c **** 
  97:Generated_Source\PSoC4/IDAC7_1.c ****     IDAC7_1_Enable();
  98:Generated_Source\PSoC4/IDAC7_1.c **** }
  99:Generated_Source\PSoC4/IDAC7_1.c **** 
 100:Generated_Source\PSoC4/IDAC7_1.c **** 
 101:Generated_Source\PSoC4/IDAC7_1.c **** /*******************************************************************************
 102:Generated_Source\PSoC4/IDAC7_1.c **** * Function Name: IDAC7_1_Stop
 103:Generated_Source\PSoC4/IDAC7_1.c **** ****************************************************************************//**
 104:Generated_Source\PSoC4/IDAC7_1.c **** *
 105:Generated_Source\PSoC4/IDAC7_1.c **** *  The Stop is not required.
ARM GAS  C:\Users\DMYTRO~1.FED\AppData\Local\Temp\ccvPy5Kr.s 			page 4


 106:Generated_Source\PSoC4/IDAC7_1.c **** *
 107:Generated_Source\PSoC4/IDAC7_1.c **** *  This component does not stop the CSD IP block. One possible way to turn off 
 108:Generated_Source\PSoC4/IDAC7_1.c **** *  the entire CSD block is to use a specific define (IDAC7_1_CSD_CONFIG_ENABLE) 
 109:Generated_Source\PSoC4/IDAC7_1.c **** *  for the m0s8csdv2 IP block control register (IDAC7_1_CSD_CONTROL_REG): 
 110:Generated_Source\PSoC4/IDAC7_1.c **** *  IDAC7_1_CSD_CONTROL_REG &= ~IDAC7_1_CSD_CONFIG_ENABLE
 111:Generated_Source\PSoC4/IDAC7_1.c **** *
 112:Generated_Source\PSoC4/IDAC7_1.c **** *******************************************************************************/
 113:Generated_Source\PSoC4/IDAC7_1.c **** void IDAC7_1_Stop(void)
 114:Generated_Source\PSoC4/IDAC7_1.c **** {
  67              		.loc 1 114 0
  68              		.cfi_startproc
  69              		@ args = 0, pretend = 0, frame = 0
  70              		@ frame_needed = 0, uses_anonymous_args = 0
  71              		@ link register save eliminated.
 115:Generated_Source\PSoC4/IDAC7_1.c ****     /* Do nothing */
 116:Generated_Source\PSoC4/IDAC7_1.c **** }
  72              		.loc 1 116 0
  73              		@ sp needed
  74 0000 7047     		bx	lr
  75              		.cfi_endproc
  76              	.LFE4:
  77              		.size	IDAC7_1_Stop, .-IDAC7_1_Stop
  78 0002 C046     		.section	.text.IDAC7_1_SetValue,"ax",%progbits
  79              		.align	2
  80              		.global	IDAC7_1_SetValue
  81              		.code	16
  82              		.thumb_func
  83              		.type	IDAC7_1_SetValue, %function
  84              	IDAC7_1_SetValue:
  85              	.LFB5:
 117:Generated_Source\PSoC4/IDAC7_1.c **** 
 118:Generated_Source\PSoC4/IDAC7_1.c **** 
 119:Generated_Source\PSoC4/IDAC7_1.c **** /*******************************************************************************
 120:Generated_Source\PSoC4/IDAC7_1.c **** * Function Name: IDAC7_1_SetValue
 121:Generated_Source\PSoC4/IDAC7_1.c **** ****************************************************************************//**
 122:Generated_Source\PSoC4/IDAC7_1.c **** *
 123:Generated_Source\PSoC4/IDAC7_1.c **** *  Sets the IDAC current to the new value.
 124:Generated_Source\PSoC4/IDAC7_1.c **** *
 125:Generated_Source\PSoC4/IDAC7_1.c **** *  \param uint32 current: The current value
 126:Generated_Source\PSoC4/IDAC7_1.c **** *  * Valid range    : [0 - 127]
 127:Generated_Source\PSoC4/IDAC7_1.c **** *
 128:Generated_Source\PSoC4/IDAC7_1.c **** *******************************************************************************/
 129:Generated_Source\PSoC4/IDAC7_1.c **** void IDAC7_1_SetValue(uint32 current)
 130:Generated_Source\PSoC4/IDAC7_1.c **** {
  86              		.loc 1 130 0
  87              		.cfi_startproc
  88              		@ args = 0, pretend = 0, frame = 0
  89              		@ frame_needed = 0, uses_anonymous_args = 0
  90              	.LVL2:
  91 0000 10B5     		push	{r4, lr}
  92              		.cfi_def_cfa_offset 8
  93              		.cfi_offset 4, -8
  94              		.cfi_offset 14, -4
  95 0002 0400     		movs	r4, r0
 131:Generated_Source\PSoC4/IDAC7_1.c ****     uint8 interruptState;
 132:Generated_Source\PSoC4/IDAC7_1.c ****     uint32 newRegisterValue;
 133:Generated_Source\PSoC4/IDAC7_1.c **** 
ARM GAS  C:\Users\DMYTRO~1.FED\AppData\Local\Temp\ccvPy5Kr.s 			page 5


 134:Generated_Source\PSoC4/IDAC7_1.c ****     interruptState = CyEnterCriticalSection();
  96              		.loc 1 134 0
  97 0004 FFF7FEFF 		bl	CyEnterCriticalSection
  98              	.LVL3:
 135:Generated_Source\PSoC4/IDAC7_1.c **** 
 136:Generated_Source\PSoC4/IDAC7_1.c ****     newRegisterValue = IDAC7_1_IDAC_CONTROL_REG & ~IDAC7_1_CURRENT_VALUE_MASK;
  99              		.loc 1 136 0
 100 0008 044A     		ldr	r2, .L6
 101 000a 1368     		ldr	r3, [r2]
 102 000c 7F21     		movs	r1, #127
 103 000e 8B43     		bics	r3, r1
 104              	.LVL4:
 137:Generated_Source\PSoC4/IDAC7_1.c **** 
 138:Generated_Source\PSoC4/IDAC7_1.c ****     newRegisterValue |= ((current << IDAC7_1_CURRENT_VALUE_POS) & IDAC7_1_CURRENT_VALUE_MASK);
 105              		.loc 1 138 0
 106 0010 0C40     		ands	r4, r1
 107              	.LVL5:
 108 0012 1C43     		orrs	r4, r3
 109              	.LVL6:
 139:Generated_Source\PSoC4/IDAC7_1.c **** 
 140:Generated_Source\PSoC4/IDAC7_1.c ****     IDAC7_1_IDAC_CONTROL_REG = newRegisterValue;
 110              		.loc 1 140 0
 111 0014 1460     		str	r4, [r2]
 141:Generated_Source\PSoC4/IDAC7_1.c **** 
 142:Generated_Source\PSoC4/IDAC7_1.c ****     CyExitCriticalSection(interruptState);
 112              		.loc 1 142 0
 113 0016 FFF7FEFF 		bl	CyExitCriticalSection
 114              	.LVL7:
 143:Generated_Source\PSoC4/IDAC7_1.c **** }
 115              		.loc 1 143 0
 116              		@ sp needed
 117              	.LVL8:
 118 001a 10BD     		pop	{r4, pc}
 119              	.L7:
 120              		.align	2
 121              	.L6:
 122 001c C0010B40 		.word	1074463168
 123              		.cfi_endproc
 124              	.LFE5:
 125              		.size	IDAC7_1_SetValue, .-IDAC7_1_SetValue
 126              		.section	.text.IDAC7_1_SetPolarity,"ax",%progbits
 127              		.align	2
 128              		.global	IDAC7_1_SetPolarity
 129              		.code	16
 130              		.thumb_func
 131              		.type	IDAC7_1_SetPolarity, %function
 132              	IDAC7_1_SetPolarity:
 133              	.LFB6:
 144:Generated_Source\PSoC4/IDAC7_1.c **** 
 145:Generated_Source\PSoC4/IDAC7_1.c **** 
 146:Generated_Source\PSoC4/IDAC7_1.c **** /*******************************************************************************
 147:Generated_Source\PSoC4/IDAC7_1.c **** * Function Name: IDAC7_1_SetPolarity
 148:Generated_Source\PSoC4/IDAC7_1.c **** ****************************************************************************//**
 149:Generated_Source\PSoC4/IDAC7_1.c **** *
 150:Generated_Source\PSoC4/IDAC7_1.c **** *  Sets polarity to either sink or source.
 151:Generated_Source\PSoC4/IDAC7_1.c **** *
 152:Generated_Source\PSoC4/IDAC7_1.c **** *  \param uint32 polarity: Current polarity
ARM GAS  C:\Users\DMYTRO~1.FED\AppData\Local\Temp\ccvPy5Kr.s 			page 6


 153:Generated_Source\PSoC4/IDAC7_1.c **** *  * IDAC7_1_POL_SOURCE   : Source polarity
 154:Generated_Source\PSoC4/IDAC7_1.c **** *  * IDAC7_1_POL_SINK     : Sink polarity
 155:Generated_Source\PSoC4/IDAC7_1.c **** *
 156:Generated_Source\PSoC4/IDAC7_1.c **** *******************************************************************************/
 157:Generated_Source\PSoC4/IDAC7_1.c **** void IDAC7_1_SetPolarity(uint32 polarity)
 158:Generated_Source\PSoC4/IDAC7_1.c **** {
 134              		.loc 1 158 0
 135              		.cfi_startproc
 136              		@ args = 0, pretend = 0, frame = 0
 137              		@ frame_needed = 0, uses_anonymous_args = 0
 138              	.LVL9:
 139 0000 70B5     		push	{r4, r5, r6, lr}
 140              		.cfi_def_cfa_offset 16
 141              		.cfi_offset 4, -16
 142              		.cfi_offset 5, -12
 143              		.cfi_offset 6, -8
 144              		.cfi_offset 14, -4
 145 0002 0400     		movs	r4, r0
 159:Generated_Source\PSoC4/IDAC7_1.c ****     uint8 interruptState;
 160:Generated_Source\PSoC4/IDAC7_1.c ****     uint32 newRegisterValue;
 161:Generated_Source\PSoC4/IDAC7_1.c **** 
 162:Generated_Source\PSoC4/IDAC7_1.c ****     interruptState = CyEnterCriticalSection();
 146              		.loc 1 162 0
 147 0004 FFF7FEFF 		bl	CyEnterCriticalSection
 148              	.LVL10:
 163:Generated_Source\PSoC4/IDAC7_1.c **** 
 164:Generated_Source\PSoC4/IDAC7_1.c ****     newRegisterValue = IDAC7_1_IDAC_CONTROL_REG & ~IDAC7_1_POLARITY_MASK;
 149              		.loc 1 164 0
 150 0008 064D     		ldr	r5, .L9
 151 000a 2B68     		ldr	r3, [r5]
 152 000c 064A     		ldr	r2, .L9+4
 153 000e 1340     		ands	r3, r2
 154 0010 1900     		movs	r1, r3
 155              	.LVL11:
 165:Generated_Source\PSoC4/IDAC7_1.c **** 
 166:Generated_Source\PSoC4/IDAC7_1.c ****     newRegisterValue |= ((polarity << IDAC7_1_POLARITY_POS) & IDAC7_1_POLARITY_MASK);
 156              		.loc 1 166 0
 157 0012 2302     		lsls	r3, r4, #8
 158 0014 C022     		movs	r2, #192
 159 0016 9200     		lsls	r2, r2, #2
 160 0018 1340     		ands	r3, r2
 161 001a 0B43     		orrs	r3, r1
 162              	.LVL12:
 167:Generated_Source\PSoC4/IDAC7_1.c **** 
 168:Generated_Source\PSoC4/IDAC7_1.c ****     IDAC7_1_IDAC_CONTROL_REG = newRegisterValue;
 163              		.loc 1 168 0
 164 001c 2B60     		str	r3, [r5]
 169:Generated_Source\PSoC4/IDAC7_1.c **** 
 170:Generated_Source\PSoC4/IDAC7_1.c ****     CyExitCriticalSection(interruptState);
 165              		.loc 1 170 0
 166 001e FFF7FEFF 		bl	CyExitCriticalSection
 167              	.LVL13:
 171:Generated_Source\PSoC4/IDAC7_1.c **** }
 168              		.loc 1 171 0
 169              		@ sp needed
 170              	.LVL14:
 171 0022 70BD     		pop	{r4, r5, r6, pc}
ARM GAS  C:\Users\DMYTRO~1.FED\AppData\Local\Temp\ccvPy5Kr.s 			page 7


 172              	.L10:
 173              		.align	2
 174              	.L9:
 175 0024 C0010B40 		.word	1074463168
 176 0028 FFFCFFFF 		.word	-769
 177              		.cfi_endproc
 178              	.LFE6:
 179              		.size	IDAC7_1_SetPolarity, .-IDAC7_1_SetPolarity
 180              		.section	.text.IDAC7_1_SetRange,"ax",%progbits
 181              		.align	2
 182              		.global	IDAC7_1_SetRange
 183              		.code	16
 184              		.thumb_func
 185              		.type	IDAC7_1_SetRange, %function
 186              	IDAC7_1_SetRange:
 187              	.LFB7:
 172:Generated_Source\PSoC4/IDAC7_1.c **** 
 173:Generated_Source\PSoC4/IDAC7_1.c **** 
 174:Generated_Source\PSoC4/IDAC7_1.c **** /*******************************************************************************
 175:Generated_Source\PSoC4/IDAC7_1.c **** * Function Name: IDAC7_1_SetRange
 176:Generated_Source\PSoC4/IDAC7_1.c **** ****************************************************************************//**
 177:Generated_Source\PSoC4/IDAC7_1.c **** *
 178:Generated_Source\PSoC4/IDAC7_1.c **** * Sets the IDAC range to one of the six ranges.
 179:Generated_Source\PSoC4/IDAC7_1.c **** *
 180:Generated_Source\PSoC4/IDAC7_1.c **** *  \param uint32 range: Current range
 181:Generated_Source\PSoC4/IDAC7_1.c **** *  * IDAC7_1_RNG_4_76UA   : 37.5 nA/bit current range
 182:Generated_Source\PSoC4/IDAC7_1.c **** *  * IDAC7_1_RNG_9_52UA   : 75 nA/bit current range
 183:Generated_Source\PSoC4/IDAC7_1.c **** *  * IDAC7_1_RNG_38_1UA   : 300 nA/bit current range
 184:Generated_Source\PSoC4/IDAC7_1.c **** *  * IDAC7_1_RNG_76_2UA   : 600 nA/bit current range
 185:Generated_Source\PSoC4/IDAC7_1.c **** *  * IDAC7_1_RNG_152_4UA  : 1.2 uA/bit current range
 186:Generated_Source\PSoC4/IDAC7_1.c **** *  * IDAC7_1_RNG_304_8UA  : 2.4 uA/bit current range
 187:Generated_Source\PSoC4/IDAC7_1.c **** *  * IDAC7_1_RNG_609_6UA  : 4.8 uA/bit current range
 188:Generated_Source\PSoC4/IDAC7_1.c **** *
 189:Generated_Source\PSoC4/IDAC7_1.c **** *******************************************************************************/
 190:Generated_Source\PSoC4/IDAC7_1.c **** void IDAC7_1_SetRange(uint32 range)
 191:Generated_Source\PSoC4/IDAC7_1.c **** {
 188              		.loc 1 191 0
 189              		.cfi_startproc
 190              		@ args = 0, pretend = 0, frame = 0
 191              		@ frame_needed = 0, uses_anonymous_args = 0
 192              	.LVL15:
 193 0000 10B5     		push	{r4, lr}
 194              		.cfi_def_cfa_offset 8
 195              		.cfi_offset 4, -8
 196              		.cfi_offset 14, -4
 197 0002 0400     		movs	r4, r0
 192:Generated_Source\PSoC4/IDAC7_1.c ****     uint8 interruptState;
 193:Generated_Source\PSoC4/IDAC7_1.c ****     uint32 newRegisterValue;
 194:Generated_Source\PSoC4/IDAC7_1.c **** 
 195:Generated_Source\PSoC4/IDAC7_1.c ****     interruptState = CyEnterCriticalSection();
 198              		.loc 1 195 0
 199 0004 FFF7FEFF 		bl	CyEnterCriticalSection
 200              	.LVL16:
 196:Generated_Source\PSoC4/IDAC7_1.c **** 
 197:Generated_Source\PSoC4/IDAC7_1.c ****     newRegisterValue = IDAC7_1_IDAC_CONTROL_REG & (~IDAC7_1_RANGE_MASK    &
 201              		.loc 1 197 0
 202 0008 044A     		ldr	r2, .L12
ARM GAS  C:\Users\DMYTRO~1.FED\AppData\Local\Temp\ccvPy5Kr.s 			page 8


 203 000a 1168     		ldr	r1, [r2]
 204 000c 044B     		ldr	r3, .L12+4
 205 000e 0B40     		ands	r3, r1
 206              	.LVL17:
 198:Generated_Source\PSoC4/IDAC7_1.c ****                                                             ~IDAC7_1_LEG1_EN       &
 199:Generated_Source\PSoC4/IDAC7_1.c ****                                                             ~IDAC7_1_LEG2_EN);
 200:Generated_Source\PSoC4/IDAC7_1.c **** 
 201:Generated_Source\PSoC4/IDAC7_1.c ****     newRegisterValue |= (range << IDAC7_1_RANGE_POS);
 207              		.loc 1 201 0
 208 0010 A405     		lsls	r4, r4, #22
 209              	.LVL18:
 210 0012 1C43     		orrs	r4, r3
 211              	.LVL19:
 202:Generated_Source\PSoC4/IDAC7_1.c **** 
 203:Generated_Source\PSoC4/IDAC7_1.c ****     IDAC7_1_IDAC_CONTROL_REG = newRegisterValue;
 212              		.loc 1 203 0
 213 0014 1460     		str	r4, [r2]
 204:Generated_Source\PSoC4/IDAC7_1.c **** 
 205:Generated_Source\PSoC4/IDAC7_1.c ****     CyExitCriticalSection(interruptState);
 214              		.loc 1 205 0
 215 0016 FFF7FEFF 		bl	CyExitCriticalSection
 216              	.LVL20:
 206:Generated_Source\PSoC4/IDAC7_1.c **** }
 217              		.loc 1 206 0
 218              		@ sp needed
 219              	.LVL21:
 220 001a 10BD     		pop	{r4, pc}
 221              	.L13:
 222              		.align	2
 223              	.L12:
 224 001c C0010B40 		.word	1074463168
 225 0020 FFFF3FFC 		.word	-62914561
 226              		.cfi_endproc
 227              	.LFE7:
 228              		.size	IDAC7_1_SetRange, .-IDAC7_1_SetRange
 229              		.section	.text.IDAC7_1_Init,"ax",%progbits
 230              		.align	2
 231              		.global	IDAC7_1_Init
 232              		.code	16
 233              		.thumb_func
 234              		.type	IDAC7_1_Init, %function
 235              	IDAC7_1_Init:
 236              	.LFB1:
  29:Generated_Source\PSoC4/IDAC7_1.c ****     uint8 interruptState;
 237              		.loc 1 29 0
 238              		.cfi_startproc
 239              		@ args = 0, pretend = 0, frame = 0
 240              		@ frame_needed = 0, uses_anonymous_args = 0
 241 0000 10B5     		push	{r4, lr}
 242              		.cfi_def_cfa_offset 8
 243              		.cfi_offset 4, -8
 244              		.cfi_offset 14, -4
  33:Generated_Source\PSoC4/IDAC7_1.c **** 
 245              		.loc 1 33 0
 246 0002 FFF7FEFF 		bl	CyEnterCriticalSection
 247              	.LVL22:
  35:Generated_Source\PSoC4/IDAC7_1.c ****                                           ~IDAC7_1_LEG1_MODE_MASK &
ARM GAS  C:\Users\DMYTRO~1.FED\AppData\Local\Temp\ccvPy5Kr.s 			page 9


 248              		.loc 1 35 0
 249 0006 084A     		ldr	r2, .L15
 250 0008 1168     		ldr	r1, [r2]
 251 000a 084B     		ldr	r3, .L15+4
 252 000c 0B40     		ands	r3, r1
 253 000e 1360     		str	r3, [r2]
  40:Generated_Source\PSoC4/IDAC7_1.c **** 
 254              		.loc 1 40 0
 255 0010 FFF7FEFF 		bl	CyExitCriticalSection
 256              	.LVL23:
  43:Generated_Source\PSoC4/IDAC7_1.c ****     IDAC7_1_SetPolarity(IDAC7_1_CURRENT_POLARITY);
 257              		.loc 1 43 0
 258 0014 4020     		movs	r0, #64
 259 0016 FFF7FEFF 		bl	IDAC7_1_SetValue
 260              	.LVL24:
  44:Generated_Source\PSoC4/IDAC7_1.c ****     IDAC7_1_SetRange(IDAC7_1_CURRENT_RANGE);
 261              		.loc 1 44 0
 262 001a 0020     		movs	r0, #0
 263 001c FFF7FEFF 		bl	IDAC7_1_SetPolarity
 264              	.LVL25:
  45:Generated_Source\PSoC4/IDAC7_1.c **** }
 265              		.loc 1 45 0
 266 0020 0E20     		movs	r0, #14
 267 0022 FFF7FEFF 		bl	IDAC7_1_SetRange
 268              	.LVL26:
  46:Generated_Source\PSoC4/IDAC7_1.c **** 
 269              		.loc 1 46 0
 270              		@ sp needed
 271 0026 10BD     		pop	{r4, pc}
 272              	.L16:
 273              		.align	2
 274              	.L15:
 275 0028 C0010B40 		.word	1074463168
 276 002c 7FFFD0FF 		.word	-3080321
 277              		.cfi_endproc
 278              	.LFE1:
 279              		.size	IDAC7_1_Init, .-IDAC7_1_Init
 280              		.section	.text.IDAC7_1_Start,"ax",%progbits
 281              		.align	2
 282              		.global	IDAC7_1_Start
 283              		.code	16
 284              		.thumb_func
 285              		.type	IDAC7_1_Start, %function
 286              	IDAC7_1_Start:
 287              	.LFB3:
  90:Generated_Source\PSoC4/IDAC7_1.c ****     if(0u == IDAC7_1_initVar)
 288              		.loc 1 90 0
 289              		.cfi_startproc
 290              		@ args = 0, pretend = 0, frame = 0
 291              		@ frame_needed = 0, uses_anonymous_args = 0
 292 0000 10B5     		push	{r4, lr}
 293              		.cfi_def_cfa_offset 8
 294              		.cfi_offset 4, -8
 295              		.cfi_offset 14, -4
  91:Generated_Source\PSoC4/IDAC7_1.c ****     {
 296              		.loc 1 91 0
 297 0002 064B     		ldr	r3, .L19
ARM GAS  C:\Users\DMYTRO~1.FED\AppData\Local\Temp\ccvPy5Kr.s 			page 10


 298 0004 1B68     		ldr	r3, [r3]
 299 0006 002B     		cmp	r3, #0
 300 0008 04D1     		bne	.L18
  93:Generated_Source\PSoC4/IDAC7_1.c ****         IDAC7_1_initVar = 1u;
 301              		.loc 1 93 0
 302 000a FFF7FEFF 		bl	IDAC7_1_Init
 303              	.LVL27:
  94:Generated_Source\PSoC4/IDAC7_1.c ****     }
 304              		.loc 1 94 0
 305 000e 0122     		movs	r2, #1
 306 0010 024B     		ldr	r3, .L19
 307 0012 1A60     		str	r2, [r3]
 308              	.L18:
  97:Generated_Source\PSoC4/IDAC7_1.c **** }
 309              		.loc 1 97 0
 310 0014 FFF7FEFF 		bl	IDAC7_1_Enable
 311              	.LVL28:
  98:Generated_Source\PSoC4/IDAC7_1.c **** 
 312              		.loc 1 98 0
 313              		@ sp needed
 314 0018 10BD     		pop	{r4, pc}
 315              	.L20:
 316 001a C046     		.align	2
 317              	.L19:
 318 001c 00000000 		.word	.LANCHOR0
 319              		.cfi_endproc
 320              	.LFE3:
 321              		.size	IDAC7_1_Start, .-IDAC7_1_Start
 322              		.global	IDAC7_1_initVar
 323              		.bss
 324              		.align	2
 325              		.set	.LANCHOR0,. + 0
 326              		.type	IDAC7_1_initVar, %object
 327              		.size	IDAC7_1_initVar, 4
 328              	IDAC7_1_initVar:
 329 0000 00000000 		.space	4
 330              		.text
 331              	.Letext0:
 332              		.file 2 "Generated_Source\\PSoC4\\cytypes.h"
 333              		.file 3 "Generated_Source\\PSoC4\\CyLib.h"