ARM GAS  C:\Users\DMYTRO~1.FED\AppData\Local\Temp\ccPJXYCb.s 			page 1


   1              		.syntax unified
   2              		.cpu cortex-m0plus
   3              		.fpu softvfp
   4              		.eabi_attribute 20, 1
   5              		.eabi_attribute 21, 1
   6              		.eabi_attribute 23, 3
   7              		.eabi_attribute 24, 1
   8              		.eabi_attribute 25, 1
   9              		.eabi_attribute 26, 1
  10              		.eabi_attribute 30, 1
  11              		.eabi_attribute 34, 0
  12              		.eabi_attribute 18, 4
  13              		.thumb
  14              		.syntax unified
  15              		.file	"main.c"
  16              		.text
  17              	.Ltext0:
  18              		.cfi_sections	.debug_frame
  19              		.section	.text.updateStatusLed,"ax",%progbits
  20              		.align	2
  21              		.code	16
  22              		.thumb_func
  23              		.type	updateStatusLed, %function
  24              	updateStatusLed:
  25              	.LFB35:
  26              		.file 1 "main.c"
   1:main.c        **** /** @file
   2:main.c        ****  *  @brief Source file with main function
   3:main.c        ****  */
   4:main.c        **** 
   5:main.c        **** /**
   6:main.c        ****  * @mainpage
   7:main.c        ****  *
   8:main.c        ****  * ### INTRODUCTION
   9:main.c        ****  *
  10:main.c        ****  * This is simple realisation of the music player for Cypress PSOC4S MCU
  11:main.c        ****  * It contains also very simple and primitive MIDI sequencer. 
  12:main.c        ****  * Files is played from SD card, maybe BLE support will be added in the future.
  13:main.c        ****  * (Too many projects with BLE, sorry)
  14:main.c        ****  * For audio generation PWM with 8-bit resolution is using.
  15:main.c        ****  * For SD card Fatfs library was ported from other Cypress MCU with some little enhancments to get 
  16:main.c        ****  * Since there is only 32K memory available, CapSense was not used.
  17:main.c        ****  * UART is uses for debuging messages output.
  18:main.c        ****  * Supported formats: <BR>
  19:main.c        ****  * PCM/WAV 8-bit, Mono, sample rate: 4K, 8K, 16K, 32K, 64K without compression and without tags,
  20:main.c        ****  * which is enought to here voice and other sounds for most people<BR>
  21:main.c        ****  * MIDI type 0 (one MTrk record), better conver MIDI to WAV <BR>
  22:main.c        ****  *
  23:main.c        ****  * ### Architecture and code style
  24:main.c        ****  * Due to limit resources of the MCU it was decided not to use any RTOS. 
  25:main.c        ****  * Therefore 1-thread superloop architecture with async callse was used.
  26:main.c        ****  * Code style was decided to use closed to MISRA-2012 standard
  27:main.c        ****  *
  28:main.c        ****  * ### Layers of the arcitecture
  29:main.c        ****  * 
  30:main.c        ****  * The lowest layer of sound generation is located in audio.c module.
  31:main.c        ****  * 2 timers were used: 1 in PWM mode to generate required voltage level according to provided 
ARM GAS  C:\Users\DMYTRO~1.FED\AppData\Local\Temp\ccPJXYCb.s 			page 2


  32:main.c        ****  * and 1 in compare mode which is dynamically reconfigured according to required sample rate. 
  33:main.c        ****  * High levels modules just add their callbacks and uses audio_Play function for playing sepparated
  34:main.c        ****  * Audio.c module provides also pseudo logarithmic attenuation volume adjustment of the input sampl
  35:main.c        ****  *
  36:main.c        ****  * testPlayer.c and player.c modules uses audio module directly.
  37:main.c        ****  * testPlayer is generator of various debug sounds, which were used for hardware debugging.
  38:main.c        ****  * player.c is controller of the music play. It also manages 1K cicle buffer, 
  39:main.c        ****  * which is fullfiled by callbacks from other addon-players. Buffer is located in module buffer.c
  40:main.c        ****  * Other modules just expand functionality of this module.
  41:main.c        ****  *
  42:main.c        ****  * Addon players are pcmPlayer(PCM and WAV) and midiPlayer(MIDI sequencer).
  43:main.c        ****  * This two modules expand player.c
  44:main.c        ****  *
  45:main.c        ****  * High level module filePlayer.c searches for music files in root directory of the
  46:main.c        ****  * SD card and selects required addon-player according to extension of the file. (wrapper for sd ca
  47:main.c        ****  * When previous was ended filePlayer searches for next one.
  48:main.c        ****  *
  49:main.c        ****  * userControls.c module handles various events from button (only SW2 is available on CY8CKIT).
  50:main.c        ****  * It determins duration of the button press. And provides event information to bussiness logic in 
  51:main.c        ****  * Functions to measure time intervals are located in sysTickTimer (standart ARM`s SysTick is used)
  52:main.c        ****  *
  53:main.c        ****  * Bussiness logic and debug console handling is located in main.c
  54:main.c        ****  *
  55:main.c        ****  */
  56:main.c        **** #include <project.h>
  57:main.c        **** #include <stdbool.h>
  58:main.c        **** #include <stdlib.h>
  59:main.c        **** #include "uartPrint.h"
  60:main.c        **** #include "card.h"
  61:main.c        **** #include "pcmPlayer.h"
  62:main.c        **** #include "midiPlayer.h"
  63:main.c        **** #include "player.h"
  64:main.c        **** #include "filePlayer.h"
  65:main.c        **** #include "userControls.h"
  66:main.c        **** #include "sysTickTimer.h"
  67:main.c        **** #include "audio.h"
  68:main.c        **** #include "testPlayer.h"
  69:main.c        **** #include "buffer.h"
  70:main.c        **** 
  71:main.c        **** #define VOLUME_SET_MODE_TIMEOUT_MS 8000U
  72:main.c        **** #define VOLUME_DEFAULT_PERC        100U
  73:main.c        **** 
  74:main.c        **** #define LED_ON						(0u)
  75:main.c        **** #define LED_OFF						(1u)
  76:main.c        **** #define LED_VOLUME_STEP             (20u)
  77:main.c        **** 
  78:main.c        **** typedef struct
  79:main.c        **** {
  80:main.c        ****     bool       enable;
  81:main.c        ****     uint32_t   lastTimeStamp;
  82:main.c        **** } volumeSetMode_t;
  83:main.c        **** 
  84:main.c        **** static volumeSetMode_t volumeSetMode = {.enable = false,};
  85:main.c        **** static bool prevStatePlay = false;
  86:main.c        **** static bool curStatePlay = false;
  87:main.c        **** 
  88:main.c        **** static void updateStatusLed(void);
ARM GAS  C:\Users\DMYTRO~1.FED\AppData\Local\Temp\ccPJXYCb.s 			page 3


  89:main.c        **** static void increaseVolume(void);
  90:main.c        **** static void displayVolume(uint8_t volume);
  91:main.c        **** static void debugConsole_Run(void);
  92:main.c        **** static void onBtnChange(userControlBtnState_t btnState);
  93:main.c        **** 
  94:main.c        **** /**
  95:main.c        ****  * @brief Main function
  96:main.c        ****  *
  97:main.c        ****  */
  98:main.c        **** int main()
  99:main.c        **** {   
 100:main.c        ****     CyGlobalIntEnable;
 101:main.c        ****     
 102:main.c        ****     UART_Start();
 103:main.c        ****     uartPrintf("*******Audio_ player**********\r\n");
 104:main.c        ****     
 105:main.c        ****     sysTickTimer_Init();
 106:main.c        ****     audio_Init();
 107:main.c        ****     audio_SetVolume(VOLUME_DEFAULT_PERC);
 108:main.c        ****     
 109:main.c        ****     cardInit();
 110:main.c        ****     cardMount();
 111:main.c        ****     userControl_Init(onBtnChange);
 112:main.c        ****     for(;;)
 113:main.c        ****     {
 114:main.c        ****         updateStatusLed();
 115:main.c        ****         filePlayer_Run();
 116:main.c        ****         userControl_Run();
 117:main.c        ****         debugConsole_Run();
 118:main.c        ****             
 119:main.c        ****         if (volumeSetMode.enable && (sysTickTimer_IsTimePassedMs(volumeSetMode.lastTimeStamp, VOLUM
 120:main.c        ****         {
 121:main.c        ****             volumeSetMode.enable = false;
 122:main.c        ****             displayVolume(0);
 123:main.c        ****             uartPrintf("MAIN: Set volume mode Off\r\n");
 124:main.c        ****         }  
 125:main.c        ****     }
 126:main.c        **** }
 127:main.c        **** 
 128:main.c        **** static void updateStatusLed(void)
 129:main.c        **** {
  27              		.loc 1 129 0
  28              		.cfi_startproc
  29              		@ args = 0, pretend = 0, frame = 0
  30              		@ frame_needed = 0, uses_anonymous_args = 0
  31 0000 10B5     		push	{r4, lr}
  32              		.cfi_def_cfa_offset 8
  33              		.cfi_offset 4, -8
  34              		.cfi_offset 14, -4
 130:main.c        ****     prevStatePlay = curStatePlay;
  35              		.loc 1 130 0
  36 0002 084C     		ldr	r4, .L5
  37 0004 6378     		ldrb	r3, [r4, #1]
  38 0006 2370     		strb	r3, [r4]
 131:main.c        ****     curStatePlay = filePlayer_isPlay();
  39              		.loc 1 131 0
  40 0008 FFF7FEFF 		bl	filePlayer_isPlay
ARM GAS  C:\Users\DMYTRO~1.FED\AppData\Local\Temp\ccPJXYCb.s 			page 4


  41              	.LVL0:
  42 000c 6070     		strb	r0, [r4, #1]
 132:main.c        ****     
 133:main.c        ****     if (prevStatePlay != curStatePlay)
  43              		.loc 1 133 0
  44 000e 2278     		ldrb	r2, [r4]
  45 0010 9042     		cmp	r0, r2
  46 0012 06D0     		beq	.L1
 134:main.c        ****     {
 135:main.c        ****         LED9_Write(curStatePlay? LED_ON : LED_OFF);
  47              		.loc 1 135 0
  48 0014 0028     		cmp	r0, #0
  49 0016 01D0     		beq	.L4
  50 0018 0020     		movs	r0, #0
  51 001a 00E0     		b	.L3
  52              	.L4:
  53 001c 0120     		movs	r0, #1
  54              	.L3:
  55              		.loc 1 135 0 is_stmt 0 discriminator 4
  56 001e FFF7FEFF 		bl	LED9_Write
  57              	.LVL1:
  58              	.L1:
 136:main.c        ****     }
 137:main.c        **** }
  59              		.loc 1 137 0 is_stmt 1
  60              		@ sp needed
  61 0022 10BD     		pop	{r4, pc}
  62              	.L6:
  63              		.align	2
  64              	.L5:
  65 0024 00000000 		.word	.LANCHOR0
  66              		.cfi_endproc
  67              	.LFE35:
  68              		.size	updateStatusLed, .-updateStatusLed
  69              		.section	.text.debugConsole_Run,"ax",%progbits
  70              		.align	2
  71              		.code	16
  72              		.thumb_func
  73              		.type	debugConsole_Run, %function
  74              	debugConsole_Run:
  75              	.LFB39:
 138:main.c        **** 
 139:main.c        **** static void onBtnChange(userControlBtnState_t btnState)
 140:main.c        **** {
 141:main.c        ****     uartPrintf("MAIN: Btn state %d\r\n", btnState);
 142:main.c        ****     switch(btnState)
 143:main.c        ****     {
 144:main.c        ****         case BTN_LONG_PRESS:
 145:main.c        ****             volumeSetMode.enable = true;
 146:main.c        ****             volumeSetMode.lastTimeStamp = sysTickTimer_GetTimeMs();
 147:main.c        ****             displayVolume(audio_GetVolume());
 148:main.c        ****             uartPrintf("MAIN: Set volume mode On\r\n");
 149:main.c        ****             increaseVolume();
 150:main.c        ****             break;
 151:main.c        ****             
 152:main.c        ****         case BTN_MIDDLE_PRESS:
 153:main.c        ****             if (curStatePlay)
ARM GAS  C:\Users\DMYTRO~1.FED\AppData\Local\Temp\ccPJXYCb.s 			page 5


 154:main.c        ****             {
 155:main.c        ****                 filePlayer_Pause();
 156:main.c        ****             } else
 157:main.c        ****             {
 158:main.c        ****                 filePlayer_Play();
 159:main.c        ****             }
 160:main.c        ****             break;
 161:main.c        ****             
 162:main.c        ****         case BTN_SHORT_PRESS:
 163:main.c        ****             filePlayer_Next();
 164:main.c        ****             break;
 165:main.c        ****         
 166:main.c        ****         default:
 167:main.c        ****             break;
 168:main.c        ****     }
 169:main.c        **** }
 170:main.c        **** 
 171:main.c        **** static void increaseVolume(void)
 172:main.c        **** {
 173:main.c        ****     uint8_t volume = audio_GetVolume();
 174:main.c        ****     
 175:main.c        ****     volume += LED_VOLUME_STEP;
 176:main.c        ****     if (volume > 100)
 177:main.c        ****     {
 178:main.c        ****         volume = 0;
 179:main.c        ****     }
 180:main.c        ****     
 181:main.c        ****     audio_SetVolume(volume);           
 182:main.c        ****     displayVolume(audio_GetVolume());
 183:main.c        ****     volumeSetMode.lastTimeStamp = sysTickTimer_GetTimeMs();
 184:main.c        **** }
 185:main.c        **** 
 186:main.c        **** static void displayVolume(uint8_t volume)
 187:main.c        **** {
 188:main.c        ****     LED4_Write( ( volume > ( 0 * LED_VOLUME_STEP ) ) ? LED_ON : LED_OFF );
 189:main.c        ****     LED5_Write( ( volume > ( 1 * LED_VOLUME_STEP ) ) ? LED_ON : LED_OFF);
 190:main.c        ****     LED6_Write( ( volume > ( 2 * LED_VOLUME_STEP ) ) ? LED_ON : LED_OFF);
 191:main.c        ****     LED7_Write( ( volume > ( 3 * LED_VOLUME_STEP ) ) ? LED_ON : LED_OFF);
 192:main.c        ****     LED8_Write( ( volume > ( 4 * LED_VOLUME_STEP ) ) ? LED_ON : LED_OFF);
 193:main.c        **** }
 194:main.c        **** 
 195:main.c        **** static void debugConsole_Run(void) // for debug purposes
 196:main.c        **** {
  76              		.loc 1 196 0
  77              		.cfi_startproc
  78              		@ args = 0, pretend = 0, frame = 0
  79              		@ frame_needed = 0, uses_anonymous_args = 0
  80 0000 10B5     		push	{r4, lr}
  81              		.cfi_def_cfa_offset 8
  82              		.cfi_offset 4, -8
  83              		.cfi_offset 14, -4
 197:main.c        ****     static bool sine = false;
 198:main.c        ****     static uint8_t note = 0;
 199:main.c        ****     char uartchar;
 200:main.c        ****     uint8_t volume;
 201:main.c        ****     audio_SampleRate_t sampleRate;
 202:main.c        ****     
ARM GAS  C:\Users\DMYTRO~1.FED\AppData\Local\Temp\ccPJXYCb.s 			page 6


 203:main.c        ****     uartchar = UART_UartGetChar(); 
  84              		.loc 1 203 0
  85 0002 FFF7FEFF 		bl	UART_UartGetChar
  86              	.LVL2:
  87 0006 0400     		movs	r4, r0
  88 0008 C3B2     		uxtb	r3, r0
  89              	.LVL3:
 204:main.c        ****     if (uartchar != 0)
  90              		.loc 1 204 0
  91 000a 002B     		cmp	r3, #0
  92 000c 00D1     		bne	.LCB57
  93 000e A1E0     		b	.L7	@long jump
  94              	.LCB57:
 205:main.c        ****     {
 206:main.c        ****         UART_UartPutString(">\r\n");
  95              		.loc 1 206 0
  96 0010 5148     		ldr	r0, .L35
  97 0012 FFF7FEFF 		bl	UART_UartPutString
  98              	.LVL4:
 207:main.c        ****         switch (uartchar)
  99              		.loc 1 207 0
 100 0016 FF23     		movs	r3, #255
 101 0018 1C40     		ands	r4, r3
 102 001a 2B3C     		subs	r4, r4, #43
 103 001c 4F2C     		cmp	r4, #79
 104 001e 00D9     		bls	.LCB66
 105 0020 98E0     		b	.L7	@long jump
 106              	.LCB66:
 107 0022 A400     		lsls	r4, r4, #2
 108 0024 4D4B     		ldr	r3, .L35+4
 109 0026 1B59     		ldr	r3, [r3, r4]
 110 0028 9F46     		mov	pc, r3
 111              		.section	.rodata
 112              		.align	2
 113              	.L10:
 114 0000 DA000000 		.word	.L9
 115 0004 32010000 		.word	.L11
 116 0008 AE000000 		.word	.L12
 117 000c 44010000 		.word	.L13
 118 0010 54010000 		.word	.L7
 119 0014 54010000 		.word	.L7
 120 0018 54010000 		.word	.L7
 121 001c 54010000 		.word	.L7
 122 0020 54010000 		.word	.L7
 123 0024 54010000 		.word	.L7
 124 0028 54010000 		.word	.L7
 125 002c 54010000 		.word	.L7
 126 0030 54010000 		.word	.L7
 127 0034 54010000 		.word	.L7
 128 0038 54010000 		.word	.L7
 129 003c 54010000 		.word	.L7
 130 0040 54010000 		.word	.L7
 131 0044 54010000 		.word	.L7
 132 0048 DA000000 		.word	.L9
 133 004c 54010000 		.word	.L7
 134 0050 54010000 		.word	.L7
 135 0054 54010000 		.word	.L7
ARM GAS  C:\Users\DMYTRO~1.FED\AppData\Local\Temp\ccPJXYCb.s 			page 7


 136 0058 54010000 		.word	.L7
 137 005c 54010000 		.word	.L7
 138 0060 54010000 		.word	.L7
 139 0064 54010000 		.word	.L7
 140 0068 54010000 		.word	.L7
 141 006c 54010000 		.word	.L7
 142 0070 54010000 		.word	.L7
 143 0074 54010000 		.word	.L7
 144 0078 54010000 		.word	.L7
 145 007c 54010000 		.word	.L7
 146 0080 54010000 		.word	.L7
 147 0084 54010000 		.word	.L7
 148 0088 54010000 		.word	.L7
 149 008c 54010000 		.word	.L7
 150 0090 54010000 		.word	.L7
 151 0094 54010000 		.word	.L7
 152 0098 54010000 		.word	.L7
 153 009c 54010000 		.word	.L7
 154 00a0 54010000 		.word	.L7
 155 00a4 54010000 		.word	.L7
 156 00a8 54010000 		.word	.L7
 157 00ac 54010000 		.word	.L7
 158 00b0 54010000 		.word	.L7
 159 00b4 54010000 		.word	.L7
 160 00b8 54010000 		.word	.L7
 161 00bc 54010000 		.word	.L7
 162 00c0 54010000 		.word	.L7
 163 00c4 54010000 		.word	.L7
 164 00c8 54010000 		.word	.L7
 165 00cc 54010000 		.word	.L7
 166 00d0 54010000 		.word	.L7
 167 00d4 54010000 		.word	.L7
 168 00d8 54010000 		.word	.L7
 169 00dc 2A000000 		.word	.L14
 170 00e0 66000000 		.word	.L15
 171 00e4 6C000000 		.word	.L16
 172 00e8 54010000 		.word	.L7
 173 00ec 54010000 		.word	.L7
 174 00f0 54010000 		.word	.L7
 175 00f4 54010000 		.word	.L7
 176 00f8 54010000 		.word	.L7
 177 00fc 54010000 		.word	.L7
 178 0100 54010000 		.word	.L7
 179 0104 54000000 		.word	.L17
 180 0108 60000000 		.word	.L18
 181 010c 1E010000 		.word	.L19
 182 0110 54010000 		.word	.L7
 183 0114 7A000000 		.word	.L20
 184 0118 54010000 		.word	.L7
 185 011c 54010000 		.word	.L7
 186 0120 54010000 		.word	.L7
 187 0124 3E000000 		.word	.L21
 188 0128 5A000000 		.word	.L22
 189 012c 30000000 		.word	.L23
 190 0130 72000000 		.word	.L24
 191 0134 CC000000 		.word	.L25
 192 0138 F6000000 		.word	.L26
ARM GAS  C:\Users\DMYTRO~1.FED\AppData\Local\Temp\ccPJXYCb.s 			page 8


 193 013c 4C000000 		.word	.L27
 194              		.section	.text.debugConsole_Run
 195              	.L14:
 208:main.c        ****         {
 209:main.c        ****             case 'b':
 210:main.c        ****                 player_Stop();
 196              		.loc 1 210 0
 197 002a FFF7FEFF 		bl	player_Stop
 198              	.LVL5:
 211:main.c        ****                 break;
 199              		.loc 1 211 0
 200 002e 91E0     		b	.L7
 201              	.L23:
 212:main.c        ****             
 213:main.c        ****             case 'v':
 214:main.c        ****                 audio_SetSampleRate(AUDIO_SAMPLE_RATE_16K);
 202              		.loc 1 214 0
 203 0030 0220     		movs	r0, #2
 204 0032 FFF7FEFF 		bl	audio_SetSampleRate
 205              	.LVL6:
 215:main.c        ****                 pcmPlayerPlay("/v.pcm");
 206              		.loc 1 215 0
 207 0036 4A48     		ldr	r0, .L35+8
 208 0038 FFF7FEFF 		bl	pcmPlayerPlay
 209              	.LVL7:
 216:main.c        ****                 break;
 210              		.loc 1 216 0
 211 003c 8AE0     		b	.L7
 212              	.L21:
 217:main.c        ****                 
 218:main.c        ****             case 't':
 219:main.c        ****                 audio_SetSampleRate(AUDIO_SAMPLE_RATE_32K);
 213              		.loc 1 219 0
 214 003e 0320     		movs	r0, #3
 215 0040 FFF7FEFF 		bl	audio_SetSampleRate
 216              	.LVL8:
 220:main.c        ****                 pcmPlayerPlay("/file2.pcm");
 217              		.loc 1 220 0
 218 0044 4748     		ldr	r0, .L35+12
 219 0046 FFF7FEFF 		bl	pcmPlayerPlay
 220              	.LVL9:
 221:main.c        ****                 break;
 221              		.loc 1 221 0
 222 004a 83E0     		b	.L7
 223              	.L27:
 222:main.c        ****                 
 223:main.c        ****             case 'z':
 224:main.c        ****                 midiPlayer_Play("/test.mid");
 224              		.loc 1 224 0
 225 004c 4648     		ldr	r0, .L35+16
 226 004e FFF7FEFF 		bl	midiPlayer_Play
 227              	.LVL10:
 225:main.c        ****                 break;
 228              		.loc 1 225 0
 229 0052 7FE0     		b	.L7
 230              	.L17:
 226:main.c        ****             
ARM GAS  C:\Users\DMYTRO~1.FED\AppData\Local\Temp\ccPJXYCb.s 			page 9


 227:main.c        ****             case 'l':
 228:main.c        ****                 filePlayer_Next();
 231              		.loc 1 228 0
 232 0054 FFF7FEFF 		bl	filePlayer_Next
 233              	.LVL11:
 229:main.c        ****                 break;
 234              		.loc 1 229 0
 235 0058 7CE0     		b	.L7
 236              	.L22:
 230:main.c        ****                 
 231:main.c        ****             case 'u':
 232:main.c        ****                 cardUmount();
 237              		.loc 1 232 0
 238 005a FFF7FEFF 		bl	cardUmount
 239              	.LVL12:
 233:main.c        ****                 break;
 240              		.loc 1 233 0
 241 005e 79E0     		b	.L7
 242              	.L18:
 234:main.c        ****                 
 235:main.c        ****             case 'm':
 236:main.c        ****                 cardMount();
 243              		.loc 1 236 0
 244 0060 FFF7FEFF 		bl	cardMount
 245              	.LVL13:
 237:main.c        ****                 break;
 246              		.loc 1 237 0
 247 0064 76E0     		b	.L7
 248              	.L15:
 238:main.c        ****                 
 239:main.c        ****             case 'c':
 240:main.c        ****                 player_Play();
 249              		.loc 1 240 0
 250 0066 FFF7FEFF 		bl	player_Play
 251              	.LVL14:
 241:main.c        ****                 break;
 252              		.loc 1 241 0
 253 006a 73E0     		b	.L7
 254              	.L16:
 242:main.c        ****                 
 243:main.c        ****             case 'd':
 244:main.c        ****                 player_Pause();
 255              		.loc 1 244 0
 256 006c FFF7FEFF 		bl	player_Pause
 257              	.LVL15:
 245:main.c        ****                 break;
 258              		.loc 1 245 0
 259 0070 70E0     		b	.L7
 260              	.L24:
 246:main.c        ****                 
 247:main.c        ****             case 'w':
 248:main.c        ****                 pcmPlayerPlayWav("/f88.wav");
 261              		.loc 1 248 0
 262 0072 3E48     		ldr	r0, .L35+20
 263 0074 FFF7FEFF 		bl	pcmPlayerPlayWav
 264              	.LVL16:
 249:main.c        ****                 break;
ARM GAS  C:\Users\DMYTRO~1.FED\AppData\Local\Temp\ccPJXYCb.s 			page 10


 265              		.loc 1 249 0
 266 0078 6CE0     		b	.L7
 267              	.L20:
 250:main.c        ****                 
 251:main.c        ****             case 'p':
 252:main.c        ****                 sine = !sine;
 268              		.loc 1 252 0
 269 007a 3D4A     		ldr	r2, .L35+24
 270 007c 9178     		ldrb	r1, [r2, #2]
 271 007e 0123     		movs	r3, #1
 272 0080 4B40     		eors	r3, r1
 273 0082 DBB2     		uxtb	r3, r3
 274 0084 9370     		strb	r3, [r2, #2]
 253:main.c        ****                 if (sine)
 275              		.loc 1 253 0
 276 0086 002B     		cmp	r3, #0
 277 0088 04D0     		beq	.L28
 254:main.c        ****                 {
 255:main.c        ****                     testPlayerPlay(TEST_PLAY_SINE, 0);
 278              		.loc 1 255 0
 279 008a 0021     		movs	r1, #0
 280 008c 0020     		movs	r0, #0
 281 008e FFF7FEFF 		bl	testPlayerPlay
 282              	.LVL17:
 283 0092 01E0     		b	.L29
 284              	.L28:
 256:main.c        ****                 } else
 257:main.c        ****                 {
 258:main.c        ****                     testPlayerStop();
 285              		.loc 1 258 0
 286 0094 FFF7FEFF 		bl	testPlayerStop
 287              	.LVL18:
 288              	.L29:
 259:main.c        ****                 }
 260:main.c        ****                 uartPrintf("Sine generation! status: %s\r\n", sine?"on":"off");
 289              		.loc 1 260 0
 290 0098 354B     		ldr	r3, .L35+24
 291 009a 9B78     		ldrb	r3, [r3, #2]
 292 009c 002B     		cmp	r3, #0
 293 009e 01D0     		beq	.L33
 294 00a0 3449     		ldr	r1, .L35+28
 295 00a2 00E0     		b	.L30
 296              	.L33:
 297 00a4 3449     		ldr	r1, .L35+32
 298              	.L30:
 299              		.loc 1 260 0 is_stmt 0 discriminator 4
 300 00a6 3548     		ldr	r0, .L35+36
 301 00a8 FFF7FEFF 		bl	uartPrintf
 302              	.LVL19:
 261:main.c        ****                 break;
 303              		.loc 1 261 0 is_stmt 1 discriminator 4
 304 00ac 52E0     		b	.L7
 305              	.L12:
 262:main.c        ****                 
 263:main.c        ****             case '-':
 264:main.c        ****                 sampleRate = audio_GetSampleRate();
 306              		.loc 1 264 0
ARM GAS  C:\Users\DMYTRO~1.FED\AppData\Local\Temp\ccPJXYCb.s 			page 11


 307 00ae FFF7FEFF 		bl	audio_GetSampleRate
 308              	.LVL20:
 265:main.c        ****                 sampleRate++;
 309              		.loc 1 265 0
 310 00b2 0130     		adds	r0, r0, #1
 311              	.LVL21:
 312 00b4 C4B2     		uxtb	r4, r0
 313              	.LVL22:
 266:main.c        ****                 if (AUDIO_SAMPLE_RATE_COUNT == sampleRate)
 314              		.loc 1 266 0
 315 00b6 052C     		cmp	r4, #5
 316 00b8 00D1     		bne	.L31
 267:main.c        ****                 {
 268:main.c        ****                     sampleRate = AUDIO_SAMPLE_RATE_START;
 317              		.loc 1 268 0
 318 00ba 0024     		movs	r4, #0
 319              	.LVL23:
 320              	.L31:
 269:main.c        ****                 }
 270:main.c        ****                 audio_SetSampleRate(sampleRate);
 321              		.loc 1 270 0
 322 00bc 2000     		movs	r0, r4
 323 00be FFF7FEFF 		bl	audio_SetSampleRate
 324              	.LVL24:
 271:main.c        ****                 uartPrintf("Period: %d\r\n", sampleRate);
 325              		.loc 1 271 0
 326 00c2 2100     		movs	r1, r4
 327 00c4 2E48     		ldr	r0, .L35+40
 328 00c6 FFF7FEFF 		bl	uartPrintf
 329              	.LVL25:
 272:main.c        ****                 break;
 330              		.loc 1 272 0
 331 00ca 43E0     		b	.L7
 332              	.LVL26:
 333              	.L25:
 273:main.c        ****                 
 274:main.c        ****             case 'x':
 275:main.c        ****                 uartPrintf("SYSTICK: %d\r\n", sysTickTimer_GetTimeMs());
 334              		.loc 1 275 0
 335 00cc FFF7FEFF 		bl	sysTickTimer_GetTimeMs
 336              	.LVL27:
 337 00d0 0100     		movs	r1, r0
 338 00d2 2C48     		ldr	r0, .L35+44
 339 00d4 FFF7FEFF 		bl	uartPrintf
 340              	.LVL28:
 276:main.c        ****                 break;
 341              		.loc 1 276 0
 342 00d8 3CE0     		b	.L7
 343              	.L9:
 277:main.c        ****                 
 278:main.c        ****             case '=':
 279:main.c        ****             case '+':
 280:main.c        ****                 sampleRate = audio_GetSampleRate();
 344              		.loc 1 280 0
 345 00da FFF7FEFF 		bl	audio_GetSampleRate
 346              	.LVL29:
 281:main.c        ****                 if (sampleRate > AUDIO_SAMPLE_RATE_START)
ARM GAS  C:\Users\DMYTRO~1.FED\AppData\Local\Temp\ccPJXYCb.s 			page 12


 347              		.loc 1 281 0
 348 00de 0028     		cmp	r0, #0
 349 00e0 38D0     		beq	.L7
 282:main.c        ****                 {
 283:main.c        ****                     sampleRate--;
 350              		.loc 1 283 0
 351 00e2 0138     		subs	r0, r0, #1
 352              	.LVL30:
 353 00e4 C4B2     		uxtb	r4, r0
 354              	.LVL31:
 284:main.c        ****                 
 285:main.c        ****                     if (AUDIO_SAMPLE_RATE_COUNT == AUDIO_SAMPLE_RATE_START)
 286:main.c        ****                     {
 287:main.c        ****                         sampleRate = (AUDIO_SAMPLE_RATE_COUNT - 1);
 288:main.c        ****                     }
 289:main.c        ****                     audio_SetSampleRate(sampleRate);
 355              		.loc 1 289 0
 356 00e6 2000     		movs	r0, r4
 357 00e8 FFF7FEFF 		bl	audio_SetSampleRate
 358              	.LVL32:
 290:main.c        ****                     uartPrintf("Period: %d\r\n", sampleRate);
 359              		.loc 1 290 0
 360 00ec 2100     		movs	r1, r4
 361 00ee 2448     		ldr	r0, .L35+40
 362 00f0 FFF7FEFF 		bl	uartPrintf
 363              	.LVL33:
 364 00f4 2EE0     		b	.L7
 365              	.LVL34:
 366              	.L26:
 291:main.c        ****                 }
 292:main.c        ****                 break;
 293:main.c        ****                 
 294:main.c        ****             case 'y':
 295:main.c        ****                 note++;
 367              		.loc 1 295 0
 368 00f6 1E4A     		ldr	r2, .L35+24
 369 00f8 D378     		ldrb	r3, [r2, #3]
 370 00fa 0133     		adds	r3, r3, #1
 371 00fc DBB2     		uxtb	r3, r3
 372 00fe D370     		strb	r3, [r2, #3]
 296:main.c        ****                 if (note == 12)
 373              		.loc 1 296 0
 374 0100 0C2B     		cmp	r3, #12
 375 0102 02D1     		bne	.L32
 297:main.c        ****                 {
 298:main.c        ****                     note = 0;
 376              		.loc 1 298 0
 377 0104 0022     		movs	r2, #0
 378 0106 1A4B     		ldr	r3, .L35+24
 379 0108 DA70     		strb	r2, [r3, #3]
 380              	.L32:
 299:main.c        ****                 }
 300:main.c        ****                 testPlayerPlay(TEST_PLAY_NOTE, note);
 381              		.loc 1 300 0
 382 010a 194C     		ldr	r4, .L35+24
 383 010c E178     		ldrb	r1, [r4, #3]
 384 010e 0120     		movs	r0, #1
ARM GAS  C:\Users\DMYTRO~1.FED\AppData\Local\Temp\ccPJXYCb.s 			page 13


 385 0110 FFF7FEFF 		bl	testPlayerPlay
 386              	.LVL35:
 301:main.c        ****                 uartPrintf("Note: %d\r\n", note);
 387              		.loc 1 301 0
 388 0114 E178     		ldrb	r1, [r4, #3]
 389 0116 1C48     		ldr	r0, .L35+48
 390 0118 FFF7FEFF 		bl	uartPrintf
 391              	.LVL36:
 302:main.c        ****                 break;
 392              		.loc 1 302 0
 393 011c 1AE0     		b	.L7
 394              	.L19:
 303:main.c        **** 
 304:main.c        ****             case 'n':
 305:main.c        ****                 testPlayerPlay(TEST_PLAY_NOTE, note);
 395              		.loc 1 305 0
 396 011e 144C     		ldr	r4, .L35+24
 397 0120 E178     		ldrb	r1, [r4, #3]
 398 0122 0120     		movs	r0, #1
 399 0124 FFF7FEFF 		bl	testPlayerPlay
 400              	.LVL37:
 306:main.c        ****                 uartPrintf("Note: %d\r\n", note);
 401              		.loc 1 306 0
 402 0128 E178     		ldrb	r1, [r4, #3]
 403 012a 1748     		ldr	r0, .L35+48
 404 012c FFF7FEFF 		bl	uartPrintf
 405              	.LVL38:
 307:main.c        ****                 break;
 406              		.loc 1 307 0
 407 0130 10E0     		b	.L7
 408              	.L11:
 308:main.c        ****                 
 309:main.c        ****             case ',':
 310:main.c        ****                 volume = audio_GetVolume();
 409              		.loc 1 310 0
 410 0132 FFF7FEFF 		bl	audio_GetVolume
 411              	.LVL39:
 311:main.c        ****                 if (volume != 0)
 412              		.loc 1 311 0
 413 0136 0028     		cmp	r0, #0
 414 0138 0CD0     		beq	.L7
 312:main.c        ****                 {
 313:main.c        ****                     volume--;
 415              		.loc 1 313 0
 416 013a 0138     		subs	r0, r0, #1
 417              	.LVL40:
 418 013c C0B2     		uxtb	r0, r0
 419              	.LVL41:
 314:main.c        ****                     audio_SetVolume(volume);
 420              		.loc 1 314 0
 421 013e FFF7FEFF 		bl	audio_SetVolume
 422              	.LVL42:
 423 0142 07E0     		b	.L7
 424              	.L13:
 315:main.c        ****                 }
 316:main.c        ****                 break;
 317:main.c        ****             
ARM GAS  C:\Users\DMYTRO~1.FED\AppData\Local\Temp\ccPJXYCb.s 			page 14


 318:main.c        ****             case '.':
 319:main.c        ****                 volume = audio_GetVolume();
 425              		.loc 1 319 0
 426 0144 FFF7FEFF 		bl	audio_GetVolume
 427              	.LVL43:
 320:main.c        ****                 if (volume < 100)
 428              		.loc 1 320 0
 429 0148 6328     		cmp	r0, #99
 430 014a 03D8     		bhi	.L7
 321:main.c        ****                 {
 322:main.c        ****                     volume++;
 431              		.loc 1 322 0
 432 014c 0130     		adds	r0, r0, #1
 433              	.LVL44:
 434 014e C0B2     		uxtb	r0, r0
 435              	.LVL45:
 323:main.c        ****                     audio_SetVolume(volume);
 436              		.loc 1 323 0
 437 0150 FFF7FEFF 		bl	audio_SetVolume
 438              	.LVL46:
 439              	.L7:
 324:main.c        ****                 }
 325:main.c        ****                 break;
 326:main.c        **** 
 327:main.c        ****             default:
 328:main.c        ****                 break;
 329:main.c        ****         }    
 330:main.c        ****     }
 331:main.c        **** }
 440              		.loc 1 331 0
 441              		@ sp needed
 442 0154 10BD     		pop	{r4, pc}
 443              	.L36:
 444 0156 C046     		.align	2
 445              	.L35:
 446 0158 08000000 		.word	.LC5
 447 015c 00000000 		.word	.L10
 448 0160 0C000000 		.word	.LC8
 449 0164 14000000 		.word	.LC10
 450 0168 20000000 		.word	.LC12
 451 016c 2C000000 		.word	.LC14
 452 0170 00000000 		.word	.LANCHOR0
 453 0174 00000000 		.word	.LC1
 454 0178 04000000 		.word	.LC3
 455 017c 38000000 		.word	.LC17
 456 0180 58000000 		.word	.LC19
 457 0184 68000000 		.word	.LC21
 458 0188 78000000 		.word	.LC23
 459              		.cfi_endproc
 460              	.LFE39:
 461              		.size	debugConsole_Run, .-debugConsole_Run
 462              		.section	.text.displayVolume,"ax",%progbits
 463              		.align	2
 464              		.code	16
 465              		.thumb_func
 466              		.type	displayVolume, %function
 467              	displayVolume:
ARM GAS  C:\Users\DMYTRO~1.FED\AppData\Local\Temp\ccPJXYCb.s 			page 15


 468              	.LFB38:
 187:main.c        ****     LED4_Write( ( volume > ( 0 * LED_VOLUME_STEP ) ) ? LED_ON : LED_OFF );
 469              		.loc 1 187 0
 470              		.cfi_startproc
 471              		@ args = 0, pretend = 0, frame = 0
 472              		@ frame_needed = 0, uses_anonymous_args = 0
 473              	.LVL47:
 474 0000 70B5     		push	{r4, r5, r6, lr}
 475              		.cfi_def_cfa_offset 16
 476              		.cfi_offset 4, -16
 477              		.cfi_offset 5, -12
 478              		.cfi_offset 6, -8
 479              		.cfi_offset 14, -4
 480 0002 0500     		movs	r5, r0
 188:main.c        ****     LED5_Write( ( volume > ( 1 * LED_VOLUME_STEP ) ) ? LED_ON : LED_OFF);
 481              		.loc 1 188 0
 482 0004 6842     		rsbs	r0, r5, #0
 483 0006 6841     		adcs	r0, r0, r5
 484              	.LVL48:
 485 0008 C0B2     		uxtb	r0, r0
 486 000a FFF7FEFF 		bl	LED4_Write
 487              	.LVL49:
 189:main.c        ****     LED6_Write( ( volume > ( 2 * LED_VOLUME_STEP ) ) ? LED_ON : LED_OFF);
 488              		.loc 1 189 0
 489 000e 0024     		movs	r4, #0
 490 0010 1423     		movs	r3, #20
 491 0012 2000     		movs	r0, r4
 492 0014 AB42     		cmp	r3, r5
 493 0016 6041     		adcs	r0, r0, r4
 494 0018 C0B2     		uxtb	r0, r0
 495 001a FFF7FEFF 		bl	LED5_Write
 496              	.LVL50:
 190:main.c        ****     LED7_Write( ( volume > ( 3 * LED_VOLUME_STEP ) ) ? LED_ON : LED_OFF);
 497              		.loc 1 190 0
 498 001e 2823     		movs	r3, #40
 499 0020 2000     		movs	r0, r4
 500 0022 AB42     		cmp	r3, r5
 501 0024 6041     		adcs	r0, r0, r4
 502 0026 C0B2     		uxtb	r0, r0
 503 0028 FFF7FEFF 		bl	LED6_Write
 504              	.LVL51:
 191:main.c        ****     LED8_Write( ( volume > ( 4 * LED_VOLUME_STEP ) ) ? LED_ON : LED_OFF);
 505              		.loc 1 191 0
 506 002c 3C23     		movs	r3, #60
 507 002e 2000     		movs	r0, r4
 508 0030 AB42     		cmp	r3, r5
 509 0032 6041     		adcs	r0, r0, r4
 510 0034 C0B2     		uxtb	r0, r0
 511 0036 FFF7FEFF 		bl	LED7_Write
 512              	.LVL52:
 192:main.c        **** }
 513              		.loc 1 192 0
 514 003a 5023     		movs	r3, #80
 515 003c AB42     		cmp	r3, r5
 516 003e 6441     		adcs	r4, r4, r4
 517 0040 E0B2     		uxtb	r0, r4
 518 0042 FFF7FEFF 		bl	LED8_Write
ARM GAS  C:\Users\DMYTRO~1.FED\AppData\Local\Temp\ccPJXYCb.s 			page 16


 519              	.LVL53:
 193:main.c        **** 
 520              		.loc 1 193 0
 521              		@ sp needed
 522 0046 70BD     		pop	{r4, r5, r6, pc}
 523              		.cfi_endproc
 524              	.LFE38:
 525              		.size	displayVolume, .-displayVolume
 526              		.section	.text.increaseVolume,"ax",%progbits
 527              		.align	2
 528              		.code	16
 529              		.thumb_func
 530              		.type	increaseVolume, %function
 531              	increaseVolume:
 532              	.LFB37:
 172:main.c        ****     uint8_t volume = audio_GetVolume();
 533              		.loc 1 172 0
 534              		.cfi_startproc
 535              		@ args = 0, pretend = 0, frame = 0
 536              		@ frame_needed = 0, uses_anonymous_args = 0
 537 0000 10B5     		push	{r4, lr}
 538              		.cfi_def_cfa_offset 8
 539              		.cfi_offset 4, -8
 540              		.cfi_offset 14, -4
 173:main.c        ****     
 541              		.loc 1 173 0
 542 0002 FFF7FEFF 		bl	audio_GetVolume
 543              	.LVL54:
 175:main.c        ****     if (volume > 100)
 544              		.loc 1 175 0
 545 0006 1430     		adds	r0, r0, #20
 546              	.LVL55:
 547 0008 C0B2     		uxtb	r0, r0
 548              	.LVL56:
 176:main.c        ****     {
 549              		.loc 1 176 0
 550 000a 6428     		cmp	r0, #100
 551 000c 00D9     		bls	.L39
 178:main.c        ****     }
 552              		.loc 1 178 0
 553 000e 0020     		movs	r0, #0
 554              	.LVL57:
 555              	.L39:
 181:main.c        ****     displayVolume(audio_GetVolume());
 556              		.loc 1 181 0
 557 0010 FFF7FEFF 		bl	audio_SetVolume
 558              	.LVL58:
 182:main.c        ****     volumeSetMode.lastTimeStamp = sysTickTimer_GetTimeMs();
 559              		.loc 1 182 0
 560 0014 FFF7FEFF 		bl	audio_GetVolume
 561              	.LVL59:
 562 0018 FFF7FEFF 		bl	displayVolume
 563              	.LVL60:
 183:main.c        **** }
 564              		.loc 1 183 0
 565 001c FFF7FEFF 		bl	sysTickTimer_GetTimeMs
 566              	.LVL61:
ARM GAS  C:\Users\DMYTRO~1.FED\AppData\Local\Temp\ccPJXYCb.s 			page 17


 567 0020 014B     		ldr	r3, .L41
 568 0022 9860     		str	r0, [r3, #8]
 184:main.c        **** 
 569              		.loc 1 184 0
 570              		@ sp needed
 571 0024 10BD     		pop	{r4, pc}
 572              	.L42:
 573 0026 C046     		.align	2
 574              	.L41:
 575 0028 00000000 		.word	.LANCHOR0
 576              		.cfi_endproc
 577              	.LFE37:
 578              		.size	increaseVolume, .-increaseVolume
 579              		.section	.text.onBtnChange,"ax",%progbits
 580              		.align	2
 581              		.code	16
 582              		.thumb_func
 583              		.type	onBtnChange, %function
 584              	onBtnChange:
 585              	.LFB36:
 140:main.c        ****     uartPrintf("MAIN: Btn state %d\r\n", btnState);
 586              		.loc 1 140 0
 587              		.cfi_startproc
 588              		@ args = 0, pretend = 0, frame = 0
 589              		@ frame_needed = 0, uses_anonymous_args = 0
 590              	.LVL62:
 591 0000 10B5     		push	{r4, lr}
 592              		.cfi_def_cfa_offset 8
 593              		.cfi_offset 4, -8
 594              		.cfi_offset 14, -4
 595 0002 0400     		movs	r4, r0
 141:main.c        ****     switch(btnState)
 596              		.loc 1 141 0
 597 0004 0100     		movs	r1, r0
 598 0006 1348     		ldr	r0, .L49
 599              	.LVL63:
 600 0008 FFF7FEFF 		bl	uartPrintf
 601              	.LVL64:
 142:main.c        ****     {
 602              		.loc 1 142 0
 603 000c 012C     		cmp	r4, #1
 604 000e 1ED0     		beq	.L45
 605 0010 002C     		cmp	r4, #0
 606 0012 02D0     		beq	.L46
 607 0014 022C     		cmp	r4, #2
 608 0016 10D0     		beq	.L47
 609 0018 1BE0     		b	.L43
 610              	.L46:
 145:main.c        ****             volumeSetMode.lastTimeStamp = sysTickTimer_GetTimeMs();
 611              		.loc 1 145 0
 612 001a 0F4C     		ldr	r4, .L49+4
 613 001c 0123     		movs	r3, #1
 614 001e 2371     		strb	r3, [r4, #4]
 146:main.c        ****             displayVolume(audio_GetVolume());
 615              		.loc 1 146 0
 616 0020 FFF7FEFF 		bl	sysTickTimer_GetTimeMs
 617              	.LVL65:
ARM GAS  C:\Users\DMYTRO~1.FED\AppData\Local\Temp\ccPJXYCb.s 			page 18


 618 0024 A060     		str	r0, [r4, #8]
 147:main.c        ****             uartPrintf("MAIN: Set volume mode On\r\n");
 619              		.loc 1 147 0
 620 0026 FFF7FEFF 		bl	audio_GetVolume
 621              	.LVL66:
 622 002a FFF7FEFF 		bl	displayVolume
 623              	.LVL67:
 148:main.c        ****             increaseVolume();
 624              		.loc 1 148 0
 625 002e 0B48     		ldr	r0, .L49+8
 626 0030 FFF7FEFF 		bl	uartPrintf
 627              	.LVL68:
 149:main.c        ****             break;
 628              		.loc 1 149 0
 629 0034 FFF7FEFF 		bl	increaseVolume
 630              	.LVL69:
 150:main.c        ****             
 631              		.loc 1 150 0
 632 0038 0BE0     		b	.L43
 633              	.L47:
 153:main.c        ****             {
 634              		.loc 1 153 0
 635 003a 074B     		ldr	r3, .L49+4
 636 003c 5B78     		ldrb	r3, [r3, #1]
 637 003e 002B     		cmp	r3, #0
 638 0040 02D0     		beq	.L48
 155:main.c        ****             } else
 639              		.loc 1 155 0
 640 0042 FFF7FEFF 		bl	filePlayer_Pause
 641              	.LVL70:
 642 0046 04E0     		b	.L43
 643              	.L48:
 158:main.c        ****             }
 644              		.loc 1 158 0
 645 0048 FFF7FEFF 		bl	filePlayer_Play
 646              	.LVL71:
 647 004c 01E0     		b	.L43
 648              	.L45:
 163:main.c        ****             break;
 649              		.loc 1 163 0
 650 004e FFF7FEFF 		bl	filePlayer_Next
 651              	.LVL72:
 652              	.L43:
 169:main.c        **** 
 653              		.loc 1 169 0
 654              		@ sp needed
 655 0052 10BD     		pop	{r4, pc}
 656              	.L50:
 657              		.align	2
 658              	.L49:
 659 0054 84000000 		.word	.LC26
 660 0058 00000000 		.word	.LANCHOR0
 661 005c 9C000000 		.word	.LC29
 662              		.cfi_endproc
 663              	.LFE36:
 664              		.size	onBtnChange, .-onBtnChange
 665              		.section	.text.main,"ax",%progbits
ARM GAS  C:\Users\DMYTRO~1.FED\AppData\Local\Temp\ccPJXYCb.s 			page 19


 666              		.align	2
 667              		.global	main
 668              		.code	16
 669              		.thumb_func
 670              		.type	main, %function
 671              	main:
 672              	.LFB34:
  99:main.c        ****     CyGlobalIntEnable;
 673              		.loc 1 99 0
 674              		.cfi_startproc
 675              		@ Volatile: function does not return.
 676              		@ args = 0, pretend = 0, frame = 0
 677              		@ frame_needed = 0, uses_anonymous_args = 0
 678 0000 10B5     		push	{r4, lr}
 679              		.cfi_def_cfa_offset 8
 680              		.cfi_offset 4, -8
 681              		.cfi_offset 14, -4
 100:main.c        ****     
 682              		.loc 1 100 0
 683              		.syntax divided
 684              	@ 100 "main.c" 1
 685 0002 62B6     		CPSIE   i
 686              	@ 0 "" 2
 102:main.c        ****     uartPrintf("*******Audio_ player**********\r\n");
 687              		.loc 1 102 0
 688              		.thumb
 689              		.syntax unified
 690 0004 FFF7FEFF 		bl	UART_Start
 691              	.LVL73:
 103:main.c        ****     
 692              		.loc 1 103 0
 693 0008 1748     		ldr	r0, .L55
 694 000a FFF7FEFF 		bl	uartPrintf
 695              	.LVL74:
 105:main.c        ****     audio_Init();
 696              		.loc 1 105 0
 697 000e FFF7FEFF 		bl	sysTickTimer_Init
 698              	.LVL75:
 106:main.c        ****     audio_SetVolume(VOLUME_DEFAULT_PERC);
 699              		.loc 1 106 0
 700 0012 FFF7FEFF 		bl	audio_Init
 701              	.LVL76:
 107:main.c        ****     
 702              		.loc 1 107 0
 703 0016 6420     		movs	r0, #100
 704 0018 FFF7FEFF 		bl	audio_SetVolume
 705              	.LVL77:
 109:main.c        ****     cardMount();
 706              		.loc 1 109 0
 707 001c FFF7FEFF 		bl	cardInit
 708              	.LVL78:
 110:main.c        ****     userControl_Init(onBtnChange);
 709              		.loc 1 110 0
 710 0020 FFF7FEFF 		bl	cardMount
 711              	.LVL79:
 111:main.c        ****     for(;;)
 712              		.loc 1 111 0
ARM GAS  C:\Users\DMYTRO~1.FED\AppData\Local\Temp\ccPJXYCb.s 			page 20


 713 0024 1148     		ldr	r0, .L55+4
 714 0026 FFF7FEFF 		bl	userControl_Init
 715              	.LVL80:
 716              	.L52:
 114:main.c        ****         filePlayer_Run();
 717              		.loc 1 114 0
 718 002a FFF7FEFF 		bl	updateStatusLed
 719              	.LVL81:
 115:main.c        ****         userControl_Run();
 720              		.loc 1 115 0
 721 002e FFF7FEFF 		bl	filePlayer_Run
 722              	.LVL82:
 116:main.c        ****         debugConsole_Run();
 723              		.loc 1 116 0
 724 0032 FFF7FEFF 		bl	userControl_Run
 725              	.LVL83:
 117:main.c        ****             
 726              		.loc 1 117 0
 727 0036 FFF7FEFF 		bl	debugConsole_Run
 728              	.LVL84:
 119:main.c        ****         {
 729              		.loc 1 119 0
 730 003a 0D4B     		ldr	r3, .L55+8
 731 003c 1B79     		ldrb	r3, [r3, #4]
 732 003e 002B     		cmp	r3, #0
 733 0040 F3D0     		beq	.L52
 119:main.c        ****         {
 734              		.loc 1 119 0 is_stmt 0 discriminator 1
 735 0042 0B4B     		ldr	r3, .L55+8
 736 0044 9C68     		ldr	r4, [r3, #8]
 737              	.LVL85:
 738              	.LBB4:
 739              	.LBB5:
 740              		.file 2 "sysTickTimer.h"
   1:sysTickTimer.h **** /** @file
   2:sysTickTimer.h ****  *  @brief Header file for timers utility
   3:sysTickTimer.h ****  */
   4:sysTickTimer.h **** #ifndef SYSTICKTIMER_H
   5:sysTickTimer.h **** #define SYSTICKTIMER_H
   6:sysTickTimer.h **** #include <stdint.h>
   7:sysTickTimer.h **** #include <stdbool.h>
   8:sysTickTimer.h ****  /**
   9:sysTickTimer.h ****  * @defgroup sysTickTimer
  10:sysTickTimer.h ****  *
  11:sysTickTimer.h ****  * The utility to measure time
  12:sysTickTimer.h ****  *
  13:sysTickTimer.h ****  * sysTickTimer component API
  14:sysTickTimer.h ****  * Used for time measurement
  15:sysTickTimer.h ****  * Period of the timer 1ms
  16:sysTickTimer.h ****  * @{
  17:sysTickTimer.h ****  */ 
  18:sysTickTimer.h **** 
  19:sysTickTimer.h **** /**
  20:sysTickTimer.h ****  * @brief Configures sysTick Timer
  21:sysTickTimer.h ****  * Should be called before any actions with module
  22:sysTickTimer.h ****  *
  23:sysTickTimer.h ****  * @return none
ARM GAS  C:\Users\DMYTRO~1.FED\AppData\Local\Temp\ccPJXYCb.s 			page 21


  24:sysTickTimer.h ****  */
  25:sysTickTimer.h **** void sysTickTimer_Init(void);
  26:sysTickTimer.h **** 
  27:sysTickTimer.h **** /**
  28:sysTickTimer.h ****  * @brief Reading of sysTick Timer counter
  29:sysTickTimer.h ****  * Miliseconds that are passed from moment of call of 
  30:sysTickTimer.h ****  * the init function
  31:sysTickTimer.h ****  *
  32:sysTickTimer.h ****  * @return actual sysTick Timer value
  33:sysTickTimer.h ****  */
  34:sysTickTimer.h **** uint32_t sysTickTimer_GetTimeMs(void);
  35:sysTickTimer.h **** 
  36:sysTickTimer.h **** /**
  37:sysTickTimer.h ****  * @brief Time period passing check
  38:sysTickTimer.h ****  *
  39:sysTickTimer.h ****  * @param[in]  savedTime the time when checking started
  40:sysTickTimer.h ****  * @param[in]  period  required period
  41:sysTickTimer.h ****  *
  42:sysTickTimer.h ****  * @return true if the period is passed, false - if it is not passed
  43:sysTickTimer.h ****  */
  44:sysTickTimer.h **** inline bool sysTickTimer_IsTimePassedMs(uint32_t savedTime, uint32_t period)
  45:sysTickTimer.h **** {
  46:sysTickTimer.h ****     return ((sysTickTimer_GetTimeMs() - savedTime) >= period);
 741              		.loc 2 46 0 is_stmt 1 discriminator 1
 742 0046 FFF7FEFF 		bl	sysTickTimer_GetTimeMs
 743              	.LVL86:
 744 004a 001B     		subs	r0, r0, r4
 745              	.LVL87:
 746              	.LBE5:
 747              	.LBE4:
 119:main.c        ****         {
 748              		.loc 1 119 0 discriminator 1
 749 004c 094B     		ldr	r3, .L55+12
 750 004e 9842     		cmp	r0, r3
 751 0050 EBD9     		bls	.L52
 121:main.c        ****             displayVolume(0);
 752              		.loc 1 121 0
 753 0052 0022     		movs	r2, #0
 754 0054 064B     		ldr	r3, .L55+8
 755 0056 1A71     		strb	r2, [r3, #4]
 122:main.c        ****             uartPrintf("MAIN: Set volume mode Off\r\n");
 756              		.loc 1 122 0
 757 0058 0020     		movs	r0, #0
 758 005a FFF7FEFF 		bl	displayVolume
 759              	.LVL88:
 123:main.c        ****         }  
 760              		.loc 1 123 0
 761 005e 0648     		ldr	r0, .L55+16
 762 0060 FFF7FEFF 		bl	uartPrintf
 763              	.LVL89:
 764 0064 E1E7     		b	.L52
 765              	.L56:
 766 0066 C046     		.align	2
 767              	.L55:
 768 0068 B8000000 		.word	.LC31
 769 006c 00000000 		.word	onBtnChange
 770 0070 00000000 		.word	.LANCHOR0
ARM GAS  C:\Users\DMYTRO~1.FED\AppData\Local\Temp\ccPJXYCb.s 			page 22


 771 0074 3F1F0000 		.word	7999
 772 0078 DC000000 		.word	.LC35
 773              		.cfi_endproc
 774              	.LFE34:
 775              		.size	main, .-main
 776              		.section	.rodata.str1.4,"aMS",%progbits,1
 777              		.align	2
 778              	.LC1:
 779 0000 6F6E00   		.ascii	"on\000"
 780 0003 00       		.space	1
 781              	.LC3:
 782 0004 6F666600 		.ascii	"off\000"
 783              	.LC5:
 784 0008 3E0D0A00 		.ascii	">\015\012\000"
 785              	.LC8:
 786 000c 2F762E70 		.ascii	"/v.pcm\000"
 786      636D00
 787 0013 00       		.space	1
 788              	.LC10:
 789 0014 2F66696C 		.ascii	"/file2.pcm\000"
 789      65322E70 
 789      636D00
 790 001f 00       		.space	1
 791              	.LC12:
 792 0020 2F746573 		.ascii	"/test.mid\000"
 792      742E6D69 
 792      6400
 793 002a 0000     		.space	2
 794              	.LC14:
 795 002c 2F663838 		.ascii	"/f88.wav\000"
 795      2E776176 
 795      00
 796 0035 000000   		.space	3
 797              	.LC17:
 798 0038 53696E65 		.ascii	"Sine generation! status: %s\015\012\000"
 798      2067656E 
 798      65726174 
 798      696F6E21 
 798      20737461 
 799 0056 0000     		.space	2
 800              	.LC19:
 801 0058 50657269 		.ascii	"Period: %d\015\012\000"
 801      6F643A20 
 801      25640D0A 
 801      00
 802 0065 000000   		.space	3
 803              	.LC21:
 804 0068 53595354 		.ascii	"SYSTICK: %d\015\012\000"
 804      49434B3A 
 804      2025640D 
 804      0A00
 805 0076 0000     		.space	2
 806              	.LC23:
 807 0078 4E6F7465 		.ascii	"Note: %d\015\012\000"
 807      3A202564 
 807      0D0A00
 808 0083 00       		.space	1
ARM GAS  C:\Users\DMYTRO~1.FED\AppData\Local\Temp\ccPJXYCb.s 			page 23


 809              	.LC26:
 810 0084 4D41494E 		.ascii	"MAIN: Btn state %d\015\012\000"
 810      3A204274 
 810      6E207374 
 810      61746520 
 810      25640D0A 
 811 0099 000000   		.space	3
 812              	.LC29:
 813 009c 4D41494E 		.ascii	"MAIN: Set volume mode On\015\012\000"
 813      3A205365 
 813      7420766F 
 813      6C756D65 
 813      206D6F64 
 814 00b7 00       		.space	1
 815              	.LC31:
 816 00b8 2A2A2A2A 		.ascii	"*******Audio_ player**********\015\012\000"
 816      2A2A2A41 
 816      7564696F 
 816      5F20706C 
 816      61796572 
 817 00d9 000000   		.space	3
 818              	.LC35:
 819 00dc 4D41494E 		.ascii	"MAIN: Set volume mode Off\015\012\000"
 819      3A205365 
 819      7420766F 
 819      6C756D65 
 819      206D6F64 
 820              		.bss
 821              		.align	2
 822              		.set	.LANCHOR0,. + 0
 823              		.type	prevStatePlay, %object
 824              		.size	prevStatePlay, 1
 825              	prevStatePlay:
 826 0000 00       		.space	1
 827              		.type	curStatePlay, %object
 828              		.size	curStatePlay, 1
 829              	curStatePlay:
 830 0001 00       		.space	1
 831              		.type	sine.6674, %object
 832              		.size	sine.6674, 1
 833              	sine.6674:
 834 0002 00       		.space	1
 835              		.type	note.6675, %object
 836              		.size	note.6675, 1
 837              	note.6675:
 838 0003 00       		.space	1
 839              		.type	volumeSetMode, %object
 840              		.size	volumeSetMode, 8
 841              	volumeSetMode:
 842 0004 00000000 		.space	8
 842      00000000 
 843              		.text
 844              	.Letext0:
 845              		.file 3 "c:\\program files (x86)\\cypress\\psoc creator\\4.2\\psoc creator\\import\\gnu\\arm\\5.4.
 846              		.file 4 "c:\\program files (x86)\\cypress\\psoc creator\\4.2\\psoc creator\\import\\gnu\\arm\\5.4.
 847              		.file 5 "audio.h"
 848              		.file 6 "userControls.h"
ARM GAS  C:\Users\DMYTRO~1.FED\AppData\Local\Temp\ccPJXYCb.s 			page 24


 849              		.file 7 "testPlayer.h"
 850              		.file 8 "filePlayer.h"
 851              		.file 9 "Generated_Source\\PSoC4/LED9.h"
 852              		.file 10 "Generated_Source\\PSoC4/UART_SPI_UART.h"
 853              		.file 11 "player.h"
 854              		.file 12 "pcmPlayer.h"
 855              		.file 13 "midiPlayer.h"
 856              		.file 14 "card.h"
 857              		.file 15 "uartPrint.h"
 858              		.file 16 "Generated_Source\\PSoC4/LED4.h"
 859              		.file 17 "Generated_Source\\PSoC4/LED5.h"
 860              		.file 18 "Generated_Source\\PSoC4/LED6.h"
 861              		.file 19 "Generated_Source\\PSoC4/LED7.h"
 862              		.file 20 "Generated_Source\\PSoC4/LED8.h"
 863              		.file 21 "Generated_Source\\PSoC4/UART.h"