ARM GAS  C:\Users\DMYTRO~1.FED\AppData\Local\Temp\ccc30aoz.s 			page 1


   1              		.syntax unified
   2              		.cpu cortex-m0plus
   3              		.fpu softvfp
   4              		.eabi_attribute 20, 1
   5              		.eabi_attribute 21, 1
   6              		.eabi_attribute 23, 3
   7              		.eabi_attribute 24, 1
   8              		.eabi_attribute 25, 1
   9              		.eabi_attribute 26, 1
  10              		.eabi_attribute 30, 1
  11              		.eabi_attribute 34, 0
  12              		.eabi_attribute 18, 4
  13              		.thumb
  14              		.syntax unified
  15              		.file	"midiPlayer.c"
  16              		.text
  17              	.Ltext0:
  18              		.cfi_sections	.debug_frame
  19              		.section	.text.midiPlayer_ConvSamplesCnt,"ax",%progbits
  20              		.align	2
  21              		.code	16
  22              		.thumb_func
  23              		.type	midiPlayer_ConvSamplesCnt, %function
  24              	midiPlayer_ConvSamplesCnt:
  25              	.LFB6:
  26              		.file 1 "midiPlayer.c"
   1:midiPlayer.c  **** /** @file
   2:midiPlayer.c  ****  *  @brief Source file for MIDI sequencer
   3:midiPlayer.c  ****  */ 
   4:midiPlayer.c  **** #include <string.h>
   5:midiPlayer.c  **** #include "midiPlayer.h"
   6:midiPlayer.c  **** #include "player.h"
   7:midiPlayer.c  **** #include "uartPrint.h"
   8:midiPlayer.c  **** #include "card.h"
   9:midiPlayer.c  **** #include "assert.h"
  10:midiPlayer.c  **** 
  11:midiPlayer.c  **** /** Square wave or sine wave, square wave sounds better */
  12:midiPlayer.c  **** #define SQUARE_WAVE      1
  13:midiPlayer.c  **** /* 32 000 per second */
  14:midiPlayer.c  **** #define SAMPLES_PER_MS   32U
  15:midiPlayer.c  **** #define DEFAULT_TEMPO_MS 500U
  16:midiPlayer.c  **** #define CHANNELS_MAX     16U
  17:midiPlayer.c  **** 
  18:midiPlayer.c  **** 
  19:midiPlayer.c  **** #define EVENT_NOTE_OFF           0x80U
  20:midiPlayer.c  **** #define EVENT_NOTE_ON            0x90U
  21:midiPlayer.c  **** #define EVENT_NOTE_AFTERTOUCH    0xA0U
  22:midiPlayer.c  **** #define EVENT_CONTROLLER         0xB0U
  23:midiPlayer.c  **** #define EVENT_PROGRAM_CHANGE     0xC0U
  24:midiPlayer.c  **** #define EVENT_CHANNEL_AFTERTOUCH 0xD0U
  25:midiPlayer.c  **** #define EVENT_PITCH_BEND         0xE0U
  26:midiPlayer.c  **** #define EVENT_META               0xFFU
  27:midiPlayer.c  **** 
  28:midiPlayer.c  **** #define EVENT_META_SET_TEMPO 0x51U
  29:midiPlayer.c  **** #define EVENT_META_TIME_SEQ  0x58U
  30:midiPlayer.c  **** #define EVENT_META_EOF       0x2FU
  31:midiPlayer.c  **** 
ARM GAS  C:\Users\DMYTRO~1.FED\AppData\Local\Temp\ccc30aoz.s 			page 2


  32:midiPlayer.c  **** #define HTOS(x) ((x)>>8) | ((x)<<8)
  33:midiPlayer.c  **** #define HTOL(x) (((x)>>24)&0xff) | \
  34:midiPlayer.c  ****                 (((x)<<8)&0xff0000) |\
  35:midiPlayer.c  ****                 (((x)>>8)&0xff00) |\
  36:midiPlayer.c  ****                 (((x)<<24)&0xff000000)
  37:midiPlayer.c  **** 
  38:midiPlayer.c  **** typedef struct {
  39:midiPlayer.c  ****     uint8_t   type[4];
  40:midiPlayer.c  ****     uint32_t  size;
  41:midiPlayer.c  **** } __attribute__ ((packed)) midiPlayer_ChunkHeader_t;
  42:midiPlayer.c  **** 
  43:midiPlayer.c  **** typedef struct {
  44:midiPlayer.c  ****     uint16_t                 format;
  45:midiPlayer.c  ****     uint16_t                 tracks;
  46:midiPlayer.c  ****     uint16_t                 division;   
  47:midiPlayer.c  **** } __attribute__ ((packed)) midiPlayer_MTHD_t;
  48:midiPlayer.c  **** 
  49:midiPlayer.c  **** typedef struct {
  50:midiPlayer.c  ****     midiPlayer_ChunkHeader_t chunkHeader;
  51:midiPlayer.c  ****     midiPlayer_MTHD_t        data;
  52:midiPlayer.c  **** } __attribute__ ((packed)) midiPlayer_FileHeader_t;
  53:midiPlayer.c  **** 
  54:midiPlayer.c  **** typedef struct {
  55:midiPlayer.c  ****    uint16_t  cnt;
  56:midiPlayer.c  ****    uint16_t  cntadd;
  57:midiPlayer.c  **** } midiPlayer_chanState_t;
  58:midiPlayer.c  **** 
  59:midiPlayer.c  **** typedef struct
  60:midiPlayer.c  **** {
  61:midiPlayer.c  ****     uint8_t   channel;
  62:midiPlayer.c  ****     uint32_t  wait;
  63:midiPlayer.c  ****     uint16_t  sample;
  64:midiPlayer.c  **** } midiPlayer_event_t;
  65:midiPlayer.c  **** 
  66:midiPlayer.c  **** typedef struct
  67:midiPlayer.c  **** {
  68:midiPlayer.c  ****     uint8_t     m_nze;
  69:midiPlayer.c  ****     uint8_t     m_t1;
  70:midiPlayer.c  ****     uint8_t     m_t2;
  71:midiPlayer.c  ****     uint8_t     m_t3;  
  72:midiPlayer.c  **** } midiPlayer_wngState_t;
  73:midiPlayer.c  **** 
  74:midiPlayer.c  **** typedef struct
  75:midiPlayer.c  **** {
  76:midiPlayer.c  ****    midiPlayer_FileHeader_t   fileHeader;
  77:midiPlayer.c  ****    midiPlayer_ChunkHeader_t  trackHeader;
  78:midiPlayer.c  ****    uint32_t                  tempo;
  79:midiPlayer.c  ****    uint32_t                  samplePerQuarter;
  80:midiPlayer.c  ****    midiPlayer_chanState_t    chanState[CHANNELS_MAX];
  81:midiPlayer.c  ****    midiPlayer_event_t        nextEvent;
  82:midiPlayer.c  ****    bool                      isError;
  83:midiPlayer.c  ****    bool                      isEnd;
  84:midiPlayer.c  ****    bool                      isOpen;
  85:midiPlayer.c  ****    uint8_t                   maxChan;
  86:midiPlayer.c  ****    FIL                       fp;
  87:midiPlayer.c  ****    midiPlayer_wngState_t     wng;
  88:midiPlayer.c  **** } midiPlayer_t;
ARM GAS  C:\Users\DMYTRO~1.FED\AppData\Local\Temp\ccc30aoz.s 			page 3


  89:midiPlayer.c  **** 
  90:midiPlayer.c  **** static bool midiPlayer_Init(void);
  91:midiPlayer.c  **** static void midiPlayer_LoadNextCb(uint8_t *buffer, uint32_t maxSize, uint32_t *obtainedSize);
  92:midiPlayer.c  **** static bool midiPlayer_ReadVariableLength(uint32_t *dst);
  93:midiPlayer.c  **** static bool midiPlayer_ReadChunkHeader(midiPlayer_ChunkHeader_t *dst);
  94:midiPlayer.c  **** static bool midiPlayer_ReadByte(uint8_t *byte);
  95:midiPlayer.c  **** static bool midiPlayer_ReadEvent(uint8_t *id, uint32_t *delta_time);
  96:midiPlayer.c  **** static bool midiPlayer_ParseEventMeta(void);
  97:midiPlayer.c  **** static bool midiPlayer_SkipEvent(uint32_t params);
  98:midiPlayer.c  **** static void midiPlayer_ProcessEvents(void);
  99:midiPlayer.c  **** static void midiPlayer_ParseEvent(uint8_t id, uint32_t delta_time);
 100:midiPlayer.c  **** static uint32_t midiPlayer_ConvSamplesCnt(uint32_t src);
 101:midiPlayer.c  **** static uint32_t midiPlayer_GetCalcVal(void);
 102:midiPlayer.c  **** static uint8_t midiPlayer_GetSample(void);
 103:midiPlayer.c  **** static uint16_t midiPlayer_ConvNoteSample(uint8_t noteIdx);
 104:midiPlayer.c  **** static void midiPlayer_SetChanState(uint8_t chanIdx, uint16_t sample);
 105:midiPlayer.c  **** static void midiPlayer_OnEndCb(void);
 106:midiPlayer.c  **** static void midiPlayer_Close(void);
 107:midiPlayer.c  **** static uint8_t midiPlayer_GetWhiteNoise(void);
 108:midiPlayer.c  **** 
 109:midiPlayer.c  **** static const char mthdStr [] = "MThd"; 
 110:midiPlayer.c  **** static const char mtrkStr [] = "MTrk"; 
 111:midiPlayer.c  **** static const uint16_t s_noteFreqEx32k[ 12 ] = { 0x7E6F, 0x7757, 0x70A3, 0x6A51, 0x645A, 0x5EB8, 0x5
 112:midiPlayer.c  **** 
 113:midiPlayer.c  **** #if !SQUARE_WAVE
 114:midiPlayer.c  **** static const int8_t s_sineTable[ 64 ] = { 
 115:midiPlayer.c  ****     0x00, 0x03, 0x06, 0x09, 0x0C, 0x0F, 0x11, 0x14, 0x16, 0x18, 0x1A, 0x1B, 0x1D, 0x1E, 0x1E, 0x1F,
 116:midiPlayer.c  ****     0x1F, 0x1F, 0x1E, 0x1E, 0x1D, 0x1B, 0x1A, 0x18, 0x16, 0x14, 0x11, 0x0F, 0x0C, 0x09, 0x06, 0x03,
 117:midiPlayer.c  ****     0x00, 0xFC, 0xF9, 0xF6, 0xF3, 0xF0, 0xEE, 0xEB, 0xE9, 0xE7, 0xE5, 0xE4, 0xE2, 0xE1, 0xE1, 0xE0,
 118:midiPlayer.c  ****     0xE0, 0xE0, 0xE1, 0xE1, 0xE2, 0xE4, 0xE5, 0xE7, 0xE9, 0xEB, 0xEE, 0xF0, 0xF3, 0xF6, 0xF9, 0xFC 
 119:midiPlayer.c  **** #endif
 120:midiPlayer.c  **** 
 121:midiPlayer.c  **** static playerCbs_t playerCb = {.onDataRead = midiPlayer_LoadNextCb, .onStop = midiPlayer_OnEndCb};
 122:midiPlayer.c  **** static midiPlayer_t midiPlayer = {.isOpen = false,};
 123:midiPlayer.c  **** 
 124:midiPlayer.c  **** bool midiPlayer_Play(const char *fname)
 125:midiPlayer.c  **** {
 126:midiPlayer.c  ****     uint8_t resultF = RES_OK;
 127:midiPlayer.c  ****     bool    result = false;
 128:midiPlayer.c  ****     
 129:midiPlayer.c  ****     uartPrintf("MIDI: Play %s\r\n", fname);
 130:midiPlayer.c  ****     if (midiPlayer.isOpen)
 131:midiPlayer.c  ****     {
 132:midiPlayer.c  ****         player_Stop();
 133:midiPlayer.c  ****     }
 134:midiPlayer.c  ****    
 135:midiPlayer.c  ****     resultF = f_open(&midiPlayer.fp, fname, FA_READ);
 136:midiPlayer.c  ****     if (RES_OK != resultF)
 137:midiPlayer.c  ****     {
 138:midiPlayer.c  ****         uartPrintf("MIDI: Failed at open %d\r\n", resultF);
 139:midiPlayer.c  ****         cardErrorPrint(resultF);
 140:midiPlayer.c  ****     } else
 141:midiPlayer.c  ****     {
 142:midiPlayer.c  ****         result = midiPlayer_Init();         
 143:midiPlayer.c  ****     }    
 144:midiPlayer.c  ****     
 145:midiPlayer.c  ****     if (result)
ARM GAS  C:\Users\DMYTRO~1.FED\AppData\Local\Temp\ccc30aoz.s 			page 4


 146:midiPlayer.c  ****     {
 147:midiPlayer.c  ****        player_Play();
 148:midiPlayer.c  ****     }
 149:midiPlayer.c  **** 
 150:midiPlayer.c  ****     return result;
 151:midiPlayer.c  **** }
 152:midiPlayer.c  **** 
 153:midiPlayer.c  **** 
 154:midiPlayer.c  **** static bool midiPlayer_Init(void)
 155:midiPlayer.c  **** {
 156:midiPlayer.c  ****     char    type[5] = {0};
 157:midiPlayer.c  ****     UINT    len = 0;
 158:midiPlayer.c  ****     uint8_t resultF = RES_OK;
 159:midiPlayer.c  ****     bool res = false;
 160:midiPlayer.c  ****     
 161:midiPlayer.c  ****     do
 162:midiPlayer.c  ****     {
 163:midiPlayer.c  ****         resultF = f_read(&midiPlayer.fp, &midiPlayer.fileHeader, sizeof(midiPlayer_FileHeader_t), &
 164:midiPlayer.c  ****         if (RES_OK != resultF)
 165:midiPlayer.c  ****         {
 166:midiPlayer.c  ****             uartPrintf("MIDI: Failed at reading header\r\n", resultF);
 167:midiPlayer.c  ****             break;
 168:midiPlayer.c  ****         }
 169:midiPlayer.c  ****         
 170:midiPlayer.c  ****         memcpy(type, midiPlayer.fileHeader.chunkHeader.type, sizeof(midiPlayer.fileHeader.chunkHead
 171:midiPlayer.c  ****         midiPlayer.fileHeader.chunkHeader.size = HTOL(midiPlayer.fileHeader.chunkHeader.size);
 172:midiPlayer.c  ****         uartPrintf("MIDI: 0 chunk type %s\r\n", type);
 173:midiPlayer.c  ****         uartPrintf("MIDI: 0 chunk size %d\r\n", midiPlayer.fileHeader.chunkHeader.size);
 174:midiPlayer.c  ****         if (memcmp(mthdStr, type, sizeof(midiPlayer.fileHeader.chunkHeader.type)))
 175:midiPlayer.c  ****         {
 176:midiPlayer.c  ****             uartPrintf("MIDI: Wrong chunk type\r\n");
 177:midiPlayer.c  ****             break;
 178:midiPlayer.c  ****         }
 179:midiPlayer.c  ****         
 180:midiPlayer.c  ****         if (6 != midiPlayer.fileHeader.chunkHeader.size)
 181:midiPlayer.c  ****         {
 182:midiPlayer.c  ****             uartPrintf("MIDI: Size of 0-chunk should be 6 according to standard\r\n");
 183:midiPlayer.c  ****             break;
 184:midiPlayer.c  ****         }
 185:midiPlayer.c  ****         
 186:midiPlayer.c  ****         midiPlayer.fileHeader.data.format   = HTOS(midiPlayer.fileHeader.data.format);
 187:midiPlayer.c  ****         midiPlayer.fileHeader.data.tracks   = HTOS(midiPlayer.fileHeader.data.tracks);
 188:midiPlayer.c  ****         midiPlayer.fileHeader.data.division = HTOS(midiPlayer.fileHeader.data.division);
 189:midiPlayer.c  ****         
 190:midiPlayer.c  ****         uartPrintf("MIDI: Format: %d\r\n", midiPlayer.fileHeader.data.format);
 191:midiPlayer.c  ****         uartPrintf("MIDI: Tracks: %d\r\n", midiPlayer.fileHeader.data.tracks);
 192:midiPlayer.c  ****         uartPrintf("MIDI: Division: %d\r\n", midiPlayer.fileHeader.data.division);
 193:midiPlayer.c  ****         if (0 != midiPlayer.fileHeader.data.format)
 194:midiPlayer.c  ****         {
 195:midiPlayer.c  ****             uartPrintf("MIDI: Only format 0 currently supported. Sorry\r\n");
 196:midiPlayer.c  ****             break;
 197:midiPlayer.c  ****         }
 198:midiPlayer.c  ****         
 199:midiPlayer.c  ****         if (midiPlayer.fileHeader.data.division & 0x8000)
 200:midiPlayer.c  ****         {
 201:midiPlayer.c  ****             uartPrintf("MIDI: Time format: number of delta-time units per SMTPE frame. Not supporte
 202:midiPlayer.c  ****             break;
ARM GAS  C:\Users\DMYTRO~1.FED\AppData\Local\Temp\ccc30aoz.s 			page 5


 203:midiPlayer.c  ****         } else
 204:midiPlayer.c  ****         {
 205:midiPlayer.c  ****             uartPrintf("MIDI: Time format: number of delta-time units in each a quarter-note\r\n");
 206:midiPlayer.c  ****         }
 207:midiPlayer.c  **** 
 208:midiPlayer.c  ****         
 209:midiPlayer.c  ****         if (!midiPlayer_ReadChunkHeader(&midiPlayer.trackHeader))
 210:midiPlayer.c  ****         {
 211:midiPlayer.c  ****             break;
 212:midiPlayer.c  ****         }
 213:midiPlayer.c  **** 
 214:midiPlayer.c  ****         res = true;
 215:midiPlayer.c  ****         
 216:midiPlayer.c  ****         midiPlayer.isOpen  = true;
 217:midiPlayer.c  ****         midiPlayer.isEnd   = false;
 218:midiPlayer.c  ****         midiPlayer.isError = false;
 219:midiPlayer.c  ****         midiPlayer.nextEvent.wait    = 0;
 220:midiPlayer.c  ****         midiPlayer.maxChan = 0;
 221:midiPlayer.c  ****         memset(midiPlayer.chanState, 0x00, sizeof(midiPlayer.chanState));
 222:midiPlayer.c  ****         midiPlayer.tempo   =  DEFAULT_TEMPO_MS;
 223:midiPlayer.c  ****         midiPlayer.samplePerQuarter = midiPlayer_GetCalcVal();
 224:midiPlayer.c  ****         audio_SetSampleRate(AUDIO_SAMPLE_RATE_32K);
 225:midiPlayer.c  ****         player_Init(&playerCb);  
 226:midiPlayer.c  ****         
 227:midiPlayer.c  ****     } while (false);
 228:midiPlayer.c  ****     
 229:midiPlayer.c  ****     if (RES_OK != resultF)
 230:midiPlayer.c  ****     {
 231:midiPlayer.c  ****         cardErrorPrint(resultF); 
 232:midiPlayer.c  ****     }
 233:midiPlayer.c  ****     
 234:midiPlayer.c  ****     if (!res)
 235:midiPlayer.c  ****     {
 236:midiPlayer.c  ****         midiPlayer_Close();
 237:midiPlayer.c  ****     }
 238:midiPlayer.c  ****  
 239:midiPlayer.c  ****     return res;
 240:midiPlayer.c  **** }
 241:midiPlayer.c  **** 
 242:midiPlayer.c  **** static uint32_t midiPlayer_GetCalcVal(void)
 243:midiPlayer.c  **** {
 244:midiPlayer.c  ****     uint32_t tmp = ((midiPlayer.tempo * SAMPLES_PER_MS) / midiPlayer.fileHeader.data.division);
 245:midiPlayer.c  **** 
 246:midiPlayer.c  ****     uartPrintf("MIDI: Samples per quarter %d\r\n", tmp);
 247:midiPlayer.c  ****     return tmp;
 248:midiPlayer.c  **** }
 249:midiPlayer.c  **** 
 250:midiPlayer.c  **** static bool midiPlayer_ReadChunkHeader(midiPlayer_ChunkHeader_t *dst)
 251:midiPlayer.c  **** {
 252:midiPlayer.c  **** 
 253:midiPlayer.c  ****     UINT len = 0;
 254:midiPlayer.c  ****     bool res = false;
 255:midiPlayer.c  ****     uint8_t resultF = f_read(&midiPlayer.fp, dst, sizeof(midiPlayer_ChunkHeader_t), &len);
 256:midiPlayer.c  ****     
 257:midiPlayer.c  ****     do
 258:midiPlayer.c  ****     {
 259:midiPlayer.c  ****         if (RES_OK != resultF)
ARM GAS  C:\Users\DMYTRO~1.FED\AppData\Local\Temp\ccc30aoz.s 			page 6


 260:midiPlayer.c  ****         {
 261:midiPlayer.c  ****             uartPrintf("MIDI: Failed at reading track header %d\r\n", resultF);
 262:midiPlayer.c  ****             cardErrorPrint(resultF);
 263:midiPlayer.c  ****             break;
 264:midiPlayer.c  ****         }
 265:midiPlayer.c  ****         
 266:midiPlayer.c  ****         if (sizeof(midiPlayer_ChunkHeader_t) != len)
 267:midiPlayer.c  ****         {
 268:midiPlayer.c  ****             uartPrintf("MIDI: Failed at reading track header(length) L: %d\r\n", len);
 269:midiPlayer.c  ****             break;
 270:midiPlayer.c  ****         }
 271:midiPlayer.c  ****         
 272:midiPlayer.c  ****         if (0 != memcmp(dst->type, mtrkStr, 4))
 273:midiPlayer.c  ****         {
 274:midiPlayer.c  ****             uartPrintf("MIDI: Failed at checking tracker header type (not MTrk)\r\n");
 275:midiPlayer.c  ****             break;
 276:midiPlayer.c  ****         }
 277:midiPlayer.c  ****         
 278:midiPlayer.c  ****         dst->size = HTOL(dst->size);
 279:midiPlayer.c  ****         uartPrintf("MIDI: Track size: %d\r\n", dst->size);   
 280:midiPlayer.c  ****         res = true;
 281:midiPlayer.c  ****     } while(false);
 282:midiPlayer.c  ****     
 283:midiPlayer.c  ****     return res;
 284:midiPlayer.c  **** }
 285:midiPlayer.c  **** 
 286:midiPlayer.c  **** static bool midiPlayer_ReadByte(uint8_t *byte)
 287:midiPlayer.c  **** {
 288:midiPlayer.c  ****     UINT len = 0;
 289:midiPlayer.c  ****     bool ret = false;
 290:midiPlayer.c  ****     uint8_t resultF = f_read(&midiPlayer.fp, byte, 1, &len);
 291:midiPlayer.c  ****     
 292:midiPlayer.c  ****     do
 293:midiPlayer.c  ****     {
 294:midiPlayer.c  ****         if (RES_OK != resultF)
 295:midiPlayer.c  ****         {
 296:midiPlayer.c  ****             uartPrintf("MIDI: Failed at reading file %d\r\n", resultF);
 297:midiPlayer.c  ****             cardErrorPrint(resultF);
 298:midiPlayer.c  ****             break;
 299:midiPlayer.c  ****         }
 300:midiPlayer.c  ****         
 301:midiPlayer.c  ****         if (1 != len)
 302:midiPlayer.c  ****         {
 303:midiPlayer.c  ****             uartPrintf("MIDI: Failed at reading file(length) %d\r\n", len);
 304:midiPlayer.c  ****             break;
 305:midiPlayer.c  ****         }
 306:midiPlayer.c  ****         
 307:midiPlayer.c  ****         ret = true;
 308:midiPlayer.c  ****     } while (false);
 309:midiPlayer.c  ****     
 310:midiPlayer.c  ****     return ret;
 311:midiPlayer.c  **** }
 312:midiPlayer.c  **** 
 313:midiPlayer.c  **** static bool midiPlayer_ReadVariableLength(uint32_t *dst)
 314:midiPlayer.c  **** {
 315:midiPlayer.c  ****     bool ret = false;
 316:midiPlayer.c  ****     uint32_t v = 0;
ARM GAS  C:\Users\DMYTRO~1.FED\AppData\Local\Temp\ccc30aoz.s 			page 7


 317:midiPlayer.c  ****     uint8_t c;
 318:midiPlayer.c  ****    
 319:midiPlayer.c  ****     if (midiPlayer_ReadByte(&c))
 320:midiPlayer.c  ****     {
 321:midiPlayer.c  ****         v = c & 0x7F;
 322:midiPlayer.c  ****         while( c & 0x80 )
 323:midiPlayer.c  ****         {
 324:midiPlayer.c  ****             if (!midiPlayer_ReadByte(&c))
 325:midiPlayer.c  ****             {
 326:midiPlayer.c  ****                 break;
 327:midiPlayer.c  ****             }
 328:midiPlayer.c  ****             v = ( v << 7 ) | ( c & 0x7F );
 329:midiPlayer.c  ****         }
 330:midiPlayer.c  ****         
 331:midiPlayer.c  ****         ret = true;
 332:midiPlayer.c  ****         *dst = v;
 333:midiPlayer.c  ****     }
 334:midiPlayer.c  **** 
 335:midiPlayer.c  ****   return ret;
 336:midiPlayer.c  **** }
 337:midiPlayer.c  **** 
 338:midiPlayer.c  **** static uint32_t midiPlayer_ConvSamplesCnt(uint32_t src)
 339:midiPlayer.c  **** {
  27              		.loc 1 339 0
  28              		.cfi_startproc
  29              		@ args = 0, pretend = 0, frame = 0
  30              		@ frame_needed = 0, uses_anonymous_args = 0
  31              		@ link register save eliminated.
  32              	.LVL0:
 340:midiPlayer.c  ****     return (midiPlayer.samplePerQuarter * src);
  33              		.loc 1 340 0
  34 0000 014B     		ldr	r3, .L2
  35 0002 DB69     		ldr	r3, [r3, #28]
  36 0004 5843     		muls	r0, r3
  37              	.LVL1:
 341:midiPlayer.c  **** }
  38              		.loc 1 341 0
  39              		@ sp needed
  40 0006 7047     		bx	lr
  41              	.L3:
  42              		.align	2
  43              	.L2:
  44 0008 00000000 		.word	.LANCHOR0
  45              		.cfi_endproc
  46              	.LFE6:
  47              		.size	midiPlayer_ConvSamplesCnt, .-midiPlayer_ConvSamplesCnt
  48              		.section	.text.midiPlayer_GetWhiteNoise,"ax",%progbits
  49              		.align	2
  50              		.code	16
  51              		.thumb_func
  52              		.type	midiPlayer_GetWhiteNoise, %function
  53              	midiPlayer_GetWhiteNoise:
  54              	.LFB7:
 342:midiPlayer.c  **** 
 343:midiPlayer.c  **** static uint8_t midiPlayer_GetWhiteNoise(void)
 344:midiPlayer.c  **** {
  55              		.loc 1 344 0
ARM GAS  C:\Users\DMYTRO~1.FED\AppData\Local\Temp\ccc30aoz.s 			page 8


  56              		.cfi_startproc
  57              		@ args = 0, pretend = 0, frame = 0
  58              		@ frame_needed = 0, uses_anonymous_args = 0
  59 0000 30B5     		push	{r4, r5, lr}
  60              		.cfi_def_cfa_offset 12
  61              		.cfi_offset 4, -12
  62              		.cfi_offset 5, -8
  63              		.cfi_offset 14, -4
 345:midiPlayer.c  ****     uint8_t b;
 346:midiPlayer.c  ****     uint8_t b1;
 347:midiPlayer.c  **** 
 348:midiPlayer.c  ****     midiPlayer.wng.m_t1 = midiPlayer.wng.m_nze;
  64              		.loc 1 348 0
  65 0002 1249     		ldr	r1, .L7
  66 0004 A523     		movs	r3, #165
  67 0006 9B00     		lsls	r3, r3, #2
  68 0008 CB5C     		ldrb	r3, [r1, r3]
 349:midiPlayer.c  ****     midiPlayer.wng.m_t1 &= 66;
  69              		.loc 1 349 0
  70 000a 4222     		movs	r2, #66
  71 000c 1A40     		ands	r2, r3
  72 000e 1048     		ldr	r0, .L7+4
  73 0010 0A54     		strb	r2, [r1, r0]
 350:midiPlayer.c  **** 
 351:midiPlayer.c  ****     if ( ( midiPlayer.wng.m_t1 != 0 )  && ( midiPlayer.wng.m_t1 < 66 ) )
  74              		.loc 1 351 0
  75 0012 013A     		subs	r2, r2, #1
  76 0014 D2B2     		uxtb	r2, r2
  77 0016 402A     		cmp	r2, #64
  78 0018 01D8     		bhi	.L6
 352:midiPlayer.c  ****     {
 353:midiPlayer.c  ****         b = 1;
  79              		.loc 1 353 0
  80 001a 0122     		movs	r2, #1
  81 001c 00E0     		b	.L5
  82              	.L6:
 354:midiPlayer.c  ****     }
 355:midiPlayer.c  ****     else
 356:midiPlayer.c  ****     {
 357:midiPlayer.c  ****         b = 0;
  83              		.loc 1 357 0
  84 001e 0022     		movs	r2, #0
  85              	.L5:
  86              	.LVL2:
 358:midiPlayer.c  ****     }
 359:midiPlayer.c  **** 
 360:midiPlayer.c  ****     b1 = midiPlayer.wng.m_t2 >> 7;
  87              		.loc 1 360 0
  88 0020 0A4C     		ldr	r4, .L7
  89 0022 0C48     		ldr	r0, .L7+8
  90 0024 215C     		ldrb	r1, [r4, r0]
  91 0026 CD09     		lsrs	r5, r1, #7
  92              	.LVL3:
 361:midiPlayer.c  ****     midiPlayer.wng.m_t2 <<= 1;
  93              		.loc 1 361 0
  94 0028 4900     		lsls	r1, r1, #1
  95 002a C9B2     		uxtb	r1, r1
ARM GAS  C:\Users\DMYTRO~1.FED\AppData\Local\Temp\ccc30aoz.s 			page 9


 362:midiPlayer.c  ****     midiPlayer.wng.m_t2 |= b;
  96              		.loc 1 362 0
  97 002c 1143     		orrs	r1, r2
  98 002e 2154     		strb	r1, [r4, r0]
 363:midiPlayer.c  ****     b = midiPlayer.wng.m_t3 >> 7;
  99              		.loc 1 363 0
 100 0030 0949     		ldr	r1, .L7+12
 101 0032 625C     		ldrb	r2, [r4, r1]
 102              	.LVL4:
 103 0034 D009     		lsrs	r0, r2, #7
 104              	.LVL5:
 364:midiPlayer.c  ****     midiPlayer.wng.m_t3 <<= 1;
 105              		.loc 1 364 0
 106 0036 5200     		lsls	r2, r2, #1
 107 0038 D2B2     		uxtb	r2, r2
 365:midiPlayer.c  ****     midiPlayer.wng.m_t3 |= b1;
 108              		.loc 1 365 0
 109 003a 2A43     		orrs	r2, r5
 110 003c 6254     		strb	r2, [r4, r1]
 366:midiPlayer.c  ****     midiPlayer.wng.m_nze <<= 1;
 111              		.loc 1 366 0
 112 003e 5B00     		lsls	r3, r3, #1
 113 0040 DBB2     		uxtb	r3, r3
 367:midiPlayer.c  ****     midiPlayer.wng.m_nze |= b;
 114              		.loc 1 367 0
 115 0042 1843     		orrs	r0, r3
 116              	.LVL6:
 117 0044 A523     		movs	r3, #165
 118 0046 9B00     		lsls	r3, r3, #2
 119 0048 E054     		strb	r0, [r4, r3]
 368:midiPlayer.c  **** 
 369:midiPlayer.c  ****     return midiPlayer.wng.m_nze;
 370:midiPlayer.c  **** }         
 120              		.loc 1 370 0
 121              		@ sp needed
 122              	.LVL7:
 123 004a 30BD     		pop	{r4, r5, pc}
 124              	.L8:
 125              		.align	2
 126              	.L7:
 127 004c 00000000 		.word	.LANCHOR0
 128 0050 95020000 		.word	661
 129 0054 96020000 		.word	662
 130 0058 97020000 		.word	663
 131              		.cfi_endproc
 132              	.LFE7:
 133              		.size	midiPlayer_GetWhiteNoise, .-midiPlayer_GetWhiteNoise
 134              		.global	__aeabi_uidiv
 135              		.global	__aeabi_uidivmod
 136              		.section	.text.midiPlayer_ConvNoteSample,"ax",%progbits
 137              		.align	2
 138              		.code	16
 139              		.thumb_func
 140              		.type	midiPlayer_ConvNoteSample, %function
 141              	midiPlayer_ConvNoteSample:
 142              	.LFB10:
 371:midiPlayer.c  **** 
ARM GAS  C:\Users\DMYTRO~1.FED\AppData\Local\Temp\ccc30aoz.s 			page 10


 372:midiPlayer.c  **** static bool midiPlayer_ParseEventMeta(void)
 373:midiPlayer.c  **** {
 374:midiPlayer.c  ****     uint32_t i;
 375:midiPlayer.c  ****     uint8_t id;
 376:midiPlayer.c  ****     uint32_t length;
 377:midiPlayer.c  ****     uint8_t tmp[3];
 378:midiPlayer.c  ****     bool isOk = true;
 379:midiPlayer.c  ****     bool res = midiPlayer_ReadByte(&id);
 380:midiPlayer.c  ****     
 381:midiPlayer.c  ****     do
 382:midiPlayer.c  ****     {
 383:midiPlayer.c  ****         if (!res)
 384:midiPlayer.c  ****         {
 385:midiPlayer.c  ****             break;
 386:midiPlayer.c  ****         }
 387:midiPlayer.c  ****         
 388:midiPlayer.c  ****         res = midiPlayer_ReadVariableLength(&length);
 389:midiPlayer.c  ****         if (!res)
 390:midiPlayer.c  ****         {
 391:midiPlayer.c  ****             break;
 392:midiPlayer.c  ****         }
 393:midiPlayer.c  ****         
 394:midiPlayer.c  ****         
 395:midiPlayer.c  ****         switch(id)
 396:midiPlayer.c  ****         {
 397:midiPlayer.c  ****             case EVENT_META_SET_TEMPO:
 398:midiPlayer.c  ****                 for (i = 0; i < 3; i++)
 399:midiPlayer.c  ****                 {
 400:midiPlayer.c  ****                     if (!midiPlayer_ReadByte(&tmp[i]))
 401:midiPlayer.c  ****                     {
 402:midiPlayer.c  ****                         isOk = false;
 403:midiPlayer.c  ****                         break;
 404:midiPlayer.c  ****                     }
 405:midiPlayer.c  ****                 }
 406:midiPlayer.c  ****                     
 407:midiPlayer.c  ****                 if (isOk)
 408:midiPlayer.c  ****                 {
 409:midiPlayer.c  ****                     midiPlayer.tempo = tmp[0] * 65536 + tmp[1] * 256 + tmp[2];
 410:midiPlayer.c  ****                     midiPlayer.tempo = midiPlayer.tempo / 1000;
 411:midiPlayer.c  ****                     uartPrintf("MIDI: Set tempo: %d\r\n", midiPlayer.tempo);
 412:midiPlayer.c  ****                     midiPlayer.samplePerQuarter = midiPlayer_GetCalcVal();
 413:midiPlayer.c  ****                     res = true;
 414:midiPlayer.c  ****                 }
 415:midiPlayer.c  ****                 break;
 416:midiPlayer.c  ****                 
 417:midiPlayer.c  ****             case EVENT_META_EOF:
 418:midiPlayer.c  ****                 uartPrintf("MIDI: End of track\r\n");
 419:midiPlayer.c  ****                 midiPlayer.isEnd = true;
 420:midiPlayer.c  ****                 res = true;
 421:midiPlayer.c  ****                 break;
 422:midiPlayer.c  ****             
 423:midiPlayer.c  ****             default:
 424:midiPlayer.c  ****                 uartPrintf("MIDI: Unknown midi meta event %X\r\n", id);
 425:midiPlayer.c  ****                 res = midiPlayer_SkipEvent(length);
 426:midiPlayer.c  ****                 break;
 427:midiPlayer.c  ****         }
 428:midiPlayer.c  ****        
ARM GAS  C:\Users\DMYTRO~1.FED\AppData\Local\Temp\ccc30aoz.s 			page 11


 429:midiPlayer.c  ****     } while (false);
 430:midiPlayer.c  ****     
 431:midiPlayer.c  ****     return res;
 432:midiPlayer.c  **** }
 433:midiPlayer.c  **** 
 434:midiPlayer.c  **** static bool midiPlayer_SkipEvent(uint32_t params)
 435:midiPlayer.c  **** {
 436:midiPlayer.c  ****     uint32_t i;
 437:midiPlayer.c  ****     uint8_t tmp;
 438:midiPlayer.c  ****     bool ret = true; 
 439:midiPlayer.c  ****     
 440:midiPlayer.c  ****     for (i = 0; i < params; i++)
 441:midiPlayer.c  ****     {
 442:midiPlayer.c  ****         if (!midiPlayer_ReadByte(&tmp))
 443:midiPlayer.c  ****         {
 444:midiPlayer.c  ****             ret = false;
 445:midiPlayer.c  ****             break;
 446:midiPlayer.c  ****         }
 447:midiPlayer.c  ****     }
 448:midiPlayer.c  ****     
 449:midiPlayer.c  ****     return ret;
 450:midiPlayer.c  **** }
 451:midiPlayer.c  **** 
 452:midiPlayer.c  **** static uint16_t midiPlayer_ConvNoteSample(uint8_t noteIdx)
 453:midiPlayer.c  **** {
 143              		.loc 1 453 0
 144              		.cfi_startproc
 145              		@ args = 0, pretend = 0, frame = 0
 146              		@ frame_needed = 0, uses_anonymous_args = 0
 147              	.LVL8:
 148 0000 70B5     		push	{r4, r5, r6, lr}
 149              		.cfi_def_cfa_offset 16
 150              		.cfi_offset 4, -16
 151              		.cfi_offset 5, -12
 152              		.cfi_offset 6, -8
 153              		.cfi_offset 14, -4
 454:midiPlayer.c  ****     uint8_t noteIdxAr;
 455:midiPlayer.c  ****     uint8_t noteDiv;
 456:midiPlayer.c  ****     uint16_t ret;
 457:midiPlayer.c  ****     // Main idea from http://www.deep-shadows.com/hax/wordpress/?page_id=1111
 458:midiPlayer.c  ****     noteIdx = noteIdx & 0x7F;
 154              		.loc 1 458 0
 155 0002 7F23     		movs	r3, #127
 156 0004 1840     		ands	r0, r3
 157              	.LVL9:
 459:midiPlayer.c  ****     if (noteIdx <= 1)
 158              		.loc 1 459 0
 159 0006 0128     		cmp	r0, #1
 160 0008 01D8     		bhi	.L10
 460:midiPlayer.c  ****     {
 461:midiPlayer.c  ****         ret = noteIdx;
 161              		.loc 1 461 0
 162 000a 80B2     		uxth	r0, r0
 163              	.LVL10:
 164 000c 12E0     		b	.L11
 165              	.LVL11:
 166              	.L10:
ARM GAS  C:\Users\DMYTRO~1.FED\AppData\Local\Temp\ccc30aoz.s 			page 12


 462:midiPlayer.c  ****     } else
 463:midiPlayer.c  ****     {
 464:midiPlayer.c  ****         noteIdxAr = 132 - 1 - noteIdx;
 167              		.loc 1 464 0
 168 000e 7D24     		movs	r4, #125
 169 0010 6442     		rsbs	r4, r4, #0
 170 0012 201A     		subs	r0, r4, r0
 171              	.LVL12:
 172 0014 C4B2     		uxtb	r4, r0
 173              	.LVL13:
 465:midiPlayer.c  ****         noteDiv   = noteIdxAr / 12; //how many octaves down
 174              		.loc 1 465 0
 175 0016 0C21     		movs	r1, #12
 176 0018 2000     		movs	r0, r4
 177 001a FFF7FEFF 		bl	__aeabi_uidiv
 178              	.LVL14:
 179 001e C5B2     		uxtb	r5, r0
 180              	.LVL15:
 466:midiPlayer.c  ****         noteIdxAr = noteIdxAr % 12; //Index in array
 181              		.loc 1 466 0
 182 0020 0C21     		movs	r1, #12
 183 0022 2000     		movs	r0, r4
 184 0024 FFF7FEFF 		bl	__aeabi_uidivmod
 185              	.LVL16:
 186 0028 C9B2     		uxtb	r1, r1
 187              	.LVL17:
 467:midiPlayer.c  ****         ret = s_noteFreqEx32k[noteIdxAr] >> noteDiv;
 188              		.loc 1 467 0
 189 002a 4900     		lsls	r1, r1, #1
 190              	.LVL18:
 191 002c 024B     		ldr	r3, .L12
 192 002e C85A     		ldrh	r0, [r1, r3]
 193 0030 2841     		asrs	r0, r0, r5
 194 0032 80B2     		uxth	r0, r0
 195              	.LVL19:
 196              	.L11:
 468:midiPlayer.c  ****     }
 469:midiPlayer.c  **** 
 470:midiPlayer.c  ****     return ret;
 471:midiPlayer.c  **** }
 197              		.loc 1 471 0
 198              		@ sp needed
 199 0034 70BD     		pop	{r4, r5, r6, pc}
 200              	.L13:
 201 0036 C046     		.align	2
 202              	.L12:
 203 0038 00000000 		.word	.LANCHOR1
 204              		.cfi_endproc
 205              	.LFE10:
 206              		.size	midiPlayer_ConvNoteSample, .-midiPlayer_ConvNoteSample
 207              		.section	.text.midiPlayer_SetChanState,"ax",%progbits
 208              		.align	2
 209              		.code	16
 210              		.thumb_func
 211              		.type	midiPlayer_SetChanState, %function
 212              	midiPlayer_SetChanState:
 213              	.LFB13:
ARM GAS  C:\Users\DMYTRO~1.FED\AppData\Local\Temp\ccc30aoz.s 			page 13


 472:midiPlayer.c  **** 
 473:midiPlayer.c  **** static void midiPlayer_ParseEvent(uint8_t id, uint32_t delta_time)
 474:midiPlayer.c  **** {   
 475:midiPlayer.c  ****     if (EVENT_META == id)
 476:midiPlayer.c  ****     {
 477:midiPlayer.c  ****         midiPlayer.isError = !midiPlayer_ParseEventMeta();
 478:midiPlayer.c  ****     } else
 479:midiPlayer.c  ****     {
 480:midiPlayer.c  ****         uint8_t noteIdx;
 481:midiPlayer.c  ****         uint8_t commad;
 482:midiPlayer.c  ****         uint8_t chanIdx;
 483:midiPlayer.c  ****         
 484:midiPlayer.c  ****         commad  = id & 0xF0;
 485:midiPlayer.c  ****         chanIdx = id & 0x0F; 
 486:midiPlayer.c  ****         
 487:midiPlayer.c  ****         if (chanIdx > midiPlayer.maxChan)
 488:midiPlayer.c  ****         {
 489:midiPlayer.c  ****             midiPlayer.maxChan = chanIdx;
 490:midiPlayer.c  ****         }
 491:midiPlayer.c  ****         switch (commad)
 492:midiPlayer.c  ****         {
 493:midiPlayer.c  ****             case EVENT_NOTE_AFTERTOUCH:
 494:midiPlayer.c  ****                 uartPrintf("MIDI: Aftertouch event %X\r\n", id);
 495:midiPlayer.c  ****                 midiPlayer.isError = !midiPlayer_SkipEvent(2);
 496:midiPlayer.c  ****                 break;
 497:midiPlayer.c  ****             
 498:midiPlayer.c  ****             case EVENT_CONTROLLER:
 499:midiPlayer.c  ****                 uartPrintf("MIDI: Controller event %X\r\n", id);
 500:midiPlayer.c  ****                 midiPlayer.isError = !midiPlayer_SkipEvent(2);
 501:midiPlayer.c  ****                 break;
 502:midiPlayer.c  ****             
 503:midiPlayer.c  ****             case EVENT_PROGRAM_CHANGE:
 504:midiPlayer.c  ****                 uartPrintf("MIDI: Program change event %X\r\n", id);
 505:midiPlayer.c  ****                 midiPlayer.isError = !midiPlayer_SkipEvent(1);
 506:midiPlayer.c  ****                 break;
 507:midiPlayer.c  ****                 
 508:midiPlayer.c  ****             case EVENT_CHANNEL_AFTERTOUCH:
 509:midiPlayer.c  ****                 uartPrintf("MIDI: Channel aftertouch event %X\r\n", id);
 510:midiPlayer.c  ****                 midiPlayer.isError = !midiPlayer_SkipEvent(1);
 511:midiPlayer.c  ****                 break;
 512:midiPlayer.c  ****                 
 513:midiPlayer.c  ****             case EVENT_PITCH_BEND:
 514:midiPlayer.c  ****                 midiPlayer.isError = !midiPlayer_SkipEvent(2);
 515:midiPlayer.c  ****                 break;
 516:midiPlayer.c  ****                 
 517:midiPlayer.c  ****             case EVENT_NOTE_ON:
 518:midiPlayer.c  ****                 midiPlayer.nextEvent.wait = midiPlayer_ConvSamplesCnt(delta_time);
 519:midiPlayer.c  ****                 midiPlayer.isError = !midiPlayer_ReadByte(&noteIdx); 
 520:midiPlayer.c  ****                 if (midiPlayer.isError)
 521:midiPlayer.c  ****                 {
 522:midiPlayer.c  ****                     break;
 523:midiPlayer.c  ****                 }
 524:midiPlayer.c  ****                 midiPlayer.nextEvent.channel = chanIdx;
 525:midiPlayer.c  ****                 midiPlayer.nextEvent.sample = midiPlayer_ConvNoteSample(noteIdx);
 526:midiPlayer.c  ****                 if (0 == midiPlayer.nextEvent.wait)
 527:midiPlayer.c  ****                 {
 528:midiPlayer.c  ****                       midiPlayer_SetChanState(midiPlayer.nextEvent.channel, midiPlayer.nextEvent.sa
ARM GAS  C:\Users\DMYTRO~1.FED\AppData\Local\Temp\ccc30aoz.s 			page 14


 529:midiPlayer.c  ****                 }
 530:midiPlayer.c  ****                 midiPlayer.isError = !midiPlayer_SkipEvent(1); /* Skip velocity */
 531:midiPlayer.c  ****                 break;
 532:midiPlayer.c  ****                 
 533:midiPlayer.c  ****             case EVENT_NOTE_OFF:
 534:midiPlayer.c  ****                 midiPlayer.nextEvent.wait = midiPlayer_ConvSamplesCnt(delta_time);
 535:midiPlayer.c  ****                 midiPlayer.nextEvent.sample = 0; 
 536:midiPlayer.c  ****                 midiPlayer.nextEvent.channel = chanIdx;
 537:midiPlayer.c  ****                 if (0 == midiPlayer.nextEvent.wait)
 538:midiPlayer.c  ****                 {
 539:midiPlayer.c  ****                       midiPlayer_SetChanState(midiPlayer.nextEvent.channel, midiPlayer.nextEvent.sa
 540:midiPlayer.c  ****                 }
 541:midiPlayer.c  ****                 midiPlayer.isError = !midiPlayer_SkipEvent(2); /* Skip velocity and note index */
 542:midiPlayer.c  ****                 break;
 543:midiPlayer.c  ****         
 544:midiPlayer.c  ****             default:
 545:midiPlayer.c  ****                 uartPrintf("MIDI: Unknown event %X\r\n", id);
 546:midiPlayer.c  ****                 midiPlayer.isError = true;
 547:midiPlayer.c  ****                 break;   
 548:midiPlayer.c  ****         }
 549:midiPlayer.c  ****     }
 550:midiPlayer.c  **** }
 551:midiPlayer.c  **** 
 552:midiPlayer.c  **** static bool midiPlayer_ReadEvent(uint8_t *id, uint32_t *delta_time)
 553:midiPlayer.c  **** {
 554:midiPlayer.c  ****     bool  ret = false;
 555:midiPlayer.c  **** 
 556:midiPlayer.c  ****     do
 557:midiPlayer.c  ****     {
 558:midiPlayer.c  ****         if (!midiPlayer_ReadVariableLength(delta_time))
 559:midiPlayer.c  ****         {
 560:midiPlayer.c  ****             uartPrintf("MIDI: Failed to obtain delta time\r\n");
 561:midiPlayer.c  ****             break;
 562:midiPlayer.c  ****         }
 563:midiPlayer.c  ****         
 564:midiPlayer.c  ****         if (!midiPlayer_ReadByte(id))
 565:midiPlayer.c  ****         {
 566:midiPlayer.c  ****             uartPrintf("MIDI: Failed to obtain event id\r\n");
 567:midiPlayer.c  ****             break;
 568:midiPlayer.c  ****         }
 569:midiPlayer.c  ****         
 570:midiPlayer.c  ****         ret = true;
 571:midiPlayer.c  ****     } while(false);
 572:midiPlayer.c  ****         
 573:midiPlayer.c  ****     return ret;
 574:midiPlayer.c  **** }
 575:midiPlayer.c  **** 
 576:midiPlayer.c  **** static void midiPlayer_SetChanState(uint8_t chanIdx, uint16_t sample)
 577:midiPlayer.c  **** {
 214              		.loc 1 577 0
 215              		.cfi_startproc
 216              		@ args = 0, pretend = 0, frame = 0
 217              		@ frame_needed = 0, uses_anonymous_args = 0
 218              		@ link register save eliminated.
 219              	.LVL20:
 578:midiPlayer.c  ****     midiPlayer.chanState[chanIdx].cnt = 0;
 220              		.loc 1 578 0
ARM GAS  C:\Users\DMYTRO~1.FED\AppData\Local\Temp\ccc30aoz.s 			page 15


 221 0000 044A     		ldr	r2, .L15
 222 0002 0300     		movs	r3, r0
 223 0004 0833     		adds	r3, r3, #8
 224 0006 9800     		lsls	r0, r3, #2
 225              	.LVL21:
 226 0008 0023     		movs	r3, #0
 227 000a 8352     		strh	r3, [r0, r2]
 579:midiPlayer.c  ****     midiPlayer.chanState[chanIdx].cntadd = sample * 2;
 228              		.loc 1 579 0
 229 000c 1018     		adds	r0, r2, r0
 230 000e 4900     		lsls	r1, r1, #1
 231              	.LVL22:
 232 0010 4180     		strh	r1, [r0, #2]
 580:midiPlayer.c  **** }
 233              		.loc 1 580 0
 234              		@ sp needed
 235 0012 7047     		bx	lr
 236              	.L16:
 237              		.align	2
 238              	.L15:
 239 0014 00000000 		.word	.LANCHOR0
 240              		.cfi_endproc
 241              	.LFE13:
 242              		.size	midiPlayer_SetChanState, .-midiPlayer_SetChanState
 243              		.section	.text.midiPlayer_GetSample,"ax",%progbits
 244              		.align	2
 245              		.code	16
 246              		.thumb_func
 247              		.type	midiPlayer_GetSample, %function
 248              	midiPlayer_GetSample:
 249              	.LFB15:
 581:midiPlayer.c  **** 
 582:midiPlayer.c  **** static void midiPlayer_ProcessEvents(void)
 583:midiPlayer.c  **** {
 584:midiPlayer.c  ****     uint8_t  eventId;
 585:midiPlayer.c  ****     uint32_t delta_time;
 586:midiPlayer.c  ****     
 587:midiPlayer.c  ****     midiPlayer_SetChanState(midiPlayer.nextEvent.channel, midiPlayer.nextEvent.sample);
 588:midiPlayer.c  ****     do
 589:midiPlayer.c  ****     {
 590:midiPlayer.c  ****         midiPlayer_ReadEvent(&eventId, &delta_time);
 591:midiPlayer.c  ****         midiPlayer_ParseEvent(eventId, delta_time);
 592:midiPlayer.c  ****         
 593:midiPlayer.c  ****         if (midiPlayer.isEnd)
 594:midiPlayer.c  ****         {
 595:midiPlayer.c  ****             break;
 596:midiPlayer.c  ****         }
 597:midiPlayer.c  ****         
 598:midiPlayer.c  ****         if (midiPlayer.isError)
 599:midiPlayer.c  ****         {
 600:midiPlayer.c  ****             break;
 601:midiPlayer.c  ****         }       
 602:midiPlayer.c  ****     } while (0 == midiPlayer.nextEvent.wait);
 603:midiPlayer.c  **** }
 604:midiPlayer.c  **** 
 605:midiPlayer.c  **** static uint8_t midiPlayer_GetSample(void)
 606:midiPlayer.c  **** {
ARM GAS  C:\Users\DMYTRO~1.FED\AppData\Local\Temp\ccc30aoz.s 			page 16


 250              		.loc 1 606 0
 251              		.cfi_startproc
 252              		@ args = 0, pretend = 0, frame = 0
 253              		@ frame_needed = 0, uses_anonymous_args = 0
 254 0000 70B5     		push	{r4, r5, r6, lr}
 255              		.cfi_def_cfa_offset 16
 256              		.cfi_offset 4, -16
 257              		.cfi_offset 5, -12
 258              		.cfi_offset 6, -8
 259              		.cfi_offset 14, -4
 260              	.LVL23:
 607:midiPlayer.c  ****     #if SQUARE_WAVE
 608:midiPlayer.c  ****     uint8_t sample = 0;
 609:midiPlayer.c  ****     #else
 610:midiPlayer.c  ****     uint8_t sample = 0x80;
 611:midiPlayer.c  ****     #endif
 612:midiPlayer.c  ****     uint32_t i;
 613:midiPlayer.c  ****     
 614:midiPlayer.c  ****     for (i = 0; i < (midiPlayer.maxChan + 1); i++)
 261              		.loc 1 614 0
 262 0002 0024     		movs	r4, #0
 608:midiPlayer.c  ****     #else
 263              		.loc 1 608 0
 264 0004 0025     		movs	r5, #0
 265              		.loc 1 614 0
 266 0006 1AE0     		b	.L18
 267              	.LVL24:
 268              	.L21:
 615:midiPlayer.c  ****     {
 616:midiPlayer.c  ****         if (1 == midiPlayer.chanState[i].cntadd)
 269              		.loc 1 616 0
 270 0008 2200     		movs	r2, r4
 271 000a 0832     		adds	r2, r2, #8
 272 000c 9200     		lsls	r2, r2, #2
 273 000e 104B     		ldr	r3, .L22
 274 0010 9A18     		adds	r2, r3, r2
 275 0012 5388     		ldrh	r3, [r2, #2]
 276 0014 012B     		cmp	r3, #1
 277 0016 06D1     		bne	.L19
 617:midiPlayer.c  ****         {
 618:midiPlayer.c  ****             #if SQUARE_WAVE
 619:midiPlayer.c  ****             sample += (midiPlayer_GetWhiteNoise() & 0x01);
 278              		.loc 1 619 0
 279 0018 FFF7FEFF 		bl	midiPlayer_GetWhiteNoise
 280              	.LVL25:
 281 001c 0123     		movs	r3, #1
 282 001e 0340     		ands	r3, r0
 283 0020 EB18     		adds	r3, r5, r3
 284 0022 DDB2     		uxtb	r5, r3
 285              	.LVL26:
 286 0024 0AE0     		b	.L20
 287              	.L19:
 620:midiPlayer.c  ****             #else
 621:midiPlayer.c  ****             if ( ( midiPlayer_GetWhiteNoise() & 1 ) != 0 )
 622:midiPlayer.c  ****             {     
 623:midiPlayer.c  ****                 sample += 127 / (midiPlayer.maxChan + 1) / 4;
 624:midiPlayer.c  ****             }       
ARM GAS  C:\Users\DMYTRO~1.FED\AppData\Local\Temp\ccc30aoz.s 			page 17


 625:midiPlayer.c  ****             #endif
 626:midiPlayer.c  ****         } else
 627:midiPlayer.c  ****         {    
 628:midiPlayer.c  ****             midiPlayer.chanState[i].cnt += midiPlayer.chanState[i].cntadd;
 288              		.loc 1 628 0
 289 0026 0A48     		ldr	r0, .L22
 290 0028 2100     		movs	r1, r4
 291 002a 0831     		adds	r1, r1, #8
 292 002c 8900     		lsls	r1, r1, #2
 293 002e 0A5A     		ldrh	r2, [r1, r0]
 294 0030 9B18     		adds	r3, r3, r2
 295 0032 9BB2     		uxth	r3, r3
 296 0034 0B52     		strh	r3, [r1, r0]
 629:midiPlayer.c  ****             #if SQUARE_WAVE
 630:midiPlayer.c  ****             sample += ((midiPlayer.chanState[i].cnt >> 15) & 0x01);
 297              		.loc 1 630 0
 298 0036 DB0B     		lsrs	r3, r3, #15
 299 0038 EB18     		adds	r3, r5, r3
 300 003a DDB2     		uxtb	r5, r3
 301              	.LVL27:
 302              	.L20:
 614:midiPlayer.c  ****     {
 303              		.loc 1 614 0 discriminator 2
 304 003c 0134     		adds	r4, r4, #1
 305              	.LVL28:
 306              	.L18:
 614:midiPlayer.c  ****     {
 307              		.loc 1 614 0 is_stmt 0 discriminator 1
 308 003e 6F23     		movs	r3, #111
 309 0040 034A     		ldr	r2, .L22
 310 0042 D35C     		ldrb	r3, [r2, r3]
 311 0044 0133     		adds	r3, r3, #1
 312 0046 9C42     		cmp	r4, r3
 313 0048 DED3     		bcc	.L21
 631:midiPlayer.c  ****             #else
 632:midiPlayer.c  ****             sample += s_sineTable[ ( midiPlayer.chanState[i].cnt >> (15 - 5 ) ) & 63 ];  
 633:midiPlayer.c  ****             #endif
 634:midiPlayer.c  ****         }
 635:midiPlayer.c  ****     }
 636:midiPlayer.c  **** 
 637:midiPlayer.c  ****     return sample;
 638:midiPlayer.c  **** }
 314              		.loc 1 638 0 is_stmt 1
 315 004a 2800     		movs	r0, r5
 316              		@ sp needed
 317              	.LVL29:
 318              	.LVL30:
 319 004c 70BD     		pop	{r4, r5, r6, pc}
 320              	.L23:
 321 004e C046     		.align	2
 322              	.L22:
 323 0050 00000000 		.word	.LANCHOR0
 324              		.cfi_endproc
 325              	.LFE15:
 326              		.size	midiPlayer_GetSample, .-midiPlayer_GetSample
 327              		.section	.text.midiPlayer_GetCalcVal,"ax",%progbits
 328              		.align	2
ARM GAS  C:\Users\DMYTRO~1.FED\AppData\Local\Temp\ccc30aoz.s 			page 18


 329              		.code	16
 330              		.thumb_func
 331              		.type	midiPlayer_GetCalcVal, %function
 332              	midiPlayer_GetCalcVal:
 333              	.LFB2:
 243:midiPlayer.c  ****     uint32_t tmp = ((midiPlayer.tempo * SAMPLES_PER_MS) / midiPlayer.fileHeader.data.division);
 334              		.loc 1 243 0
 335              		.cfi_startproc
 336              		@ args = 0, pretend = 0, frame = 0
 337              		@ frame_needed = 0, uses_anonymous_args = 0
 338 0000 10B5     		push	{r4, lr}
 339              		.cfi_def_cfa_offset 8
 340              		.cfi_offset 4, -8
 341              		.cfi_offset 14, -4
 244:midiPlayer.c  **** 
 342              		.loc 1 244 0
 343 0002 064B     		ldr	r3, .L25
 344 0004 9A69     		ldr	r2, [r3, #24]
 345 0006 5001     		lsls	r0, r2, #5
 346 0008 9989     		ldrh	r1, [r3, #12]
 347 000a FFF7FEFF 		bl	__aeabi_uidiv
 348              	.LVL31:
 349 000e 0400     		movs	r4, r0
 350              	.LVL32:
 246:midiPlayer.c  ****     return tmp;
 351              		.loc 1 246 0
 352 0010 0100     		movs	r1, r0
 353 0012 0348     		ldr	r0, .L25+4
 354              	.LVL33:
 355 0014 FFF7FEFF 		bl	uartPrintf
 356              	.LVL34:
 248:midiPlayer.c  **** 
 357              		.loc 1 248 0
 358 0018 2000     		movs	r0, r4
 359              		@ sp needed
 360              	.LVL35:
 361 001a 10BD     		pop	{r4, pc}
 362              	.L26:
 363              		.align	2
 364              	.L25:
 365 001c 00000000 		.word	.LANCHOR0
 366 0020 00000000 		.word	.LC6
 367              		.cfi_endproc
 368              	.LFE2:
 369              		.size	midiPlayer_GetCalcVal, .-midiPlayer_GetCalcVal
 370              		.section	.text.midiPlayer_ReadByte,"ax",%progbits
 371              		.align	2
 372              		.code	16
 373              		.thumb_func
 374              		.type	midiPlayer_ReadByte, %function
 375              	midiPlayer_ReadByte:
 376              	.LFB4:
 287:midiPlayer.c  ****     UINT len = 0;
 377              		.loc 1 287 0
 378              		.cfi_startproc
 379              		@ args = 0, pretend = 0, frame = 8
 380              		@ frame_needed = 0, uses_anonymous_args = 0
ARM GAS  C:\Users\DMYTRO~1.FED\AppData\Local\Temp\ccc30aoz.s 			page 19


 381              	.LVL36:
 382 0000 10B5     		push	{r4, lr}
 383              		.cfi_def_cfa_offset 8
 384              		.cfi_offset 4, -8
 385              		.cfi_offset 14, -4
 386 0002 82B0     		sub	sp, sp, #8
 387              		.cfi_def_cfa_offset 16
 388 0004 0100     		movs	r1, r0
 288:midiPlayer.c  ****     bool ret = false;
 389              		.loc 1 288 0
 390 0006 0023     		movs	r3, #0
 391 0008 0193     		str	r3, [sp, #4]
 392              	.LVL37:
 290:midiPlayer.c  ****     
 393              		.loc 1 290 0
 394 000a 01AB     		add	r3, sp, #4
 395 000c 0122     		movs	r2, #1
 396 000e 0D48     		ldr	r0, .L31
 397              	.LVL38:
 398 0010 7030     		adds	r0, r0, #112
 399 0012 FFF7FEFF 		bl	f_read
 400              	.LVL39:
 401 0016 041E     		subs	r4, r0, #0
 402              	.LVL40:
 294:midiPlayer.c  ****         {
 403              		.loc 1 294 0
 404 0018 08D0     		beq	.L28
 296:midiPlayer.c  ****             cardErrorPrint(resultF);
 405              		.loc 1 296 0
 406 001a 0100     		movs	r1, r0
 407 001c 0A48     		ldr	r0, .L31+4
 408              	.LVL41:
 409 001e FFF7FEFF 		bl	uartPrintf
 410              	.LVL42:
 297:midiPlayer.c  ****             break;
 411              		.loc 1 297 0
 412 0022 2000     		movs	r0, r4
 413 0024 FFF7FEFF 		bl	cardErrorPrint
 414              	.LVL43:
 289:midiPlayer.c  ****     uint8_t resultF = f_read(&midiPlayer.fp, byte, 1, &len);
 415              		.loc 1 289 0
 416 0028 0020     		movs	r0, #0
 298:midiPlayer.c  ****         }
 417              		.loc 1 298 0
 418 002a 08E0     		b	.L29
 419              	.LVL44:
 420              	.L28:
 301:midiPlayer.c  ****         {
 421              		.loc 1 301 0
 422 002c 0199     		ldr	r1, [sp, #4]
 423 002e 0129     		cmp	r1, #1
 424 0030 04D0     		beq	.L30
 303:midiPlayer.c  ****             break;
 425              		.loc 1 303 0
 426 0032 0648     		ldr	r0, .L31+8
 427              	.LVL45:
 428 0034 FFF7FEFF 		bl	uartPrintf
ARM GAS  C:\Users\DMYTRO~1.FED\AppData\Local\Temp\ccc30aoz.s 			page 20


 429              	.LVL46:
 289:midiPlayer.c  ****     uint8_t resultF = f_read(&midiPlayer.fp, byte, 1, &len);
 430              		.loc 1 289 0
 431 0038 0020     		movs	r0, #0
 304:midiPlayer.c  ****         }
 432              		.loc 1 304 0
 433 003a 00E0     		b	.L29
 434              	.LVL47:
 435              	.L30:
 307:midiPlayer.c  ****     } while (false);
 436              		.loc 1 307 0
 437 003c 0120     		movs	r0, #1
 438              	.LVL48:
 439              	.L29:
 311:midiPlayer.c  **** 
 440              		.loc 1 311 0
 441 003e 02B0     		add	sp, sp, #8
 442              		@ sp needed
 443 0040 10BD     		pop	{r4, pc}
 444              	.L32:
 445 0042 C046     		.align	2
 446              	.L31:
 447 0044 00000000 		.word	.LANCHOR0
 448 0048 20000000 		.word	.LC9
 449 004c 44000000 		.word	.LC11
 450              		.cfi_endproc
 451              	.LFE4:
 452              		.size	midiPlayer_ReadByte, .-midiPlayer_ReadByte
 453              		.section	.text.midiPlayer_ReadVariableLength,"ax",%progbits
 454              		.align	2
 455              		.code	16
 456              		.thumb_func
 457              		.type	midiPlayer_ReadVariableLength, %function
 458              	midiPlayer_ReadVariableLength:
 459              	.LFB5:
 314:midiPlayer.c  ****     bool ret = false;
 460              		.loc 1 314 0
 461              		.cfi_startproc
 462              		@ args = 0, pretend = 0, frame = 8
 463              		@ frame_needed = 0, uses_anonymous_args = 0
 464              	.LVL49:
 465 0000 30B5     		push	{r4, r5, lr}
 466              		.cfi_def_cfa_offset 12
 467              		.cfi_offset 4, -12
 468              		.cfi_offset 5, -8
 469              		.cfi_offset 14, -4
 470 0002 83B0     		sub	sp, sp, #12
 471              		.cfi_def_cfa_offset 24
 472 0004 0500     		movs	r5, r0
 473              	.LVL50:
 319:midiPlayer.c  ****     {
 474              		.loc 1 319 0
 475 0006 6B46     		mov	r3, sp
 476 0008 D81D     		adds	r0, r3, #7
 477              	.LVL51:
 478 000a FFF7FEFF 		bl	midiPlayer_ReadByte
 479              	.LVL52:
ARM GAS  C:\Users\DMYTRO~1.FED\AppData\Local\Temp\ccc30aoz.s 			page 21


 480 000e 0028     		cmp	r0, #0
 481 0010 1BD0     		beq	.L38
 321:midiPlayer.c  ****         while( c & 0x80 )
 482              		.loc 1 321 0
 483 0012 6B46     		mov	r3, sp
 484 0014 0733     		adds	r3, r3, #7
 485 0016 1B78     		ldrb	r3, [r3]
 486 0018 7F24     		movs	r4, #127
 487 001a 1C40     		ands	r4, r3
 488              	.LVL53:
 322:midiPlayer.c  ****         {
 489              		.loc 1 322 0
 490 001c 0CE0     		b	.L35
 491              	.L37:
 324:midiPlayer.c  ****             {
 492              		.loc 1 324 0
 493 001e 6B46     		mov	r3, sp
 494 0020 D81D     		adds	r0, r3, #7
 495 0022 FFF7FEFF 		bl	midiPlayer_ReadByte
 496              	.LVL54:
 497 0026 0028     		cmp	r0, #0
 498 0028 0CD0     		beq	.L36
 328:midiPlayer.c  ****         }
 499              		.loc 1 328 0
 500 002a E401     		lsls	r4, r4, #7
 501              	.LVL55:
 502 002c 6B46     		mov	r3, sp
 503 002e 0733     		adds	r3, r3, #7
 504 0030 1B78     		ldrb	r3, [r3]
 505 0032 7F22     		movs	r2, #127
 506 0034 1340     		ands	r3, r2
 507 0036 1C43     		orrs	r4, r3
 508              	.LVL56:
 509              	.L35:
 322:midiPlayer.c  ****         {
 510              		.loc 1 322 0
 511 0038 6B46     		mov	r3, sp
 512 003a 0733     		adds	r3, r3, #7
 513 003c 1B78     		ldrb	r3, [r3]
 514 003e 5BB2     		sxtb	r3, r3
 515 0040 002B     		cmp	r3, #0
 516 0042 ECDB     		blt	.L37
 517              	.L36:
 518              	.LVL57:
 332:midiPlayer.c  ****     }
 519              		.loc 1 332 0
 520 0044 2C60     		str	r4, [r5]
 331:midiPlayer.c  ****         *dst = v;
 521              		.loc 1 331 0
 522 0046 0120     		movs	r0, #1
 523 0048 00E0     		b	.L34
 524              	.LVL58:
 525              	.L38:
 315:midiPlayer.c  ****     uint32_t v = 0;
 526              		.loc 1 315 0
 527 004a 0020     		movs	r0, #0
 528              	.LVL59:
ARM GAS  C:\Users\DMYTRO~1.FED\AppData\Local\Temp\ccc30aoz.s 			page 22


 529              	.L34:
 336:midiPlayer.c  **** 
 530              		.loc 1 336 0
 531 004c 03B0     		add	sp, sp, #12
 532              		@ sp needed
 533              	.LVL60:
 534 004e 30BD     		pop	{r4, r5, pc}
 535              		.cfi_endproc
 536              	.LFE5:
 537              		.size	midiPlayer_ReadVariableLength, .-midiPlayer_ReadVariableLength
 538              		.section	.text.midiPlayer_ReadEvent,"ax",%progbits
 539              		.align	2
 540              		.code	16
 541              		.thumb_func
 542              		.type	midiPlayer_ReadEvent, %function
 543              	midiPlayer_ReadEvent:
 544              	.LFB12:
 553:midiPlayer.c  ****     bool  ret = false;
 545              		.loc 1 553 0
 546              		.cfi_startproc
 547              		@ args = 0, pretend = 0, frame = 0
 548              		@ frame_needed = 0, uses_anonymous_args = 0
 549              	.LVL61:
 550 0000 10B5     		push	{r4, lr}
 551              		.cfi_def_cfa_offset 8
 552              		.cfi_offset 4, -8
 553              		.cfi_offset 14, -4
 554 0002 0400     		movs	r4, r0
 555              	.LVL62:
 558:midiPlayer.c  ****         {
 556              		.loc 1 558 0
 557 0004 0800     		movs	r0, r1
 558              	.LVL63:
 559 0006 FFF7FEFF 		bl	midiPlayer_ReadVariableLength
 560              	.LVL64:
 561 000a 0028     		cmp	r0, #0
 562 000c 04D1     		bne	.L40
 560:midiPlayer.c  ****             break;
 563              		.loc 1 560 0
 564 000e 0848     		ldr	r0, .L43
 565 0010 FFF7FEFF 		bl	uartPrintf
 566              	.LVL65:
 554:midiPlayer.c  **** 
 567              		.loc 1 554 0
 568 0014 0020     		movs	r0, #0
 561:midiPlayer.c  ****         }
 569              		.loc 1 561 0
 570 0016 0AE0     		b	.L41
 571              	.L40:
 564:midiPlayer.c  ****         {
 572              		.loc 1 564 0
 573 0018 2000     		movs	r0, r4
 574 001a FFF7FEFF 		bl	midiPlayer_ReadByte
 575              	.LVL66:
 576 001e 0028     		cmp	r0, #0
 577 0020 04D1     		bne	.L42
 566:midiPlayer.c  ****             break;
ARM GAS  C:\Users\DMYTRO~1.FED\AppData\Local\Temp\ccc30aoz.s 			page 23


 578              		.loc 1 566 0
 579 0022 0448     		ldr	r0, .L43+4
 580 0024 FFF7FEFF 		bl	uartPrintf
 581              	.LVL67:
 554:midiPlayer.c  **** 
 582              		.loc 1 554 0
 583 0028 0020     		movs	r0, #0
 567:midiPlayer.c  ****         }
 584              		.loc 1 567 0
 585 002a 00E0     		b	.L41
 586              	.L42:
 570:midiPlayer.c  ****     } while(false);
 587              		.loc 1 570 0
 588 002c 0120     		movs	r0, #1
 589              	.L41:
 590              	.LVL68:
 574:midiPlayer.c  **** 
 591              		.loc 1 574 0
 592              		@ sp needed
 593              	.LVL69:
 594 002e 10BD     		pop	{r4, pc}
 595              	.L44:
 596              		.align	2
 597              	.L43:
 598 0030 70000000 		.word	.LC13
 599 0034 94000000 		.word	.LC15
 600              		.cfi_endproc
 601              	.LFE12:
 602              		.size	midiPlayer_ReadEvent, .-midiPlayer_ReadEvent
 603              		.section	.text.midiPlayer_SkipEvent,"ax",%progbits
 604              		.align	2
 605              		.code	16
 606              		.thumb_func
 607              		.type	midiPlayer_SkipEvent, %function
 608              	midiPlayer_SkipEvent:
 609              	.LFB9:
 435:midiPlayer.c  ****     uint32_t i;
 610              		.loc 1 435 0
 611              		.cfi_startproc
 612              		@ args = 0, pretend = 0, frame = 8
 613              		@ frame_needed = 0, uses_anonymous_args = 0
 614              	.LVL70:
 615 0000 30B5     		push	{r4, r5, lr}
 616              		.cfi_def_cfa_offset 12
 617              		.cfi_offset 4, -12
 618              		.cfi_offset 5, -8
 619              		.cfi_offset 14, -4
 620 0002 83B0     		sub	sp, sp, #12
 621              		.cfi_def_cfa_offset 24
 622 0004 0500     		movs	r5, r0
 623              	.LVL71:
 440:midiPlayer.c  ****     {
 624              		.loc 1 440 0
 625 0006 0024     		movs	r4, #0
 626 0008 06E0     		b	.L46
 627              	.LVL72:
 628              	.L48:
ARM GAS  C:\Users\DMYTRO~1.FED\AppData\Local\Temp\ccc30aoz.s 			page 24


 442:midiPlayer.c  ****         {
 629              		.loc 1 442 0
 630 000a 6B46     		mov	r3, sp
 631 000c D81D     		adds	r0, r3, #7
 632 000e FFF7FEFF 		bl	midiPlayer_ReadByte
 633              	.LVL73:
 634 0012 0028     		cmp	r0, #0
 635 0014 04D0     		beq	.L49
 440:midiPlayer.c  ****     {
 636              		.loc 1 440 0 discriminator 2
 637 0016 0134     		adds	r4, r4, #1
 638              	.LVL74:
 639              	.L46:
 440:midiPlayer.c  ****     {
 640              		.loc 1 440 0 is_stmt 0 discriminator 1
 641 0018 AC42     		cmp	r4, r5
 642 001a F6D3     		bcc	.L48
 438:midiPlayer.c  ****     
 643              		.loc 1 438 0 is_stmt 1
 644 001c 0120     		movs	r0, #1
 645 001e 00E0     		b	.L47
 646              	.L49:
 444:midiPlayer.c  ****             break;
 647              		.loc 1 444 0
 648 0020 0020     		movs	r0, #0
 649              	.L47:
 650              	.LVL75:
 450:midiPlayer.c  **** 
 651              		.loc 1 450 0
 652 0022 03B0     		add	sp, sp, #12
 653              		@ sp needed
 654              	.LVL76:
 655              	.LVL77:
 656 0024 30BD     		pop	{r4, r5, pc}
 657              		.cfi_endproc
 658              	.LFE9:
 659              		.size	midiPlayer_SkipEvent, .-midiPlayer_SkipEvent
 660 0026 C046     		.section	.text.midiPlayer_ParseEventMeta,"ax",%progbits
 661              		.align	2
 662              		.code	16
 663              		.thumb_func
 664              		.type	midiPlayer_ParseEventMeta, %function
 665              	midiPlayer_ParseEventMeta:
 666              	.LFB8:
 373:midiPlayer.c  ****     uint32_t i;
 667              		.loc 1 373 0
 668              		.cfi_startproc
 669              		@ args = 0, pretend = 0, frame = 16
 670              		@ frame_needed = 0, uses_anonymous_args = 0
 671 0000 30B5     		push	{r4, r5, lr}
 672              		.cfi_def_cfa_offset 12
 673              		.cfi_offset 4, -12
 674              		.cfi_offset 5, -8
 675              		.cfi_offset 14, -4
 676 0002 85B0     		sub	sp, sp, #20
 677              		.cfi_def_cfa_offset 32
 678              	.LVL78:
ARM GAS  C:\Users\DMYTRO~1.FED\AppData\Local\Temp\ccc30aoz.s 			page 25


 379:midiPlayer.c  ****     
 679              		.loc 1 379 0
 680 0004 0F20     		movs	r0, #15
 681 0006 6844     		add	r0, r0, sp
 682 0008 FFF7FEFF 		bl	midiPlayer_ReadByte
 683              	.LVL79:
 684 000c 041E     		subs	r4, r0, #0
 685              	.LVL80:
 383:midiPlayer.c  ****         {
 686              		.loc 1 383 0
 687 000e 41D0     		beq	.L51
 388:midiPlayer.c  ****         if (!res)
 688              		.loc 1 388 0
 689 0010 02A8     		add	r0, sp, #8
 690              	.LVL81:
 691 0012 FFF7FEFF 		bl	midiPlayer_ReadVariableLength
 692              	.LVL82:
 693 0016 041E     		subs	r4, r0, #0
 694              	.LVL83:
 389:midiPlayer.c  ****         {
 695              		.loc 1 389 0
 696 0018 3CD0     		beq	.L51
 395:midiPlayer.c  ****         {
 697              		.loc 1 395 0
 698 001a 0F23     		movs	r3, #15
 699 001c 6B44     		add	r3, r3, sp
 700 001e 1978     		ldrb	r1, [r3]
 701 0020 2F29     		cmp	r1, #47
 702 0022 28D0     		beq	.L53
 703 0024 5129     		cmp	r1, #81
 704 0026 08D0     		beq	.L57
 705 0028 2DE0     		b	.L59
 706              	.LVL84:
 707              	.L56:
 400:midiPlayer.c  ****                     {
 708              		.loc 1 400 0
 709 002a 01AB     		add	r3, sp, #4
 710 002c 5819     		adds	r0, r3, r5
 711 002e FFF7FEFF 		bl	midiPlayer_ReadByte
 712              	.LVL85:
 713 0032 0028     		cmp	r0, #0
 714 0034 06D0     		beq	.L58
 398:midiPlayer.c  ****                 {
 715              		.loc 1 398 0 discriminator 2
 716 0036 0135     		adds	r5, r5, #1
 717              	.LVL86:
 718 0038 00E0     		b	.L54
 719              	.LVL87:
 720              	.L57:
 395:midiPlayer.c  ****         {
 721              		.loc 1 395 0
 722 003a 0025     		movs	r5, #0
 723              	.LVL88:
 724              	.L54:
 398:midiPlayer.c  ****                 {
 725              		.loc 1 398 0 discriminator 1
 726 003c 022D     		cmp	r5, #2
ARM GAS  C:\Users\DMYTRO~1.FED\AppData\Local\Temp\ccc30aoz.s 			page 26


 727 003e F4D9     		bls	.L56
 378:midiPlayer.c  ****     bool res = midiPlayer_ReadByte(&id);
 728              		.loc 1 378 0
 729 0040 0123     		movs	r3, #1
 730 0042 00E0     		b	.L55
 731              	.L58:
 402:midiPlayer.c  ****                         break;
 732              		.loc 1 402 0
 733 0044 0023     		movs	r3, #0
 734              	.L55:
 735              	.LVL89:
 407:midiPlayer.c  ****                 {
 736              		.loc 1 407 0
 737 0046 002B     		cmp	r3, #0
 738 0048 24D0     		beq	.L51
 409:midiPlayer.c  ****                     midiPlayer.tempo = midiPlayer.tempo / 1000;
 739              		.loc 1 409 0
 740 004a 01AA     		add	r2, sp, #4
 741 004c 1078     		ldrb	r0, [r2]
 742 004e 5378     		ldrb	r3, [r2, #1]
 743              	.LVL90:
 744 0050 0002     		lsls	r0, r0, #8
 745 0052 C018     		adds	r0, r0, r3
 746 0054 0002     		lsls	r0, r0, #8
 747 0056 9378     		ldrb	r3, [r2, #2]
 748 0058 1818     		adds	r0, r3, r0
 749 005a 104D     		ldr	r5, .L60
 750              	.LVL91:
 410:midiPlayer.c  ****                     uartPrintf("MIDI: Set tempo: %d\r\n", midiPlayer.tempo);
 751              		.loc 1 410 0
 752 005c FA21     		movs	r1, #250
 753 005e 8900     		lsls	r1, r1, #2
 754 0060 FFF7FEFF 		bl	__aeabi_uidiv
 755              	.LVL92:
 756 0064 0100     		movs	r1, r0
 757 0066 A861     		str	r0, [r5, #24]
 411:midiPlayer.c  ****                     midiPlayer.samplePerQuarter = midiPlayer_GetCalcVal();
 758              		.loc 1 411 0
 759 0068 0D48     		ldr	r0, .L60+4
 760 006a FFF7FEFF 		bl	uartPrintf
 761              	.LVL93:
 412:midiPlayer.c  ****                     res = true;
 762              		.loc 1 412 0
 763 006e FFF7FEFF 		bl	midiPlayer_GetCalcVal
 764              	.LVL94:
 765 0072 E861     		str	r0, [r5, #28]
 766              	.LVL95:
 767 0074 0EE0     		b	.L51
 768              	.LVL96:
 769              	.L53:
 418:midiPlayer.c  ****                 midiPlayer.isEnd = true;
 770              		.loc 1 418 0
 771 0076 0B48     		ldr	r0, .L60+8
 772              	.LVL97:
 773 0078 FFF7FEFF 		bl	uartPrintf
 774              	.LVL98:
 419:midiPlayer.c  ****                 res = true;
ARM GAS  C:\Users\DMYTRO~1.FED\AppData\Local\Temp\ccc30aoz.s 			page 27


 775              		.loc 1 419 0
 776 007c 0121     		movs	r1, #1
 777 007e 6D23     		movs	r3, #109
 778 0080 064A     		ldr	r2, .L60
 779 0082 D154     		strb	r1, [r2, r3]
 780              	.LVL99:
 421:midiPlayer.c  ****             
 781              		.loc 1 421 0
 782 0084 06E0     		b	.L51
 783              	.LVL100:
 784              	.L59:
 424:midiPlayer.c  ****                 res = midiPlayer_SkipEvent(length);
 785              		.loc 1 424 0
 786 0086 0848     		ldr	r0, .L60+12
 787              	.LVL101:
 788 0088 FFF7FEFF 		bl	uartPrintf
 789              	.LVL102:
 425:midiPlayer.c  ****                 break;
 790              		.loc 1 425 0
 791 008c 0298     		ldr	r0, [sp, #8]
 792 008e FFF7FEFF 		bl	midiPlayer_SkipEvent
 793              	.LVL103:
 794 0092 0400     		movs	r4, r0
 795              	.LVL104:
 796              	.L51:
 432:midiPlayer.c  **** 
 797              		.loc 1 432 0
 798 0094 2000     		movs	r0, r4
 799 0096 05B0     		add	sp, sp, #20
 800              		@ sp needed
 801              	.LVL105:
 802 0098 30BD     		pop	{r4, r5, pc}
 803              	.L61:
 804 009a C046     		.align	2
 805              	.L60:
 806 009c 00000000 		.word	.LANCHOR0
 807 00a0 B8000000 		.word	.LC18
 808 00a4 D0000000 		.word	.LC20
 809 00a8 E8000000 		.word	.LC22
 810              		.cfi_endproc
 811              	.LFE8:
 812              		.size	midiPlayer_ParseEventMeta, .-midiPlayer_ParseEventMeta
 813              		.section	.text.midiPlayer_ParseEvent,"ax",%progbits
 814              		.align	2
 815              		.code	16
 816              		.thumb_func
 817              		.type	midiPlayer_ParseEvent, %function
 818              	midiPlayer_ParseEvent:
 819              	.LFB11:
 474:midiPlayer.c  ****     if (EVENT_META == id)
 820              		.loc 1 474 0
 821              		.cfi_startproc
 822              		@ args = 0, pretend = 0, frame = 8
 823              		@ frame_needed = 0, uses_anonymous_args = 0
 824              	.LVL106:
 825 0000 30B5     		push	{r4, r5, lr}
 826              		.cfi_def_cfa_offset 12
ARM GAS  C:\Users\DMYTRO~1.FED\AppData\Local\Temp\ccc30aoz.s 			page 28


 827              		.cfi_offset 4, -12
 828              		.cfi_offset 5, -8
 829              		.cfi_offset 14, -4
 830 0002 83B0     		sub	sp, sp, #12
 831              		.cfi_def_cfa_offset 24
 475:midiPlayer.c  ****     {
 832              		.loc 1 475 0
 833 0004 FF28     		cmp	r0, #255
 834 0006 07D1     		bne	.L63
 477:midiPlayer.c  ****     } else
 835              		.loc 1 477 0
 836 0008 FFF7FEFF 		bl	midiPlayer_ParseEventMeta
 837              	.LVL107:
 838 000c 0123     		movs	r3, #1
 839 000e 5840     		eors	r0, r3
 840 0010 6C23     		movs	r3, #108
 841 0012 554A     		ldr	r2, .L78
 842 0014 D054     		strb	r0, [r2, r3]
 843 0016 A4E0     		b	.L62
 844              	.LVL108:
 845              	.L63:
 846              	.LBB2:
 484:midiPlayer.c  ****         chanIdx = id & 0x0F; 
 847              		.loc 1 484 0
 848 0018 0F23     		movs	r3, #15
 849 001a 0200     		movs	r2, r0
 850 001c 9A43     		bics	r2, r3
 851 001e 1300     		movs	r3, r2
 852              	.LVL109:
 485:midiPlayer.c  ****         
 853              		.loc 1 485 0
 854 0020 0F24     		movs	r4, #15
 855 0022 0440     		ands	r4, r0
 856              	.LVL110:
 487:midiPlayer.c  ****         {
 857              		.loc 1 487 0
 858 0024 6F22     		movs	r2, #111
 859 0026 504D     		ldr	r5, .L78
 860 0028 AA5C     		ldrb	r2, [r5, r2]
 861 002a 9442     		cmp	r4, r2
 862 002c 01D9     		bls	.L65
 489:midiPlayer.c  ****         }
 863              		.loc 1 489 0
 864 002e 6F22     		movs	r2, #111
 865 0030 AC54     		strb	r4, [r5, r2]
 866              	.L65:
 491:midiPlayer.c  ****         {
 867              		.loc 1 491 0
 868 0032 B02B     		cmp	r3, #176
 869 0034 1CD0     		beq	.L67
 870 0036 07D8     		bhi	.L68
 871 0038 902B     		cmp	r3, #144
 872 003a 49D0     		beq	.L69
 873 003c A02B     		cmp	r3, #160
 874 003e 0AD0     		beq	.L70
 875 0040 802B     		cmp	r3, #128
 876 0042 00D0     		beq	.LCB840
ARM GAS  C:\Users\DMYTRO~1.FED\AppData\Local\Temp\ccc30aoz.s 			page 29


 877 0044 85E0     		b	.L66	@long jump
 878              	.LCB840:
 879 0046 6CE0     		b	.L71
 880              	.L68:
 881 0048 D02B     		cmp	r3, #208
 882 004a 2BD0     		beq	.L72
 883 004c E02B     		cmp	r3, #224
 884 004e 36D0     		beq	.L73
 885 0050 C02B     		cmp	r3, #192
 886 0052 7ED1     		bne	.L66
 887 0054 19E0     		b	.L74
 888              	.L70:
 494:midiPlayer.c  ****                 midiPlayer.isError = !midiPlayer_SkipEvent(2);
 889              		.loc 1 494 0
 890 0056 0100     		movs	r1, r0
 891              	.LVL111:
 892 0058 4448     		ldr	r0, .L78+4
 893              	.LVL112:
 894 005a FFF7FEFF 		bl	uartPrintf
 895              	.LVL113:
 495:midiPlayer.c  ****                 break;
 896              		.loc 1 495 0
 897 005e 0220     		movs	r0, #2
 898 0060 FFF7FEFF 		bl	midiPlayer_SkipEvent
 899              	.LVL114:
 900 0064 0123     		movs	r3, #1
 901 0066 5840     		eors	r0, r3
 902 0068 6C23     		movs	r3, #108
 903 006a 3F4A     		ldr	r2, .L78
 904 006c D054     		strb	r0, [r2, r3]
 496:midiPlayer.c  ****             
 905              		.loc 1 496 0
 906 006e 78E0     		b	.L62
 907              	.LVL115:
 908              	.L67:
 499:midiPlayer.c  ****                 midiPlayer.isError = !midiPlayer_SkipEvent(2);
 909              		.loc 1 499 0
 910 0070 0100     		movs	r1, r0
 911              	.LVL116:
 912 0072 3F48     		ldr	r0, .L78+8
 913              	.LVL117:
 914 0074 FFF7FEFF 		bl	uartPrintf
 915              	.LVL118:
 500:midiPlayer.c  ****                 break;
 916              		.loc 1 500 0
 917 0078 0220     		movs	r0, #2
 918 007a FFF7FEFF 		bl	midiPlayer_SkipEvent
 919              	.LVL119:
 920 007e 0123     		movs	r3, #1
 921 0080 5840     		eors	r0, r3
 922 0082 6C23     		movs	r3, #108
 923 0084 384A     		ldr	r2, .L78
 924 0086 D054     		strb	r0, [r2, r3]
 501:midiPlayer.c  ****             
 925              		.loc 1 501 0
 926 0088 6BE0     		b	.L62
 927              	.LVL120:
ARM GAS  C:\Users\DMYTRO~1.FED\AppData\Local\Temp\ccc30aoz.s 			page 30


 928              	.L74:
 504:midiPlayer.c  ****                 midiPlayer.isError = !midiPlayer_SkipEvent(1);
 929              		.loc 1 504 0
 930 008a 0100     		movs	r1, r0
 931              	.LVL121:
 932 008c 3948     		ldr	r0, .L78+12
 933              	.LVL122:
 934 008e FFF7FEFF 		bl	uartPrintf
 935              	.LVL123:
 505:midiPlayer.c  ****                 break;
 936              		.loc 1 505 0
 937 0092 0120     		movs	r0, #1
 938 0094 FFF7FEFF 		bl	midiPlayer_SkipEvent
 939              	.LVL124:
 940 0098 0123     		movs	r3, #1
 941 009a 5840     		eors	r0, r3
 942 009c 6C23     		movs	r3, #108
 943 009e 324A     		ldr	r2, .L78
 944 00a0 D054     		strb	r0, [r2, r3]
 506:midiPlayer.c  ****                 
 945              		.loc 1 506 0
 946 00a2 5EE0     		b	.L62
 947              	.LVL125:
 948              	.L72:
 509:midiPlayer.c  ****                 midiPlayer.isError = !midiPlayer_SkipEvent(1);
 949              		.loc 1 509 0
 950 00a4 0100     		movs	r1, r0
 951              	.LVL126:
 952 00a6 3448     		ldr	r0, .L78+16
 953              	.LVL127:
 954 00a8 FFF7FEFF 		bl	uartPrintf
 955              	.LVL128:
 510:midiPlayer.c  ****                 break;
 956              		.loc 1 510 0
 957 00ac 0120     		movs	r0, #1
 958 00ae FFF7FEFF 		bl	midiPlayer_SkipEvent
 959              	.LVL129:
 960 00b2 0123     		movs	r3, #1
 961 00b4 5840     		eors	r0, r3
 962 00b6 6C23     		movs	r3, #108
 963 00b8 2B4A     		ldr	r2, .L78
 964 00ba D054     		strb	r0, [r2, r3]
 511:midiPlayer.c  ****                 
 965              		.loc 1 511 0
 966 00bc 51E0     		b	.L62
 967              	.LVL130:
 968              	.L73:
 514:midiPlayer.c  ****                 break;
 969              		.loc 1 514 0
 970 00be 0220     		movs	r0, #2
 971              	.LVL131:
 972 00c0 FFF7FEFF 		bl	midiPlayer_SkipEvent
 973              	.LVL132:
 974 00c4 0123     		movs	r3, #1
 975 00c6 5840     		eors	r0, r3
 976 00c8 6C23     		movs	r3, #108
 977 00ca 274A     		ldr	r2, .L78
ARM GAS  C:\Users\DMYTRO~1.FED\AppData\Local\Temp\ccc30aoz.s 			page 31


 978 00cc D054     		strb	r0, [r2, r3]
 515:midiPlayer.c  ****                 
 979              		.loc 1 515 0
 980 00ce 48E0     		b	.L62
 981              	.LVL133:
 982              	.L69:
 518:midiPlayer.c  ****                 midiPlayer.isError = !midiPlayer_ReadByte(&noteIdx); 
 983              		.loc 1 518 0
 984 00d0 0800     		movs	r0, r1
 985              	.LVL134:
 986 00d2 FFF7FEFF 		bl	midiPlayer_ConvSamplesCnt
 987              	.LVL135:
 988 00d6 244D     		ldr	r5, .L78
 989 00d8 6866     		str	r0, [r5, #100]
 519:midiPlayer.c  ****                 if (midiPlayer.isError)
 990              		.loc 1 519 0
 991 00da 6B46     		mov	r3, sp
 992 00dc D81D     		adds	r0, r3, #7
 993 00de FFF7FEFF 		bl	midiPlayer_ReadByte
 994              	.LVL136:
 995 00e2 0123     		movs	r3, #1
 996 00e4 5840     		eors	r0, r3
 997 00e6 C0B2     		uxtb	r0, r0
 998 00e8 6C23     		movs	r3, #108
 999 00ea E854     		strb	r0, [r5, r3]
 520:midiPlayer.c  ****                 {
 1000              		.loc 1 520 0
 1001 00ec 0028     		cmp	r0, #0
 1002 00ee 38D1     		bne	.L62
 524:midiPlayer.c  ****                 midiPlayer.nextEvent.sample = midiPlayer_ConvNoteSample(noteIdx);
 1003              		.loc 1 524 0
 1004 00f0 1D4D     		ldr	r5, .L78
 1005 00f2 0C3B     		subs	r3, r3, #12
 1006 00f4 EC54     		strb	r4, [r5, r3]
 525:midiPlayer.c  ****                 if (0 == midiPlayer.nextEvent.wait)
 1007              		.loc 1 525 0
 1008 00f6 6B46     		mov	r3, sp
 1009 00f8 D879     		ldrb	r0, [r3, #7]
 1010 00fa FFF7FEFF 		bl	midiPlayer_ConvNoteSample
 1011              	.LVL137:
 1012 00fe 6823     		movs	r3, #104
 1013 0100 E852     		strh	r0, [r5, r3]
 526:midiPlayer.c  ****                 {
 1014              		.loc 1 526 0
 1015 0102 6B6E     		ldr	r3, [r5, #100]
 1016 0104 002B     		cmp	r3, #0
 1017 0106 03D1     		bne	.L76
 528:midiPlayer.c  ****                 }
 1018              		.loc 1 528 0
 1019 0108 0100     		movs	r1, r0
 1020 010a 2000     		movs	r0, r4
 1021 010c FFF7FEFF 		bl	midiPlayer_SetChanState
 1022              	.LVL138:
 1023              	.L76:
 530:midiPlayer.c  ****                 break;
 1024              		.loc 1 530 0
 1025 0110 0120     		movs	r0, #1
ARM GAS  C:\Users\DMYTRO~1.FED\AppData\Local\Temp\ccc30aoz.s 			page 32


 1026 0112 FFF7FEFF 		bl	midiPlayer_SkipEvent
 1027              	.LVL139:
 1028 0116 0123     		movs	r3, #1
 1029 0118 5840     		eors	r0, r3
 1030 011a 6C23     		movs	r3, #108
 1031 011c 124A     		ldr	r2, .L78
 1032 011e D054     		strb	r0, [r2, r3]
 531:midiPlayer.c  ****                 
 1033              		.loc 1 531 0
 1034 0120 1FE0     		b	.L62
 1035              	.LVL140:
 1036              	.L71:
 534:midiPlayer.c  ****                 midiPlayer.nextEvent.sample = 0; 
 1037              		.loc 1 534 0
 1038 0122 0800     		movs	r0, r1
 1039              	.LVL141:
 1040 0124 FFF7FEFF 		bl	midiPlayer_ConvSamplesCnt
 1041              	.LVL142:
 1042 0128 0F4B     		ldr	r3, .L78
 1043 012a 5866     		str	r0, [r3, #100]
 535:midiPlayer.c  ****                 midiPlayer.nextEvent.channel = chanIdx;
 1044              		.loc 1 535 0
 1045 012c 0021     		movs	r1, #0
 1046 012e 6822     		movs	r2, #104
 1047 0130 9952     		strh	r1, [r3, r2]
 536:midiPlayer.c  ****                 if (0 == midiPlayer.nextEvent.wait)
 1048              		.loc 1 536 0
 1049 0132 083A     		subs	r2, r2, #8
 1050 0134 9C54     		strb	r4, [r3, r2]
 537:midiPlayer.c  ****                 {
 1051              		.loc 1 537 0
 1052 0136 0028     		cmp	r0, #0
 1053 0138 02D1     		bne	.L77
 539:midiPlayer.c  ****                 }
 1054              		.loc 1 539 0
 1055 013a 2000     		movs	r0, r4
 1056 013c FFF7FEFF 		bl	midiPlayer_SetChanState
 1057              	.LVL143:
 1058              	.L77:
 541:midiPlayer.c  ****                 break;
 1059              		.loc 1 541 0
 1060 0140 0220     		movs	r0, #2
 1061 0142 FFF7FEFF 		bl	midiPlayer_SkipEvent
 1062              	.LVL144:
 1063 0146 0123     		movs	r3, #1
 1064 0148 5840     		eors	r0, r3
 1065 014a 6C23     		movs	r3, #108
 1066 014c 064A     		ldr	r2, .L78
 1067 014e D054     		strb	r0, [r2, r3]
 542:midiPlayer.c  ****         
 1068              		.loc 1 542 0
 1069 0150 07E0     		b	.L62
 1070              	.LVL145:
 1071              	.L66:
 545:midiPlayer.c  ****                 midiPlayer.isError = true;
 1072              		.loc 1 545 0
 1073 0152 0100     		movs	r1, r0
ARM GAS  C:\Users\DMYTRO~1.FED\AppData\Local\Temp\ccc30aoz.s 			page 33


 1074              	.LVL146:
 1075 0154 0948     		ldr	r0, .L78+20
 1076              	.LVL147:
 1077 0156 FFF7FEFF 		bl	uartPrintf
 1078              	.LVL148:
 546:midiPlayer.c  ****                 break;   
 1079              		.loc 1 546 0
 1080 015a 0121     		movs	r1, #1
 1081 015c 6C23     		movs	r3, #108
 1082 015e 024A     		ldr	r2, .L78
 1083 0160 D154     		strb	r1, [r2, r3]
 1084              	.LVL149:
 1085              	.L62:
 1086              	.LBE2:
 550:midiPlayer.c  **** 
 1087              		.loc 1 550 0
 1088 0162 03B0     		add	sp, sp, #12
 1089              		@ sp needed
 1090 0164 30BD     		pop	{r4, r5, pc}
 1091              	.L79:
 1092 0166 C046     		.align	2
 1093              	.L78:
 1094 0168 00000000 		.word	.LANCHOR0
 1095 016c 0C010000 		.word	.LC25
 1096 0170 28010000 		.word	.LC27
 1097 0174 44010000 		.word	.LC29
 1098 0178 64010000 		.word	.LC31
 1099 017c 88010000 		.word	.LC33
 1100              		.cfi_endproc
 1101              	.LFE11:
 1102              		.size	midiPlayer_ParseEvent, .-midiPlayer_ParseEvent
 1103              		.section	.text.midiPlayer_ProcessEvents,"ax",%progbits
 1104              		.align	2
 1105              		.code	16
 1106              		.thumb_func
 1107              		.type	midiPlayer_ProcessEvents, %function
 1108              	midiPlayer_ProcessEvents:
 1109              	.LFB14:
 583:midiPlayer.c  ****     uint8_t  eventId;
 1110              		.loc 1 583 0
 1111              		.cfi_startproc
 1112              		@ args = 0, pretend = 0, frame = 8
 1113              		@ frame_needed = 0, uses_anonymous_args = 0
 1114 0000 10B5     		push	{r4, lr}
 1115              		.cfi_def_cfa_offset 8
 1116              		.cfi_offset 4, -8
 1117              		.cfi_offset 14, -4
 1118 0002 82B0     		sub	sp, sp, #8
 1119              		.cfi_def_cfa_offset 16
 587:midiPlayer.c  ****     do
 1120              		.loc 1 587 0
 1121 0004 0F4B     		ldr	r3, .L83
 1122 0006 6822     		movs	r2, #104
 1123 0008 995A     		ldrh	r1, [r3, r2]
 1124 000a 083A     		subs	r2, r2, #8
 1125 000c 985C     		ldrb	r0, [r3, r2]
 1126 000e FFF7FEFF 		bl	midiPlayer_SetChanState
ARM GAS  C:\Users\DMYTRO~1.FED\AppData\Local\Temp\ccc30aoz.s 			page 34


 1127              	.LVL150:
 1128              	.L82:
 590:midiPlayer.c  ****         midiPlayer_ParseEvent(eventId, delta_time);
 1129              		.loc 1 590 0
 1130 0012 6B46     		mov	r3, sp
 1131 0014 DC1D     		adds	r4, r3, #7
 1132 0016 6946     		mov	r1, sp
 1133 0018 2000     		movs	r0, r4
 1134 001a FFF7FEFF 		bl	midiPlayer_ReadEvent
 1135              	.LVL151:
 591:midiPlayer.c  ****         
 1136              		.loc 1 591 0
 1137 001e 2078     		ldrb	r0, [r4]
 1138 0020 0099     		ldr	r1, [sp]
 1139 0022 FFF7FEFF 		bl	midiPlayer_ParseEvent
 1140              	.LVL152:
 593:midiPlayer.c  ****         {
 1141              		.loc 1 593 0
 1142 0026 6D23     		movs	r3, #109
 1143 0028 064A     		ldr	r2, .L83
 1144 002a D35C     		ldrb	r3, [r2, r3]
 1145 002c 002B     		cmp	r3, #0
 1146 002e 06D1     		bne	.L80
 598:midiPlayer.c  ****         {
 1147              		.loc 1 598 0
 1148 0030 6C33     		adds	r3, r3, #108
 1149 0032 D35C     		ldrb	r3, [r2, r3]
 1150 0034 002B     		cmp	r3, #0
 1151 0036 02D1     		bne	.L80
 602:midiPlayer.c  **** }
 1152              		.loc 1 602 0
 1153 0038 536E     		ldr	r3, [r2, #100]
 1154 003a 002B     		cmp	r3, #0
 1155 003c E9D0     		beq	.L82
 1156              	.L80:
 603:midiPlayer.c  **** 
 1157              		.loc 1 603 0
 1158 003e 02B0     		add	sp, sp, #8
 1159              		@ sp needed
 1160 0040 10BD     		pop	{r4, pc}
 1161              	.L84:
 1162 0042 C046     		.align	2
 1163              	.L83:
 1164 0044 00000000 		.word	.LANCHOR0
 1165              		.cfi_endproc
 1166              	.LFE14:
 1167              		.size	midiPlayer_ProcessEvents, .-midiPlayer_ProcessEvents
 1168              		.section	.text.midiPlayer_LoadNextCb,"ax",%progbits
 1169              		.align	2
 1170              		.code	16
 1171              		.thumb_func
 1172              		.type	midiPlayer_LoadNextCb, %function
 1173              	midiPlayer_LoadNextCb:
 1174              	.LFB16:
 639:midiPlayer.c  **** 
 640:midiPlayer.c  **** static void midiPlayer_LoadNextCb(uint8_t *buffer, uint32_t maxSize, uint32_t *obtainedSize)
 641:midiPlayer.c  **** {
ARM GAS  C:\Users\DMYTRO~1.FED\AppData\Local\Temp\ccc30aoz.s 			page 35


 1175              		.loc 1 641 0
 1176              		.cfi_startproc
 1177              		@ args = 0, pretend = 0, frame = 0
 1178              		@ frame_needed = 0, uses_anonymous_args = 0
 1179              	.LVL153:
 1180 0000 F0B5     		push	{r4, r5, r6, r7, lr}
 1181              		.cfi_def_cfa_offset 20
 1182              		.cfi_offset 4, -20
 1183              		.cfi_offset 5, -16
 1184              		.cfi_offset 6, -12
 1185              		.cfi_offset 7, -8
 1186              		.cfi_offset 14, -4
 1187 0002 4746     		mov	r7, r8
 1188 0004 80B4     		push	{r7}
 1189              		.cfi_def_cfa_offset 24
 1190              		.cfi_offset 8, -24
 1191 0006 0700     		movs	r7, r0
 1192 0008 0E00     		movs	r6, r1
 1193 000a 9046     		mov	r8, r2
 642:midiPlayer.c  ****     uint32_t i;
 643:midiPlayer.c  ****     
 644:midiPlayer.c  ****     if (!midiPlayer.isEnd)
 1194              		.loc 1 644 0
 1195 000c 6D23     		movs	r3, #109
 1196 000e 194A     		ldr	r2, .L93
 1197              	.LVL154:
 1198 0010 D35C     		ldrb	r3, [r2, r3]
 1199 0012 002B     		cmp	r3, #0
 1200 0014 2AD1     		bne	.L85
 1201 0016 0024     		movs	r4, #0
 1202 0018 1AE0     		b	.L87
 1203              	.LVL155:
 1204              	.L92:
 645:midiPlayer.c  ****     {
 646:midiPlayer.c  ****         for (i = 0; i < maxSize; i++)
 647:midiPlayer.c  ****         {
 648:midiPlayer.c  ****             if (0 == midiPlayer.nextEvent.wait)
 1205              		.loc 1 648 0
 1206 001a 164B     		ldr	r3, .L93
 1207 001c 5B6E     		ldr	r3, [r3, #100]
 1208 001e 002B     		cmp	r3, #0
 1209 0020 0ED1     		bne	.L88
 649:midiPlayer.c  ****             {
 650:midiPlayer.c  ****                 midiPlayer_ProcessEvents();
 1210              		.loc 1 650 0
 1211 0022 FFF7FEFF 		bl	midiPlayer_ProcessEvents
 1212              	.LVL156:
 651:midiPlayer.c  **** 
 652:midiPlayer.c  ****                 if ((midiPlayer.isError) || (midiPlayer.isEnd))
 1213              		.loc 1 652 0
 1214 0026 6C23     		movs	r3, #108
 1215 0028 124A     		ldr	r2, .L93
 1216 002a D35C     		ldrb	r3, [r2, r3]
 1217 002c 002B     		cmp	r3, #0
 1218 002e 03D1     		bne	.L89
 1219              		.loc 1 652 0 is_stmt 0 discriminator 1
 1220 0030 6D33     		adds	r3, r3, #109
ARM GAS  C:\Users\DMYTRO~1.FED\AppData\Local\Temp\ccc30aoz.s 			page 36


 1221 0032 D35C     		ldrb	r3, [r2, r3]
 1222 0034 002B     		cmp	r3, #0
 1223 0036 06D0     		beq	.L90
 1224              	.L89:
 653:midiPlayer.c  ****                 {
 654:midiPlayer.c  ****                     uartPrintf("MIDI: Error or stop\r\n");
 1225              		.loc 1 654 0 is_stmt 1
 1226 0038 0F48     		ldr	r0, .L93+4
 1227 003a FFF7FEFF 		bl	uartPrintf
 1228              	.LVL157:
 655:midiPlayer.c  ****                     break;
 1229              		.loc 1 655 0
 1230 003e 09E0     		b	.L91
 1231              	.L88:
 656:midiPlayer.c  ****                 }
 657:midiPlayer.c  ****             } else
 658:midiPlayer.c  ****             {
 659:midiPlayer.c  ****                 midiPlayer.nextEvent.wait--;
 1232              		.loc 1 659 0
 1233 0040 013B     		subs	r3, r3, #1
 1234 0042 0C4A     		ldr	r2, .L93
 1235 0044 5366     		str	r3, [r2, #100]
 1236              	.L90:
 660:midiPlayer.c  ****             }
 661:midiPlayer.c  ****             
 662:midiPlayer.c  ****             buffer[i] = midiPlayer_GetSample();
 1237              		.loc 1 662 0 discriminator 2
 1238 0046 3D19     		adds	r5, r7, r4
 1239 0048 FFF7FEFF 		bl	midiPlayer_GetSample
 1240              	.LVL158:
 1241 004c 2870     		strb	r0, [r5]
 646:midiPlayer.c  ****         {
 1242              		.loc 1 646 0 discriminator 2
 1243 004e 0134     		adds	r4, r4, #1
 1244              	.LVL159:
 1245              	.L87:
 646:midiPlayer.c  ****         {
 1246              		.loc 1 646 0 is_stmt 0 discriminator 1
 1247 0050 B442     		cmp	r4, r6
 1248 0052 E2D3     		bcc	.L92
 1249              	.L91:
 663:midiPlayer.c  ****         }
 664:midiPlayer.c  ****         
 665:midiPlayer.c  ****         *obtainedSize = i;
 1250              		.loc 1 665 0 is_stmt 1
 1251 0054 4346     		mov	r3, r8
 1252 0056 1C60     		str	r4, [r3]
 666:midiPlayer.c  ****        
 667:midiPlayer.c  ****         if (midiPlayer.isError)
 1253              		.loc 1 667 0
 1254 0058 6C23     		movs	r3, #108
 1255 005a 064A     		ldr	r2, .L93
 1256 005c D35C     		ldrb	r3, [r2, r3]
 1257 005e 002B     		cmp	r3, #0
 1258 0060 04D0     		beq	.L85
 668:midiPlayer.c  ****         {
 669:midiPlayer.c  ****             uartPrintf("MIDI: Error\r\n");
ARM GAS  C:\Users\DMYTRO~1.FED\AppData\Local\Temp\ccc30aoz.s 			page 37


 1259              		.loc 1 669 0
 1260 0062 0648     		ldr	r0, .L93+8
 1261 0064 FFF7FEFF 		bl	uartPrintf
 1262              	.LVL160:
 670:midiPlayer.c  ****             player_Stop();
 1263              		.loc 1 670 0
 1264 0068 FFF7FEFF 		bl	player_Stop
 1265              	.LVL161:
 1266              	.L85:
 671:midiPlayer.c  ****         }
 672:midiPlayer.c  ****     }
 673:midiPlayer.c  **** }
 1267              		.loc 1 673 0
 1268              		@ sp needed
 1269              	.LVL162:
 1270              	.LVL163:
 1271              	.LVL164:
 1272 006c 04BC     		pop	{r2}
 1273 006e 9046     		mov	r8, r2
 1274 0070 F0BD     		pop	{r4, r5, r6, r7, pc}
 1275              	.L94:
 1276 0072 C046     		.align	2
 1277              	.L93:
 1278 0074 00000000 		.word	.LANCHOR0
 1279 0078 A4010000 		.word	.LC37
 1280 007c BC010000 		.word	.LC39
 1281              		.cfi_endproc
 1282              	.LFE16:
 1283              		.size	midiPlayer_LoadNextCb, .-midiPlayer_LoadNextCb
 1284              		.section	.text.midiPlayer_ReadChunkHeader,"ax",%progbits
 1285              		.align	2
 1286              		.code	16
 1287              		.thumb_func
 1288              		.type	midiPlayer_ReadChunkHeader, %function
 1289              	midiPlayer_ReadChunkHeader:
 1290              	.LFB3:
 251:midiPlayer.c  **** 
 1291              		.loc 1 251 0
 1292              		.cfi_startproc
 1293              		@ args = 0, pretend = 0, frame = 8
 1294              		@ frame_needed = 0, uses_anonymous_args = 0
 1295              	.LVL165:
 1296 0000 30B5     		push	{r4, r5, lr}
 1297              		.cfi_def_cfa_offset 12
 1298              		.cfi_offset 4, -12
 1299              		.cfi_offset 5, -8
 1300              		.cfi_offset 14, -4
 1301 0002 83B0     		sub	sp, sp, #12
 1302              		.cfi_def_cfa_offset 24
 1303 0004 0500     		movs	r5, r0
 253:midiPlayer.c  ****     bool res = false;
 1304              		.loc 1 253 0
 1305 0006 0023     		movs	r3, #0
 1306 0008 0193     		str	r3, [sp, #4]
 1307              	.LVL166:
 255:midiPlayer.c  ****     
 1308              		.loc 1 255 0
ARM GAS  C:\Users\DMYTRO~1.FED\AppData\Local\Temp\ccc30aoz.s 			page 38


 1309 000a 01AB     		add	r3, sp, #4
 1310 000c 0822     		movs	r2, #8
 1311 000e 0100     		movs	r1, r0
 1312 0010 2448     		ldr	r0, .L100
 1313              	.LVL167:
 1314 0012 7030     		adds	r0, r0, #112
 1315 0014 FFF7FEFF 		bl	f_read
 1316              	.LVL168:
 1317 0018 041E     		subs	r4, r0, #0
 1318              	.LVL169:
 259:midiPlayer.c  ****         {
 1319              		.loc 1 259 0
 1320 001a 08D0     		beq	.L96
 261:midiPlayer.c  ****             cardErrorPrint(resultF);
 1321              		.loc 1 261 0
 1322 001c 0100     		movs	r1, r0
 1323 001e 2248     		ldr	r0, .L100+4
 1324              	.LVL170:
 1325 0020 FFF7FEFF 		bl	uartPrintf
 1326              	.LVL171:
 262:midiPlayer.c  ****             break;
 1327              		.loc 1 262 0
 1328 0024 2000     		movs	r0, r4
 1329 0026 FFF7FEFF 		bl	cardErrorPrint
 1330              	.LVL172:
 254:midiPlayer.c  ****     uint8_t resultF = f_read(&midiPlayer.fp, dst, sizeof(midiPlayer_ChunkHeader_t), &len);
 1331              		.loc 1 254 0
 1332 002a 0020     		movs	r0, #0
 263:midiPlayer.c  ****         }
 1333              		.loc 1 263 0
 1334 002c 37E0     		b	.L97
 1335              	.LVL173:
 1336              	.L96:
 266:midiPlayer.c  ****         {
 1337              		.loc 1 266 0
 1338 002e 0199     		ldr	r1, [sp, #4]
 1339 0030 0829     		cmp	r1, #8
 1340 0032 04D0     		beq	.L98
 268:midiPlayer.c  ****             break;
 1341              		.loc 1 268 0
 1342 0034 1D48     		ldr	r0, .L100+8
 1343              	.LVL174:
 1344 0036 FFF7FEFF 		bl	uartPrintf
 1345              	.LVL175:
 254:midiPlayer.c  ****     uint8_t resultF = f_read(&midiPlayer.fp, dst, sizeof(midiPlayer_ChunkHeader_t), &len);
 1346              		.loc 1 254 0
 1347 003a 0020     		movs	r0, #0
 269:midiPlayer.c  ****         }
 1348              		.loc 1 269 0
 1349 003c 2FE0     		b	.L97
 1350              	.LVL176:
 1351              	.L98:
 272:midiPlayer.c  ****         {
 1352              		.loc 1 272 0
 1353 003e 0422     		movs	r2, #4
 1354 0040 1B49     		ldr	r1, .L100+12
 1355 0042 1831     		adds	r1, r1, #24
ARM GAS  C:\Users\DMYTRO~1.FED\AppData\Local\Temp\ccc30aoz.s 			page 39


 1356 0044 2800     		movs	r0, r5
 1357              	.LVL177:
 1358 0046 FFF7FEFF 		bl	memcmp
 1359              	.LVL178:
 1360 004a 0028     		cmp	r0, #0
 1361 004c 04D0     		beq	.L99
 274:midiPlayer.c  ****             break;
 1362              		.loc 1 274 0
 1363 004e 1948     		ldr	r0, .L100+16
 1364 0050 FFF7FEFF 		bl	uartPrintf
 1365              	.LVL179:
 254:midiPlayer.c  ****     uint8_t resultF = f_read(&midiPlayer.fp, dst, sizeof(midiPlayer_ChunkHeader_t), &len);
 1366              		.loc 1 254 0
 1367 0054 0020     		movs	r0, #0
 275:midiPlayer.c  ****         }
 1368              		.loc 1 275 0
 1369 0056 22E0     		b	.L97
 1370              	.L99:
 278:midiPlayer.c  ****         uartPrintf("MIDI: Track size: %d\r\n", dst->size);   
 1371              		.loc 1 278 0
 1372 0058 2C79     		ldrb	r4, [r5, #4]
 1373 005a 6A79     		ldrb	r2, [r5, #5]
 1374 005c 1202     		lsls	r2, r2, #8
 1375 005e 2243     		orrs	r2, r4
 1376 0060 AB79     		ldrb	r3, [r5, #6]
 1377 0062 1B04     		lsls	r3, r3, #16
 1378 0064 1343     		orrs	r3, r2
 1379 0066 1A00     		movs	r2, r3
 1380 0068 EB79     		ldrb	r3, [r5, #7]
 1381 006a 1B06     		lsls	r3, r3, #24
 1382 006c 1343     		orrs	r3, r2
 1383 006e 180E     		lsrs	r0, r3, #24
 1384 0070 1902     		lsls	r1, r3, #8
 1385 0072 FF22     		movs	r2, #255
 1386 0074 1204     		lsls	r2, r2, #16
 1387 0076 1140     		ands	r1, r2
 1388 0078 0143     		orrs	r1, r0
 1389 007a 180A     		lsrs	r0, r3, #8
 1390 007c FF22     		movs	r2, #255
 1391 007e 1202     		lsls	r2, r2, #8
 1392 0080 0240     		ands	r2, r0
 1393 0082 1143     		orrs	r1, r2
 1394 0084 1B06     		lsls	r3, r3, #24
 1395 0086 1943     		orrs	r1, r3
 1396 0088 2971     		strb	r1, [r5, #4]
 1397 008a 0B0A     		lsrs	r3, r1, #8
 1398 008c 6B71     		strb	r3, [r5, #5]
 1399 008e 0B0C     		lsrs	r3, r1, #16
 1400 0090 AB71     		strb	r3, [r5, #6]
 1401 0092 0B0E     		lsrs	r3, r1, #24
 1402 0094 EB71     		strb	r3, [r5, #7]
 279:midiPlayer.c  ****         res = true;
 1403              		.loc 1 279 0
 1404 0096 0848     		ldr	r0, .L100+20
 1405 0098 FFF7FEFF 		bl	uartPrintf
 1406              	.LVL180:
 280:midiPlayer.c  ****     } while(false);
ARM GAS  C:\Users\DMYTRO~1.FED\AppData\Local\Temp\ccc30aoz.s 			page 40


 1407              		.loc 1 280 0
 1408 009c 0120     		movs	r0, #1
 1409              	.LVL181:
 1410              	.L97:
 284:midiPlayer.c  **** 
 1411              		.loc 1 284 0
 1412 009e 03B0     		add	sp, sp, #12
 1413              		@ sp needed
 1414              	.LVL182:
 1415 00a0 30BD     		pop	{r4, r5, pc}
 1416              	.L101:
 1417 00a2 C046     		.align	2
 1418              	.L100:
 1419 00a4 00000000 		.word	.LANCHOR0
 1420 00a8 CC010000 		.word	.LC42
 1421 00ac F8010000 		.word	.LC44
 1422 00b0 00000000 		.word	.LANCHOR1
 1423 00b4 30020000 		.word	.LC47
 1424 00b8 6C020000 		.word	.LC49
 1425              		.cfi_endproc
 1426              	.LFE3:
 1427              		.size	midiPlayer_ReadChunkHeader, .-midiPlayer_ReadChunkHeader
 1428              		.section	.text.midiPlayer_Close,"ax",%progbits
 1429              		.align	2
 1430              		.code	16
 1431              		.thumb_func
 1432              		.type	midiPlayer_Close, %function
 1433              	midiPlayer_Close:
 1434              	.LFB17:
 674:midiPlayer.c  **** 
 675:midiPlayer.c  **** static void midiPlayer_Close(void)
 676:midiPlayer.c  **** {
 1435              		.loc 1 676 0
 1436              		.cfi_startproc
 1437              		@ args = 0, pretend = 0, frame = 0
 1438              		@ frame_needed = 0, uses_anonymous_args = 0
 1439 0000 10B5     		push	{r4, lr}
 1440              		.cfi_def_cfa_offset 8
 1441              		.cfi_offset 4, -8
 1442              		.cfi_offset 14, -4
 677:midiPlayer.c  ****     if (midiPlayer.isOpen)
 1443              		.loc 1 677 0
 1444 0002 6E23     		movs	r3, #110
 1445 0004 0B4A     		ldr	r2, .L105
 1446 0006 D35C     		ldrb	r3, [r2, r3]
 1447 0008 002B     		cmp	r3, #0
 1448 000a 11D0     		beq	.L102
 678:midiPlayer.c  ****     {
 679:midiPlayer.c  ****         uartPrintf("MIDI: Closing file\r\n");
 1449              		.loc 1 679 0
 1450 000c 0A48     		ldr	r0, .L105+4
 1451 000e FFF7FEFF 		bl	uartPrintf
 1452              	.LVL183:
 680:midiPlayer.c  ****         midiPlayer.isOpen = false;
 1453              		.loc 1 680 0
 1454 0012 0848     		ldr	r0, .L105
 1455 0014 0022     		movs	r2, #0
ARM GAS  C:\Users\DMYTRO~1.FED\AppData\Local\Temp\ccc30aoz.s 			page 41


 1456 0016 6E23     		movs	r3, #110
 1457 0018 C254     		strb	r2, [r0, r3]
 681:midiPlayer.c  ****         ASSERT((FRESULT)RES_OK == f_close(&midiPlayer.fp));
 1458              		.loc 1 681 0
 1459 001a 7030     		adds	r0, r0, #112
 1460 001c FFF7FEFF 		bl	f_close
 1461              	.LVL184:
 1462 0020 0028     		cmp	r0, #0
 1463 0022 05D0     		beq	.L102
 1464              		.loc 1 681 0 is_stmt 0 discriminator 1
 1465 0024 054A     		ldr	r2, .L105+8
 1466 0026 0649     		ldr	r1, .L105+12
 1467 0028 0648     		ldr	r0, .L105+16
 1468 002a FFF7FEFF 		bl	uartPrintf
 1469              	.LVL185:
 1470              	.L104:
 1471 002e FEE7     		b	.L104
 1472              	.L102:
 682:midiPlayer.c  ****     }
 683:midiPlayer.c  **** }
 1473              		.loc 1 683 0 is_stmt 1
 1474              		@ sp needed
 1475 0030 10BD     		pop	{r4, pc}
 1476              	.L106:
 1477 0032 C046     		.align	2
 1478              	.L105:
 1479 0034 00000000 		.word	.LANCHOR0
 1480 0038 84020000 		.word	.LC52
 1481 003c A9020000 		.word	681
 1482 0040 9C020000 		.word	.LC54
 1483 0044 AC020000 		.word	.LC56
 1484              		.cfi_endproc
 1485              	.LFE17:
 1486              		.size	midiPlayer_Close, .-midiPlayer_Close
 1487              		.section	.text.midiPlayer_Init,"ax",%progbits
 1488              		.align	2
 1489              		.code	16
 1490              		.thumb_func
 1491              		.type	midiPlayer_Init, %function
 1492              	midiPlayer_Init:
 1493              	.LFB1:
 155:midiPlayer.c  ****     char    type[5] = {0};
 1494              		.loc 1 155 0
 1495              		.cfi_startproc
 1496              		@ args = 0, pretend = 0, frame = 16
 1497              		@ frame_needed = 0, uses_anonymous_args = 0
 1498 0000 F0B5     		push	{r4, r5, r6, r7, lr}
 1499              		.cfi_def_cfa_offset 20
 1500              		.cfi_offset 4, -20
 1501              		.cfi_offset 5, -16
 1502              		.cfi_offset 6, -12
 1503              		.cfi_offset 7, -8
 1504              		.cfi_offset 14, -4
 1505 0002 85B0     		sub	sp, sp, #20
 1506              		.cfi_def_cfa_offset 40
 156:midiPlayer.c  ****     UINT    len = 0;
 1507              		.loc 1 156 0
ARM GAS  C:\Users\DMYTRO~1.FED\AppData\Local\Temp\ccc30aoz.s 			page 42


 1508 0004 0522     		movs	r2, #5
 1509 0006 0021     		movs	r1, #0
 1510 0008 02A8     		add	r0, sp, #8
 1511 000a FFF7FEFF 		bl	memset
 1512              	.LVL186:
 157:midiPlayer.c  ****     uint8_t resultF = RES_OK;
 1513              		.loc 1 157 0
 1514 000e 0023     		movs	r3, #0
 1515 0010 0193     		str	r3, [sp, #4]
 1516              	.LVL187:
 163:midiPlayer.c  ****         if (RES_OK != resultF)
 1517              		.loc 1 163 0
 1518 0012 5349     		ldr	r1, .L117
 1519 0014 0800     		movs	r0, r1
 1520 0016 7030     		adds	r0, r0, #112
 1521 0018 01AB     		add	r3, sp, #4
 1522 001a 0E22     		movs	r2, #14
 1523 001c FFF7FEFF 		bl	f_read
 1524              	.LVL188:
 1525 0020 0400     		movs	r4, r0
 1526 0022 051E     		subs	r5, r0, #0
 1527              	.LVL189:
 164:midiPlayer.c  ****         {
 1528              		.loc 1 164 0
 1529 0024 05D0     		beq	.L108
 166:midiPlayer.c  ****             break;
 1530              		.loc 1 166 0
 1531 0026 0100     		movs	r1, r0
 1532 0028 4E48     		ldr	r0, .L117+4
 1533              	.LVL190:
 1534 002a FFF7FEFF 		bl	uartPrintf
 1535              	.LVL191:
 159:midiPlayer.c  ****     
 1536              		.loc 1 159 0
 1537 002e 0026     		movs	r6, #0
 167:midiPlayer.c  ****         }
 1538              		.loc 1 167 0
 1539 0030 89E0     		b	.L109
 1540              	.LVL192:
 1541              	.L108:
 170:midiPlayer.c  ****         midiPlayer.fileHeader.chunkHeader.size = HTOL(midiPlayer.fileHeader.chunkHeader.size);
 1542              		.loc 1 170 0
 1543 0032 4B4E     		ldr	r6, .L117
 1544 0034 3368     		ldr	r3, [r6]
 1545 0036 0293     		str	r3, [sp, #8]
 171:midiPlayer.c  ****         uartPrintf("MIDI: 0 chunk type %s\r\n", type);
 1546              		.loc 1 171 0
 1547 0038 7368     		ldr	r3, [r6, #4]
 1548 003a 1F0E     		lsrs	r7, r3, #24
 1549 003c 1A02     		lsls	r2, r3, #8
 1550 003e FF21     		movs	r1, #255
 1551 0040 0904     		lsls	r1, r1, #16
 1552 0042 0A40     		ands	r2, r1
 1553 0044 3800     		movs	r0, r7
 1554              	.LVL193:
 1555 0046 1043     		orrs	r0, r2
 1556 0048 1A0A     		lsrs	r2, r3, #8
ARM GAS  C:\Users\DMYTRO~1.FED\AppData\Local\Temp\ccc30aoz.s 			page 43


 1557 004a FF21     		movs	r1, #255
 1558 004c 0902     		lsls	r1, r1, #8
 1559 004e 1140     		ands	r1, r2
 1560 0050 0200     		movs	r2, r0
 1561 0052 0A43     		orrs	r2, r1
 1562 0054 1B06     		lsls	r3, r3, #24
 1563 0056 1343     		orrs	r3, r2
 1564 0058 7360     		str	r3, [r6, #4]
 172:midiPlayer.c  ****         uartPrintf("MIDI: 0 chunk size %d\r\n", midiPlayer.fileHeader.chunkHeader.size);
 1565              		.loc 1 172 0
 1566 005a 02A9     		add	r1, sp, #8
 1567 005c 4248     		ldr	r0, .L117+8
 1568 005e FFF7FEFF 		bl	uartPrintf
 1569              	.LVL194:
 173:midiPlayer.c  ****         if (memcmp(mthdStr, type, sizeof(midiPlayer.fileHeader.chunkHeader.type)))
 1570              		.loc 1 173 0
 1571 0062 7168     		ldr	r1, [r6, #4]
 1572 0064 4148     		ldr	r0, .L117+12
 1573 0066 FFF7FEFF 		bl	uartPrintf
 1574              	.LVL195:
 174:midiPlayer.c  ****         {
 1575              		.loc 1 174 0
 1576 006a 0422     		movs	r2, #4
 1577 006c 02A9     		add	r1, sp, #8
 1578 006e 4048     		ldr	r0, .L117+16
 1579 0070 2030     		adds	r0, r0, #32
 1580 0072 FFF7FEFF 		bl	memcmp
 1581              	.LVL196:
 1582 0076 0028     		cmp	r0, #0
 1583 0078 04D0     		beq	.L110
 176:midiPlayer.c  ****             break;
 1584              		.loc 1 176 0
 1585 007a 3E48     		ldr	r0, .L117+20
 1586 007c FFF7FEFF 		bl	uartPrintf
 1587              	.LVL197:
 159:midiPlayer.c  ****     
 1588              		.loc 1 159 0
 1589 0080 0026     		movs	r6, #0
 177:midiPlayer.c  ****         }
 1590              		.loc 1 177 0
 1591 0082 60E0     		b	.L109
 1592              	.L110:
 180:midiPlayer.c  ****         {
 1593              		.loc 1 180 0
 1594 0084 364B     		ldr	r3, .L117
 1595 0086 5B68     		ldr	r3, [r3, #4]
 1596 0088 062B     		cmp	r3, #6
 1597 008a 04D0     		beq	.L111
 182:midiPlayer.c  ****             break;
 1598              		.loc 1 182 0
 1599 008c 3A48     		ldr	r0, .L117+24
 1600 008e FFF7FEFF 		bl	uartPrintf
 1601              	.LVL198:
 159:midiPlayer.c  ****     
 1602              		.loc 1 159 0
 1603 0092 0026     		movs	r6, #0
 183:midiPlayer.c  ****         }
ARM GAS  C:\Users\DMYTRO~1.FED\AppData\Local\Temp\ccc30aoz.s 			page 44


 1604              		.loc 1 183 0
 1605 0094 57E0     		b	.L109
 1606              	.L111:
 186:midiPlayer.c  ****         midiPlayer.fileHeader.data.tracks   = HTOS(midiPlayer.fileHeader.data.tracks);
 1607              		.loc 1 186 0
 1608 0096 324E     		ldr	r6, .L117
 1609 0098 3189     		ldrh	r1, [r6, #8]
 1610 009a 0B02     		lsls	r3, r1, #8
 1611 009c 090A     		lsrs	r1, r1, #8
 1612 009e 1943     		orrs	r1, r3
 1613 00a0 89B2     		uxth	r1, r1
 1614 00a2 3181     		strh	r1, [r6, #8]
 187:midiPlayer.c  ****         midiPlayer.fileHeader.data.division = HTOS(midiPlayer.fileHeader.data.division);
 1615              		.loc 1 187 0
 1616 00a4 7389     		ldrh	r3, [r6, #10]
 1617 00a6 1A02     		lsls	r2, r3, #8
 1618 00a8 1B0A     		lsrs	r3, r3, #8
 1619 00aa 1343     		orrs	r3, r2
 1620 00ac 7381     		strh	r3, [r6, #10]
 188:midiPlayer.c  ****         
 1621              		.loc 1 188 0
 1622 00ae B389     		ldrh	r3, [r6, #12]
 1623 00b0 1A02     		lsls	r2, r3, #8
 1624 00b2 1B0A     		lsrs	r3, r3, #8
 1625 00b4 1343     		orrs	r3, r2
 1626 00b6 B381     		strh	r3, [r6, #12]
 190:midiPlayer.c  ****         uartPrintf("MIDI: Tracks: %d\r\n", midiPlayer.fileHeader.data.tracks);
 1627              		.loc 1 190 0
 1628 00b8 3048     		ldr	r0, .L117+28
 1629 00ba FFF7FEFF 		bl	uartPrintf
 1630              	.LVL199:
 191:midiPlayer.c  ****         uartPrintf("MIDI: Division: %d\r\n", midiPlayer.fileHeader.data.division);
 1631              		.loc 1 191 0
 1632 00be 7189     		ldrh	r1, [r6, #10]
 1633 00c0 2F48     		ldr	r0, .L117+32
 1634 00c2 FFF7FEFF 		bl	uartPrintf
 1635              	.LVL200:
 192:midiPlayer.c  ****         if (0 != midiPlayer.fileHeader.data.format)
 1636              		.loc 1 192 0
 1637 00c6 B189     		ldrh	r1, [r6, #12]
 1638 00c8 2E48     		ldr	r0, .L117+36
 1639 00ca FFF7FEFF 		bl	uartPrintf
 1640              	.LVL201:
 193:midiPlayer.c  ****         {
 1641              		.loc 1 193 0
 1642 00ce 3389     		ldrh	r3, [r6, #8]
 1643 00d0 002B     		cmp	r3, #0
 1644 00d2 04D0     		beq	.L112
 195:midiPlayer.c  ****             break;
 1645              		.loc 1 195 0
 1646 00d4 2C48     		ldr	r0, .L117+40
 1647 00d6 FFF7FEFF 		bl	uartPrintf
 1648              	.LVL202:
 159:midiPlayer.c  ****     
 1649              		.loc 1 159 0
 1650 00da 0026     		movs	r6, #0
 196:midiPlayer.c  ****         }
ARM GAS  C:\Users\DMYTRO~1.FED\AppData\Local\Temp\ccc30aoz.s 			page 45


 1651              		.loc 1 196 0
 1652 00dc 33E0     		b	.L109
 1653              	.L112:
 199:midiPlayer.c  ****         {
 1654              		.loc 1 199 0
 1655 00de 204B     		ldr	r3, .L117
 1656 00e0 0C22     		movs	r2, #12
 1657 00e2 9B5E     		ldrsh	r3, [r3, r2]
 1658 00e4 002B     		cmp	r3, #0
 1659 00e6 04DA     		bge	.L113
 201:midiPlayer.c  ****             break;
 1660              		.loc 1 201 0
 1661 00e8 2848     		ldr	r0, .L117+44
 1662 00ea FFF7FEFF 		bl	uartPrintf
 1663              	.LVL203:
 159:midiPlayer.c  ****     
 1664              		.loc 1 159 0
 1665 00ee 0026     		movs	r6, #0
 202:midiPlayer.c  ****         } else
 1666              		.loc 1 202 0
 1667 00f0 29E0     		b	.L109
 1668              	.L113:
 205:midiPlayer.c  ****         }
 1669              		.loc 1 205 0
 1670 00f2 2748     		ldr	r0, .L117+48
 1671 00f4 FFF7FEFF 		bl	uartPrintf
 1672              	.LVL204:
 209:midiPlayer.c  ****         {
 1673              		.loc 1 209 0
 1674 00f8 1948     		ldr	r0, .L117
 1675 00fa 0E30     		adds	r0, r0, #14
 1676 00fc FFF7FEFF 		bl	midiPlayer_ReadChunkHeader
 1677              	.LVL205:
 1678 0100 0028     		cmp	r0, #0
 1679 0102 1FD0     		beq	.L116
 1680              	.LVL206:
 216:midiPlayer.c  ****         midiPlayer.isEnd   = false;
 1681              		.loc 1 216 0
 1682 0104 164E     		ldr	r6, .L117
 1683 0106 0122     		movs	r2, #1
 1684 0108 6E23     		movs	r3, #110
 1685 010a F254     		strb	r2, [r6, r3]
 217:midiPlayer.c  ****         midiPlayer.isError = false;
 1686              		.loc 1 217 0
 1687 010c 0023     		movs	r3, #0
 1688 010e 6C32     		adds	r2, r2, #108
 1689 0110 B354     		strb	r3, [r6, r2]
 218:midiPlayer.c  ****         midiPlayer.nextEvent.wait    = 0;
 1690              		.loc 1 218 0
 1691 0112 013A     		subs	r2, r2, #1
 1692 0114 B354     		strb	r3, [r6, r2]
 219:midiPlayer.c  ****         midiPlayer.maxChan = 0;
 1693              		.loc 1 219 0
 1694 0116 7366     		str	r3, [r6, #100]
 220:midiPlayer.c  ****         memset(midiPlayer.chanState, 0x00, sizeof(midiPlayer.chanState));
 1695              		.loc 1 220 0
 1696 0118 0332     		adds	r2, r2, #3
ARM GAS  C:\Users\DMYTRO~1.FED\AppData\Local\Temp\ccc30aoz.s 			page 46


 1697 011a B354     		strb	r3, [r6, r2]
 221:midiPlayer.c  ****         midiPlayer.tempo   =  DEFAULT_TEMPO_MS;
 1698              		.loc 1 221 0
 1699 011c 3000     		movs	r0, r6
 1700 011e 2030     		adds	r0, r0, #32
 1701 0120 2F3A     		subs	r2, r2, #47
 1702 0122 0021     		movs	r1, #0
 1703 0124 FFF7FEFF 		bl	memset
 1704              	.LVL207:
 222:midiPlayer.c  ****         midiPlayer.samplePerQuarter = midiPlayer_GetCalcVal();
 1705              		.loc 1 222 0
 1706 0128 FA23     		movs	r3, #250
 1707 012a 5B00     		lsls	r3, r3, #1
 1708 012c B361     		str	r3, [r6, #24]
 223:midiPlayer.c  ****         audio_SetSampleRate(AUDIO_SAMPLE_RATE_32K);
 1709              		.loc 1 223 0
 1710 012e FFF7FEFF 		bl	midiPlayer_GetCalcVal
 1711              	.LVL208:
 1712 0132 F061     		str	r0, [r6, #28]
 224:midiPlayer.c  ****         player_Init(&playerCb);  
 1713              		.loc 1 224 0
 1714 0134 0320     		movs	r0, #3
 1715 0136 FFF7FEFF 		bl	audio_SetSampleRate
 1716              	.LVL209:
 225:midiPlayer.c  ****         
 1717              		.loc 1 225 0
 1718 013a 1648     		ldr	r0, .L117+52
 1719 013c FFF7FEFF 		bl	player_Init
 1720              	.LVL210:
 214:midiPlayer.c  ****         
 1721              		.loc 1 214 0
 1722 0140 0126     		movs	r6, #1
 1723 0142 00E0     		b	.L109
 1724              	.LVL211:
 1725              	.L116:
 159:midiPlayer.c  ****     
 1726              		.loc 1 159 0
 1727 0144 0026     		movs	r6, #0
 1728              	.LVL212:
 1729              	.L109:
 229:midiPlayer.c  ****     {
 1730              		.loc 1 229 0
 1731 0146 002D     		cmp	r5, #0
 1732 0148 02D0     		beq	.L114
 231:midiPlayer.c  ****     }
 1733              		.loc 1 231 0
 1734 014a 2000     		movs	r0, r4
 1735 014c FFF7FEFF 		bl	cardErrorPrint
 1736              	.LVL213:
 1737              	.L114:
 234:midiPlayer.c  ****     {
 1738              		.loc 1 234 0
 1739 0150 002E     		cmp	r6, #0
 1740 0152 01D1     		bne	.L115
 236:midiPlayer.c  ****     }
 1741              		.loc 1 236 0
 1742 0154 FFF7FEFF 		bl	midiPlayer_Close
ARM GAS  C:\Users\DMYTRO~1.FED\AppData\Local\Temp\ccc30aoz.s 			page 47


 1743              	.LVL214:
 1744              	.L115:
 240:midiPlayer.c  **** 
 1745              		.loc 1 240 0
 1746 0158 3000     		movs	r0, r6
 1747 015a 05B0     		add	sp, sp, #20
 1748              		@ sp needed
 1749              	.LVL215:
 1750 015c F0BD     		pop	{r4, r5, r6, r7, pc}
 1751              	.L118:
 1752 015e C046     		.align	2
 1753              	.L117:
 1754 0160 00000000 		.word	.LANCHOR0
 1755 0164 D8020000 		.word	.LC60
 1756 0168 FC020000 		.word	.LC62
 1757 016c 14030000 		.word	.LC64
 1758 0170 00000000 		.word	.LANCHOR1
 1759 0174 2C030000 		.word	.LC67
 1760 0178 48030000 		.word	.LC69
 1761 017c 84030000 		.word	.LC71
 1762 0180 98030000 		.word	.LC73
 1763 0184 AC030000 		.word	.LC75
 1764 0188 C4030000 		.word	.LC77
 1765 018c F8030000 		.word	.LC79
 1766 0190 50040000 		.word	.LC81
 1767 0194 00000000 		.word	.LANCHOR2
 1768              		.cfi_endproc
 1769              	.LFE1:
 1770              		.size	midiPlayer_Init, .-midiPlayer_Init
 1771              		.section	.text.midiPlayer_OnEndCb,"ax",%progbits
 1772              		.align	2
 1773              		.code	16
 1774              		.thumb_func
 1775              		.type	midiPlayer_OnEndCb, %function
 1776              	midiPlayer_OnEndCb:
 1777              	.LFB18:
 684:midiPlayer.c  **** 
 685:midiPlayer.c  **** static void midiPlayer_OnEndCb(void)
 686:midiPlayer.c  **** {
 1778              		.loc 1 686 0
 1779              		.cfi_startproc
 1780              		@ args = 0, pretend = 0, frame = 0
 1781              		@ frame_needed = 0, uses_anonymous_args = 0
 1782 0000 10B5     		push	{r4, lr}
 1783              		.cfi_def_cfa_offset 8
 1784              		.cfi_offset 4, -8
 1785              		.cfi_offset 14, -4
 687:midiPlayer.c  ****     uartPrintf("MIDI: On end\r\n");
 1786              		.loc 1 687 0
 1787 0002 0348     		ldr	r0, .L120
 1788 0004 FFF7FEFF 		bl	uartPrintf
 1789              	.LVL216:
 688:midiPlayer.c  ****     midiPlayer_Close();
 1790              		.loc 1 688 0
 1791 0008 FFF7FEFF 		bl	midiPlayer_Close
 1792              	.LVL217:
 689:midiPlayer.c  **** }...
ARM GAS  C:\Users\DMYTRO~1.FED\AppData\Local\Temp\ccc30aoz.s 			page 48


 1793              		.loc 1 689 0
 1794              		@ sp needed
 1795 000c 10BD     		pop	{r4, pc}
 1796              	.L121:
 1797 000e C046     		.align	2
 1798              	.L120:
 1799 0010 98040000 		.word	.LC86
 1800              		.cfi_endproc
 1801              	.LFE18:
 1802              		.size	midiPlayer_OnEndCb, .-midiPlayer_OnEndCb
 1803              		.section	.text.midiPlayer_Play,"ax",%progbits
 1804              		.align	2
 1805              		.global	midiPlayer_Play
 1806              		.code	16
 1807              		.thumb_func
 1808              		.type	midiPlayer_Play, %function
 1809              	midiPlayer_Play:
 1810              	.LFB0:
 125:midiPlayer.c  **** {
 1811              		.loc 1 125 0
 1812              		.cfi_startproc
 1813              		@ args = 0, pretend = 0, frame = 0
 1814              		@ frame_needed = 0, uses_anonymous_args = 0
 1815              	.LVL218:
 1816 0000 10B5     		push	{r4, lr}
 1817              		.cfi_def_cfa_offset 8
 1818              		.cfi_offset 4, -8
 1819              		.cfi_offset 14, -4
 1820 0002 0400     		movs	r4, r0
 1821              	.LVL219:
 129:midiPlayer.c  ****     uartPrintf("MIDI: Play %s\r\n", fname);
 1822              		.loc 1 129 0
 1823 0004 0100     		movs	r1, r0
 1824 0006 1248     		ldr	r0, .L127
 1825              	.LVL220:
 1826 0008 FFF7FEFF 		bl	uartPrintf
 1827              	.LVL221:
 130:midiPlayer.c  ****     if (midiPlayer.isOpen)
 1828              		.loc 1 130 0
 1829 000c 6E23     		movs	r3, #110
 1830 000e 114A     		ldr	r2, .L127+4
 1831 0010 D35C     		ldrb	r3, [r2, r3]
 1832 0012 002B     		cmp	r3, #0
 1833 0014 01D0     		beq	.L123
 132:midiPlayer.c  ****         player_Stop();
 1834              		.loc 1 132 0
 1835 0016 FFF7FEFF 		bl	player_Stop
 1836              	.LVL222:
 1837              	.L123:
 135:midiPlayer.c  ****     resultF = f_open(&midiPlayer.fp, fname, FA_READ);
 1838              		.loc 1 135 0
 1839 001a 0122     		movs	r2, #1
 1840 001c 2100     		movs	r1, r4
 1841 001e 0D48     		ldr	r0, .L127+4
 1842 0020 7030     		adds	r0, r0, #112
 1843 0022 FFF7FEFF 		bl	f_open
 1844              	.LVL223:
ARM GAS  C:\Users\DMYTRO~1.FED\AppData\Local\Temp\ccc30aoz.s 			page 49


 1845 0026 041E     		subs	r4, r0, #0
 1846              	.LVL224:
 136:midiPlayer.c  ****     if (RES_OK != resultF)
 1847              		.loc 1 136 0
 1848 0028 08D0     		beq	.L124
 138:midiPlayer.c  ****         uartPrintf("MIDI: Failed at open %d\r\n", resultF);
 1849              		.loc 1 138 0
 1850 002a 0100     		movs	r1, r0
 1851 002c 0A48     		ldr	r0, .L127+8
 1852              	.LVL225:
 1853 002e FFF7FEFF 		bl	uartPrintf
 1854              	.LVL226:
 139:midiPlayer.c  ****         cardErrorPrint(resultF);
 1855              		.loc 1 139 0
 1856 0032 2000     		movs	r0, r4
 1857 0034 FFF7FEFF 		bl	cardErrorPrint
 1858              	.LVL227:
 127:midiPlayer.c  ****     bool    result = false;
 1859              		.loc 1 127 0
 1860 0038 0024     		movs	r4, #0
 1861 003a 02E0     		b	.L125
 1862              	.LVL228:
 1863              	.L124:
 142:midiPlayer.c  ****         result = midiPlayer_Init();         
 1864              		.loc 1 142 0
 1865 003c FFF7FEFF 		bl	midiPlayer_Init
 1866              	.LVL229:
 1867 0040 0400     		movs	r4, r0
 1868              	.LVL230:
 1869              	.L125:
 145:midiPlayer.c  ****     if (result)
 1870              		.loc 1 145 0
 1871 0042 002C     		cmp	r4, #0
 1872 0044 01D0     		beq	.L126
 147:midiPlayer.c  ****        player_Play();
 1873              		.loc 1 147 0
 1874 0046 FFF7FEFF 		bl	player_Play
 1875              	.LVL231:
 1876              	.L126:
 151:midiPlayer.c  **** }
 1877              		.loc 1 151 0
 1878 004a 2000     		movs	r0, r4
 1879              		@ sp needed
 1880              	.LVL232:
 1881 004c 10BD     		pop	{r4, pc}
 1882              	.L128:
 1883 004e C046     		.align	2
 1884              	.L127:
 1885 0050 A8040000 		.word	.LC88
 1886 0054 00000000 		.word	.LANCHOR0
 1887 0058 B8040000 		.word	.LC91
 1888              		.cfi_endproc
 1889              	.LFE0:
 1890              		.size	midiPlayer_Play, .-midiPlayer_Play
 1891              		.section	.rodata
 1892              		.align	2
 1893              		.set	.LANCHOR1,. + 0
ARM GAS  C:\Users\DMYTRO~1.FED\AppData\Local\Temp\ccc30aoz.s 			page 50


 1894              		.type	s_noteFreqEx32k, %object
 1895              		.size	s_noteFreqEx32k, 24
 1896              	s_noteFreqEx32k:
 1897 0000 6F7E     		.short	32367
 1898 0002 5777     		.short	30551
 1899 0004 A370     		.short	28835
 1900 0006 516A     		.short	27217
 1901 0008 5A64     		.short	25690
 1902 000a B85E     		.short	24248
 1903 000c 6759     		.short	22887
 1904 000e 6254     		.short	21602
 1905 0010 A54F     		.short	20389
 1906 0012 2E4B     		.short	19246
 1907 0014 F546     		.short	18165
 1908 0016 F942     		.short	17145
 1909              		.type	mtrkStr, %object
 1910              		.size	mtrkStr, 5
 1911              	mtrkStr:
 1912 0018 4D54726B 		.ascii	"MTrk\000"
 1912      00
 1913 001d 000000   		.space	3
 1914              		.type	mthdStr, %object
 1915              		.size	mthdStr, 5
 1916              	mthdStr:
 1917 0020 4D546864 		.ascii	"MThd\000"
 1917      00
 1918              		.data
 1919              		.align	2
 1920              		.set	.LANCHOR2,. + 0
 1921              		.type	playerCb, %object
 1922              		.size	playerCb, 8
 1923              	playerCb:
 1924 0000 00000000 		.word	midiPlayer_LoadNextCb
 1925 0004 00000000 		.word	midiPlayer_OnEndCb
 1926              		.section	.rodata.str1.4,"aMS",%progbits,1
 1927              		.align	2
 1928              	.LC6:
 1929 0000 4D494449 		.ascii	"MIDI: Samples per quarter %d\015\012\000"
 1929      3A205361 
 1929      6D706C65 
 1929      73207065 
 1929      72207175 
 1930 001f 00       		.space	1
 1931              	.LC9:
 1932 0020 4D494449 		.ascii	"MIDI: Failed at reading file %d\015\012\000"
 1932      3A204661 
 1932      696C6564 
 1932      20617420 
 1932      72656164 
 1933 0042 0000     		.space	2
 1934              	.LC11:
 1935 0044 4D494449 		.ascii	"MIDI: Failed at reading file(length) %d\015\012\000"
 1935      3A204661 
 1935      696C6564 
 1935      20617420 
 1935      72656164 
 1936 006e 0000     		.space	2
ARM GAS  C:\Users\DMYTRO~1.FED\AppData\Local\Temp\ccc30aoz.s 			page 51


 1937              	.LC13:
 1938 0070 4D494449 		.ascii	"MIDI: Failed to obtain delta time\015\012\000"
 1938      3A204661 
 1938      696C6564 
 1938      20746F20 
 1938      6F627461 
 1939              	.LC15:
 1940 0094 4D494449 		.ascii	"MIDI: Failed to obtain event id\015\012\000"
 1940      3A204661 
 1940      696C6564 
 1940      20746F20 
 1940      6F627461 
 1941 00b6 0000     		.space	2
 1942              	.LC18:
 1943 00b8 4D494449 		.ascii	"MIDI: Set tempo: %d\015\012\000"
 1943      3A205365 
 1943      74207465 
 1943      6D706F3A 
 1943      2025640D 
 1944 00ce 0000     		.space	2
 1945              	.LC20:
 1946 00d0 4D494449 		.ascii	"MIDI: End of track\015\012\000"
 1946      3A20456E 
 1946      64206F66 
 1946      20747261 
 1946      636B0D0A 
 1947 00e5 000000   		.space	3
 1948              	.LC22:
 1949 00e8 4D494449 		.ascii	"MIDI: Unknown midi meta event %X\015\012\000"
 1949      3A20556E 
 1949      6B6E6F77 
 1949      6E206D69 
 1949      6469206D 
 1950 010b 00       		.space	1
 1951              	.LC25:
 1952 010c 4D494449 		.ascii	"MIDI: Aftertouch event %X\015\012\000"
 1952      3A204166 
 1952      74657274 
 1952      6F756368 
 1952      20657665 
 1953              	.LC27:
 1954 0128 4D494449 		.ascii	"MIDI: Controller event %X\015\012\000"
 1954      3A20436F 
 1954      6E74726F 
 1954      6C6C6572 
 1954      20657665 
 1955              	.LC29:
 1956 0144 4D494449 		.ascii	"MIDI: Program change event %X\015\012\000"
 1956      3A205072 
 1956      6F677261 
 1956      6D206368 
 1956      616E6765 
 1957              	.LC31:
 1958 0164 4D494449 		.ascii	"MIDI: Channel aftertouch event %X\015\012\000"
 1958      3A204368 
 1958      616E6E65 
 1958      6C206166 
ARM GAS  C:\Users\DMYTRO~1.FED\AppData\Local\Temp\ccc30aoz.s 			page 52


 1958      74657274 
 1959              	.LC33:
 1960 0188 4D494449 		.ascii	"MIDI: Unknown event %X\015\012\000"
 1960      3A20556E 
 1960      6B6E6F77 
 1960      6E206576 
 1960      656E7420 
 1961 01a1 000000   		.space	3
 1962              	.LC37:
 1963 01a4 4D494449 		.ascii	"MIDI: Error or stop\015\012\000"
 1963      3A204572 
 1963      726F7220 
 1963      6F722073 
 1963      746F700D 
 1964 01ba 0000     		.space	2
 1965              	.LC39:
 1966 01bc 4D494449 		.ascii	"MIDI: Error\015\012\000"
 1966      3A204572 
 1966      726F720D 
 1966      0A00
 1967 01ca 0000     		.space	2
 1968              	.LC42:
 1969 01cc 4D494449 		.ascii	"MIDI: Failed at reading track header %d\015\012\000"
 1969      3A204661 
 1969      696C6564 
 1969      20617420 
 1969      72656164 
 1970 01f6 0000     		.space	2
 1971              	.LC44:
 1972 01f8 4D494449 		.ascii	"MIDI: Failed at reading track header(length) L: %d\015"
 1972      3A204661 
 1972      696C6564 
 1972      20617420 
 1972      72656164 
 1973 022b 0A00     		.ascii	"\012\000"
 1974 022d 000000   		.space	3
 1975              	.LC47:
 1976 0230 4D494449 		.ascii	"MIDI: Failed at checking tracker header type (not M"
 1976      3A204661 
 1976      696C6564 
 1976      20617420 
 1976      63686563 
 1977 0263 54726B29 		.ascii	"Trk)\015\012\000"
 1977      0D0A00
 1978 026a 0000     		.space	2
 1979              	.LC49:
 1980 026c 4D494449 		.ascii	"MIDI: Track size: %d\015\012\000"
 1980      3A205472 
 1980      61636B20 
 1980      73697A65 
 1980      3A202564 
 1981 0283 00       		.space	1
 1982              	.LC52:
 1983 0284 4D494449 		.ascii	"MIDI: Closing file\015\012\000"
 1983      3A20436C 
 1983      6F73696E 
 1983      67206669 
ARM GAS  C:\Users\DMYTRO~1.FED\AppData\Local\Temp\ccc30aoz.s 			page 53


 1983      6C650D0A 
 1984 0299 000000   		.space	3
 1985              	.LC54:
 1986 029c 6D696469 		.ascii	"midiPlayer.c\000"
 1986      506C6179 
 1986      65722E63 
 1986      00
 1987 02a9 000000   		.space	3
 1988              	.LC56:
 1989 02ac 52756E74 		.ascii	"RuntimeError: Assert in file: %s line: %d\015\012\000"
 1989      696D6545 
 1989      72726F72 
 1989      3A204173 
 1989      73657274 
 1990              	.LC60:
 1991 02d8 4D494449 		.ascii	"MIDI: Failed at reading header\015\012\000"
 1991      3A204661 
 1991      696C6564 
 1991      20617420 
 1991      72656164 
 1992 02f9 000000   		.space	3
 1993              	.LC62:
 1994 02fc 4D494449 		.ascii	"MIDI: 0 chunk type %s\015\012\000"
 1994      3A203020 
 1994      6368756E 
 1994      6B207479 
 1994      70652025 
 1995              	.LC64:
 1996 0314 4D494449 		.ascii	"MIDI: 0 chunk size %d\015\012\000"
 1996      3A203020 
 1996      6368756E 
 1996      6B207369 
 1996      7A652025 
 1997              	.LC67:
 1998 032c 4D494449 		.ascii	"MIDI: Wrong chunk type\015\012\000"
 1998      3A205772 
 1998      6F6E6720 
 1998      6368756E 
 1998      6B207479 
 1999 0345 000000   		.space	3
 2000              	.LC69:
 2001 0348 4D494449 		.ascii	"MIDI: Size of 0-chunk should be 6 according to stan"
 2001      3A205369 
 2001      7A65206F 
 2001      6620302D 
 2001      6368756E 
 2002 037b 64617264 		.ascii	"dard\015\012\000"
 2002      0D0A00
 2003 0382 0000     		.space	2
 2004              	.LC71:
 2005 0384 4D494449 		.ascii	"MIDI: Format: %d\015\012\000"
 2005      3A20466F 
 2005      726D6174 
 2005      3A202564 
 2005      0D0A00
 2006 0397 00       		.space	1
 2007              	.LC73:
ARM GAS  C:\Users\DMYTRO~1.FED\AppData\Local\Temp\ccc30aoz.s 			page 54


 2008 0398 4D494449 		.ascii	"MIDI: Tracks: %d\015\012\000"
 2008      3A205472 
 2008      61636B73 
 2008      3A202564 
 2008      0D0A00
 2009 03ab 00       		.space	1
 2010              	.LC75:
 2011 03ac 4D494449 		.ascii	"MIDI: Division: %d\015\012\000"
 2011      3A204469 
 2011      76697369 
 2011      6F6E3A20 
 2011      25640D0A 
 2012 03c1 000000   		.space	3
 2013              	.LC77:
 2014 03c4 4D494449 		.ascii	"MIDI: Only format 0 currently supported. Sorry\015\012"
 2014      3A204F6E 
 2014      6C792066 
 2014      6F726D61 
 2014      74203020 
 2015 03f4 00       		.ascii	"\000"
 2016 03f5 000000   		.space	3
 2017              	.LC79:
 2018 03f8 4D494449 		.ascii	"MIDI: Time format: number of delta-time units per S"
 2018      3A205469 
 2018      6D652066 
 2018      6F726D61 
 2018      743A206E 
 2019 042b 4D545045 		.ascii	"MTPE frame. Not supported. Sorry\015\012\000"
 2019      20667261 
 2019      6D652E20 
 2019      4E6F7420 
 2019      73757070 
 2020 044e 0000     		.space	2
 2021              	.LC81:
 2022 0450 4D494449 		.ascii	"MIDI: Time format: number of delta-time units in ea"
 2022      3A205469 
 2022      6D652066 
 2022      6F726D61 
 2022      743A206E 
 2023 0483 63682061 		.ascii	"ch a quarter-note\015\012\000"
 2023      20717561 
 2023      72746572 
 2023      2D6E6F74 
 2023      650D0A00 
 2024 0497 00       		.space	1
 2025              	.LC86:
 2026 0498 4D494449 		.ascii	"MIDI: On end\015\012\000"
 2026      3A204F6E 
 2026      20656E64 
 2026      0D0A00
 2027 04a7 00       		.space	1
 2028              	.LC88:
 2029 04a8 4D494449 		.ascii	"MIDI: Play %s\015\012\000"
 2029      3A20506C 
 2029      61792025 
 2029      730D0A00 
 2030              	.LC91:
ARM GAS  C:\Users\DMYTRO~1.FED\AppData\Local\Temp\ccc30aoz.s 			page 55


 2031 04b8 4D494449 		.ascii	"MIDI: Failed at open %d\015\012\000"
 2031      3A204661 
 2031      696C6564 
 2031      20617420 
 2031      6F70656E 
 2032              		.bss
 2033              		.align	2
 2034              		.set	.LANCHOR0,. + 0
 2035              		.type	midiPlayer, %object
 2036              		.size	midiPlayer, 664
 2037              	midiPlayer:
 2038 0000 00000000 		.space	664
 2038      00000000 
 2038      00000000 
 2038      00000000 
 2038      00000000 
 2039              		.text
 2040              	.Letext0:
 2041              		.file 2 "c:\\program files (x86)\\cypress\\psoc creator\\4.2\\psoc creator\\import\\gnu\\arm\\5.4.
 2042              		.file 3 "c:\\program files (x86)\\cypress\\psoc creator\\4.2\\psoc creator\\import\\gnu\\arm\\5.4.
 2043              		.file 4 "buffer.h"
 2044              		.file 5 "player.h"
 2045              		.file 6 "fatfs\\integer.h"
 2046              		.file 7 "audio.h"
 2047              		.file 8 "fatfs\\diskio.h"
 2048              		.file 9 "fatfs\\ff.h"
 2049              		.file 10 "uartPrint.h"
 2050              		.file 11 "card.h"
 2051              		.file 12 "c:\\program files (x86)\\cypress\\psoc creator\\4.2\\psoc creator\\import\\gnu\\arm\\5.4