ARM GAS  C:\Users\DMYTRO~1.FED\AppData\Local\Temp\ccOkeSjq.s 			page 1


   1              		.syntax unified
   2              		.cpu cortex-m0plus
   3              		.fpu softvfp
   4              		.eabi_attribute 20, 1
   5              		.eabi_attribute 21, 1
   6              		.eabi_attribute 23, 3
   7              		.eabi_attribute 24, 1
   8              		.eabi_attribute 25, 1
   9              		.eabi_attribute 26, 1
  10              		.eabi_attribute 30, 1
  11              		.eabi_attribute 34, 0
  12              		.eabi_attribute 18, 4
  13              		.thumb
  14              		.syntax unified
  15              		.file	"pcmPlayer.c"
  16              		.text
  17              	.Ltext0:
  18              		.cfi_sections	.debug_frame
  19              		.section	.text.pcmPlayerCheckSampleRate,"ax",%progbits
  20              		.align	2
  21              		.code	16
  22              		.thumb_func
  23              		.type	pcmPlayerCheckSampleRate, %function
  24              	pcmPlayerCheckSampleRate:
  25              	.LFB4:
  26              		.file 1 "pcmPlayer.c"
   1:pcmPlayer.c   **** /** @file
   2:pcmPlayer.c   ****  *  @brief Source file for WAV/PCM player
   3:pcmPlayer.c   ****  */ 
   4:pcmPlayer.c   **** #include <stdint.h>
   5:pcmPlayer.c   **** #include <stdlib.h>
   6:pcmPlayer.c   **** #include <string.h>
   7:pcmPlayer.c   **** #include "player.h"
   8:pcmPlayer.c   **** #include "pcmPlayer.h"
   9:pcmPlayer.c   **** #include "card.h"
  10:pcmPlayer.c   **** #include "uartPrint.h"
  11:pcmPlayer.c   **** #include "assert.h"
  12:pcmPlayer.c   **** 
  13:pcmPlayer.c   **** #define AUDIO_FORMAT_PCM 1U
  14:pcmPlayer.c   **** 
  15:pcmPlayer.c   **** /** Canonical WAV header */
  16:pcmPlayer.c   **** typedef struct
  17:pcmPlayer.c   **** {
  18:pcmPlayer.c   ****     uint8_t   chunkId[4];
  19:pcmPlayer.c   ****     uint32_t  chunkSize;
  20:pcmPlayer.c   ****     uint8_t   format[4];
  21:pcmPlayer.c   ****     uint8_t   subchunk1Id[4];
  22:pcmPlayer.c   ****     uint32_t  subchunk1Size;
  23:pcmPlayer.c   ****     uint16_t  audioFormat;
  24:pcmPlayer.c   ****     uint16_t  channels;
  25:pcmPlayer.c   ****     uint32_t  sampleRate;
  26:pcmPlayer.c   ****     uint32_t  byteRate;
  27:pcmPlayer.c   ****     uint16_t  blockAlign;
  28:pcmPlayer.c   ****     uint16_t  bitsPerSample;
  29:pcmPlayer.c   ****     uint8_t   subchunk2Id[4];
  30:pcmPlayer.c   ****     uint32_t  subchunk2Size;
  31:pcmPlayer.c   **** } __attribute__ ((packed))  pcmPlayer_WAVHdr_t;
ARM GAS  C:\Users\DMYTRO~1.FED\AppData\Local\Temp\ccOkeSjq.s 			page 2


  32:pcmPlayer.c   **** 
  33:pcmPlayer.c   **** const char riffStr[] = "RIFF";
  34:pcmPlayer.c   **** const char waveStr[] = "WAVE";
  35:pcmPlayer.c   **** const char fmtStr[]  = "fmt "; 
  36:pcmPlayer.c   **** const char dataStr[] = "data";
  37:pcmPlayer.c   **** 
  38:pcmPlayer.c   **** static bool pcmPlayerPlayInt(const char *fname, bool isWav);
  39:pcmPlayer.c   **** static void pcmPlayerLoadNextCb(uint8_t *buffer, uint32_t maxSize, uint32_t *obtainedSize);
  40:pcmPlayer.c   **** static void pcmPlayerOnEnd(void);
  41:pcmPlayer.c   **** static bool pcmPlayerCheckHeader(void);
  42:pcmPlayer.c   **** static bool pcmPlayerCheckSampleRate(pcmPlayer_WAVHdr_t *hdr);
  43:pcmPlayer.c   **** static bool pcmPlayerSetSampleRate(uint32_t sampleRate);
  44:pcmPlayer.c   **** static void pcmPlayerContinue(void);
  45:pcmPlayer.c   **** 
  46:pcmPlayer.c   **** static FIL fp;
  47:pcmPlayer.c   **** static bool isOpen = false;
  48:pcmPlayer.c   **** static bool needStop = false;
  49:pcmPlayer.c   **** static bool fileWav = false;
  50:pcmPlayer.c   **** static uint32_t sampleRate = 0;
  51:pcmPlayer.c   **** 
  52:pcmPlayer.c   **** static playerCbs_t playerCb = {.onDataRead = pcmPlayerLoadNextCb, .onStop = pcmPlayerOnEnd};
  53:pcmPlayer.c   **** 
  54:pcmPlayer.c   **** bool pcmPlayerPlayWav(const char *fname)
  55:pcmPlayer.c   **** {    
  56:pcmPlayer.c   ****     return pcmPlayerPlayInt(fname, true);
  57:pcmPlayer.c   **** }
  58:pcmPlayer.c   **** 
  59:pcmPlayer.c   **** bool pcmPlayerPlay(const char *fname)
  60:pcmPlayer.c   **** {
  61:pcmPlayer.c   ****     return pcmPlayerPlayInt(fname, false);
  62:pcmPlayer.c   **** }
  63:pcmPlayer.c   **** 
  64:pcmPlayer.c   **** static void pcmPlayerContinue(void)
  65:pcmPlayer.c   **** {
  66:pcmPlayer.c   ****     uartPrintf("PCM: Play\\Continue\r\n");
  67:pcmPlayer.c   ****     if (isOpen)
  68:pcmPlayer.c   ****     {
  69:pcmPlayer.c   ****         player_Play();
  70:pcmPlayer.c   ****     } else
  71:pcmPlayer.c   ****     {
  72:pcmPlayer.c   ****         uartPrintf("PCM: Continue - not open\r\n");
  73:pcmPlayer.c   ****     }
  74:pcmPlayer.c   **** }
  75:pcmPlayer.c   **** 
  76:pcmPlayer.c   **** static bool pcmPlayerSetSampleRate(uint32_t sampleRate)
  77:pcmPlayer.c   **** {
  78:pcmPlayer.c   ****     bool res = false;
  79:pcmPlayer.c   ****     
  80:pcmPlayer.c   ****     switch (sampleRate)
  81:pcmPlayer.c   ****     {
  82:pcmPlayer.c   ****         case 4000:
  83:pcmPlayer.c   ****             res = audio_SetSampleRate(AUDIO_SAMPLE_RATE_4K);
  84:pcmPlayer.c   ****             break;
  85:pcmPlayer.c   ****             
  86:pcmPlayer.c   ****         case 8000:
  87:pcmPlayer.c   ****             res = audio_SetSampleRate(AUDIO_SAMPLE_RATE_8K);
  88:pcmPlayer.c   ****             break;
ARM GAS  C:\Users\DMYTRO~1.FED\AppData\Local\Temp\ccOkeSjq.s 			page 3


  89:pcmPlayer.c   ****             
  90:pcmPlayer.c   ****         case 16000:
  91:pcmPlayer.c   ****             res = audio_SetSampleRate(AUDIO_SAMPLE_RATE_16K);
  92:pcmPlayer.c   ****             break;
  93:pcmPlayer.c   ****             
  94:pcmPlayer.c   ****         case 32000:
  95:pcmPlayer.c   ****             res = audio_SetSampleRate(AUDIO_SAMPLE_RATE_32K);
  96:pcmPlayer.c   ****             break;
  97:pcmPlayer.c   ****             
  98:pcmPlayer.c   ****         case 64000:
  99:pcmPlayer.c   ****             res = audio_SetSampleRate(AUDIO_SAMPLE_RATE_64K);
 100:pcmPlayer.c   ****             break;
 101:pcmPlayer.c   ****     
 102:pcmPlayer.c   ****         default:
 103:pcmPlayer.c   ****             break;
 104:pcmPlayer.c   ****     }
 105:pcmPlayer.c   ****     
 106:pcmPlayer.c   ****     return res;
 107:pcmPlayer.c   **** }
 108:pcmPlayer.c   **** 
 109:pcmPlayer.c   **** static bool pcmPlayerCheckSampleRate(pcmPlayer_WAVHdr_t *hdr)
 110:pcmPlayer.c   **** {
  27              		.loc 1 110 0
  28              		.cfi_startproc
  29              		@ args = 0, pretend = 0, frame = 0
  30              		@ frame_needed = 0, uses_anonymous_args = 0
  31              	.LVL0:
  32 0000 10B5     		push	{r4, lr}
  33              		.cfi_def_cfa_offset 8
  34              		.cfi_offset 4, -8
  35              		.cfi_offset 14, -4
  36              	.LVL1:
 111:pcmPlayer.c   ****     bool res = false;
 112:pcmPlayer.c   ****     
 113:pcmPlayer.c   ****     switch (hdr->sampleRate)
  37              		.loc 1 113 0
  38 0002 047E     		ldrb	r4, [r0, #24]
  39 0004 427E     		ldrb	r2, [r0, #25]
  40 0006 1202     		lsls	r2, r2, #8
  41 0008 2243     		orrs	r2, r4
  42 000a 837E     		ldrb	r3, [r0, #26]
  43 000c 1B04     		lsls	r3, r3, #16
  44 000e 1343     		orrs	r3, r2
  45 0010 1A00     		movs	r2, r3
  46 0012 C37E     		ldrb	r3, [r0, #27]
  47 0014 1B06     		lsls	r3, r3, #24
  48 0016 1343     		orrs	r3, r2
  49 0018 FA22     		movs	r2, #250
  50 001a 9201     		lsls	r2, r2, #6
  51 001c 9342     		cmp	r3, r2
  52 001e 13D0     		beq	.L5
  53 0020 08D8     		bhi	.L4
  54 0022 FA22     		movs	r2, #250
  55 0024 1201     		lsls	r2, r2, #4
  56 0026 9342     		cmp	r3, r2
  57 0028 0ED0     		beq	.L5
  58 002a FA22     		movs	r2, #250
ARM GAS  C:\Users\DMYTRO~1.FED\AppData\Local\Temp\ccOkeSjq.s 			page 4


  59 002c 5201     		lsls	r2, r2, #5
  60 002e 9342     		cmp	r3, r2
  61 0030 08D1     		bne	.L2
  62 0032 09E0     		b	.L5
  63              	.L4:
  64 0034 FA22     		movs	r2, #250
  65 0036 D201     		lsls	r2, r2, #7
  66 0038 9342     		cmp	r3, r2
  67 003a 05D0     		beq	.L5
  68 003c FA22     		movs	r2, #250
  69 003e 1202     		lsls	r2, r2, #8
  70 0040 9342     		cmp	r3, r2
  71 0042 01D0     		beq	.L5
  72              	.L2:
 111:pcmPlayer.c   ****     bool res = false;
  73              		.loc 1 111 0
  74 0044 0020     		movs	r0, #0
  75              	.LVL2:
  76 0046 00E0     		b	.L3
  77              	.LVL3:
  78              	.L5:
 114:pcmPlayer.c   ****     {
 115:pcmPlayer.c   ****         case 4000:
 116:pcmPlayer.c   ****         case 8000:
 117:pcmPlayer.c   ****         case 16000:
 118:pcmPlayer.c   ****         case 32000:
 119:pcmPlayer.c   ****         case 64000:
 120:pcmPlayer.c   ****             res = true;
  79              		.loc 1 120 0
  80 0048 0120     		movs	r0, #1
  81              	.LVL4:
  82              	.L3:
 121:pcmPlayer.c   ****             break;
 122:pcmPlayer.c   ****     
 123:pcmPlayer.c   ****         default:
 124:pcmPlayer.c   ****             break;
 125:pcmPlayer.c   ****     }
 126:pcmPlayer.c   ****     
 127:pcmPlayer.c   ****     return res;
 128:pcmPlayer.c   **** }
  83              		.loc 1 128 0
  84              		@ sp needed
  85 004a 10BD     		pop	{r4, pc}
  86              		.cfi_endproc
  87              	.LFE4:
  88              		.size	pcmPlayerCheckSampleRate, .-pcmPlayerCheckSampleRate
  89              		.section	.text.pcmPlayerOnEnd,"ax",%progbits
  90              		.align	2
  91              		.code	16
  92              		.thumb_func
  93              		.type	pcmPlayerOnEnd, %function
  94              	pcmPlayerOnEnd:
  95              	.LFB7:
 129:pcmPlayer.c   **** 
 130:pcmPlayer.c   **** static bool pcmPlayerCheckHeader(void)
 131:pcmPlayer.c   **** {
 132:pcmPlayer.c   ****     pcmPlayer_WAVHdr_t header;
ARM GAS  C:\Users\DMYTRO~1.FED\AppData\Local\Temp\ccOkeSjq.s 			page 5


 133:pcmPlayer.c   ****     UINT    read;
 134:pcmPlayer.c   ****     uint8_t resultF = RES_OK;
 135:pcmPlayer.c   ****     bool    ret = false; 
 136:pcmPlayer.c   ****     
 137:pcmPlayer.c   ****     do
 138:pcmPlayer.c   ****     {
 139:pcmPlayer.c   ****         resultF = f_read(&fp, &header, sizeof(pcmPlayer_WAVHdr_t), &read);
 140:pcmPlayer.c   ****         if (RES_OK != resultF)
 141:pcmPlayer.c   ****         {
 142:pcmPlayer.c   ****             uartPrintf("PCM: Failed to read WAV header %d\r\n", resultF);
 143:pcmPlayer.c   ****             break;
 144:pcmPlayer.c   ****         }
 145:pcmPlayer.c   ****         
 146:pcmPlayer.c   ****         if (sizeof(pcmPlayer_WAVHdr_t) != read)
 147:pcmPlayer.c   ****         {
 148:pcmPlayer.c   ****             uartPrintf("PCM: Failed to read WAV header - incorrect length\r\n");
 149:pcmPlayer.c   ****             break;
 150:pcmPlayer.c   ****         }
 151:pcmPlayer.c   ****         
 152:pcmPlayer.c   ****         if (0 != memcmp(header.chunkId, riffStr, sizeof(header.chunkId)))
 153:pcmPlayer.c   ****         {
 154:pcmPlayer.c   ****             uartPrintf("PCM: Failed to read WAV header - wrong chunk id\r\n");
 155:pcmPlayer.c   ****             break;
 156:pcmPlayer.c   ****         }
 157:pcmPlayer.c   ****         
 158:pcmPlayer.c   ****         if (0 != memcmp(header.format, waveStr, sizeof(header.format)))
 159:pcmPlayer.c   ****         {
 160:pcmPlayer.c   ****             uartPrintf("PCM: Failed to read WAV header - wrong format id\r\n");
 161:pcmPlayer.c   ****             break;
 162:pcmPlayer.c   ****         }
 163:pcmPlayer.c   ****         
 164:pcmPlayer.c   ****         if (0 != memcmp(header.subchunk1Id, fmtStr, sizeof(header.subchunk1Id)))
 165:pcmPlayer.c   ****         {
 166:pcmPlayer.c   ****             uartPrintf("PCM: Failed to read WAV header - wrong subchunk1 id\r\n");
 167:pcmPlayer.c   ****             break;
 168:pcmPlayer.c   ****         }
 169:pcmPlayer.c   ****         
 170:pcmPlayer.c   ****         if (0 != memcmp(header.subchunk2Id, dataStr, sizeof(header.subchunk2Id)))
 171:pcmPlayer.c   ****         {
 172:pcmPlayer.c   ****             uartPrintf("PCM: Failed to read WAV header - wrong subchunk2 id\r\n");
 173:pcmPlayer.c   ****             break;
 174:pcmPlayer.c   ****         }
 175:pcmPlayer.c   ****         
 176:pcmPlayer.c   ****         if (AUDIO_FORMAT_PCM != header.audioFormat)
 177:pcmPlayer.c   ****         {
 178:pcmPlayer.c   ****             uartPrintf("PCM: Only uncompress pcm supported. Sorry\r\n");
 179:pcmPlayer.c   ****             break;
 180:pcmPlayer.c   ****         }
 181:pcmPlayer.c   ****         
 182:pcmPlayer.c   ****         if (!pcmPlayerCheckSampleRate(&header))
 183:pcmPlayer.c   ****         {
 184:pcmPlayer.c   ****             uartPrintf("PCM: Sample rate not supported\r\n");
 185:pcmPlayer.c   ****             break;
 186:pcmPlayer.c   ****         }
 187:pcmPlayer.c   ****         
 188:pcmPlayer.c   ****         if (1 < header.channels)
 189:pcmPlayer.c   ****         {
ARM GAS  C:\Users\DMYTRO~1.FED\AppData\Local\Temp\ccOkeSjq.s 			page 6


 190:pcmPlayer.c   ****             uartPrintf("PCM: Only 1 channel supported\r\n");
 191:pcmPlayer.c   ****             break;
 192:pcmPlayer.c   ****         }
 193:pcmPlayer.c   ****         
 194:pcmPlayer.c   ****         if (8 != header.bitsPerSample)
 195:pcmPlayer.c   ****         {
 196:pcmPlayer.c   ****             uartPrintf("PCM: Only 8 bit supported\r\n");
 197:pcmPlayer.c   ****             break;
 198:pcmPlayer.c   ****         }
 199:pcmPlayer.c   **** 
 200:pcmPlayer.c   ****         sampleRate = header.sampleRate;
 201:pcmPlayer.c   ****         ret = true;
 202:pcmPlayer.c   ****     } while(false);
 203:pcmPlayer.c   ****     
 204:pcmPlayer.c   ****     if (RES_OK != resultF)
 205:pcmPlayer.c   ****     {
 206:pcmPlayer.c   ****         cardErrorPrint(resultF);
 207:pcmPlayer.c   ****     }
 208:pcmPlayer.c   ****     
 209:pcmPlayer.c   ****     
 210:pcmPlayer.c   ****     return ret;
 211:pcmPlayer.c   **** }
 212:pcmPlayer.c   **** 
 213:pcmPlayer.c   **** static bool pcmPlayerPlayInt(const char *fname, bool isWav)
 214:pcmPlayer.c   **** {
 215:pcmPlayer.c   ****     uint8_t resultF = RES_OK;
 216:pcmPlayer.c   ****     bool result = false;
 217:pcmPlayer.c   ****     
 218:pcmPlayer.c   ****     uartPrintf("PCM: Play %s\r\n", fname);
 219:pcmPlayer.c   ****     if (isOpen)
 220:pcmPlayer.c   ****     {
 221:pcmPlayer.c   ****         player_Stop();
 222:pcmPlayer.c   ****     }
 223:pcmPlayer.c   ****     fileWav = false;
 224:pcmPlayer.c   ****     
 225:pcmPlayer.c   ****     do
 226:pcmPlayer.c   ****     {
 227:pcmPlayer.c   ****         resultF = f_open(&fp, fname, FA_READ);
 228:pcmPlayer.c   ****         if (RES_OK != resultF)
 229:pcmPlayer.c   ****         {
 230:pcmPlayer.c   ****             uartPrintf("PCM: Failed at open %d\r\n", resultF);
 231:pcmPlayer.c   ****             break;
 232:pcmPlayer.c   ****         }
 233:pcmPlayer.c   ****         
 234:pcmPlayer.c   ****         if (isWav)
 235:pcmPlayer.c   ****         {
 236:pcmPlayer.c   ****             if (!pcmPlayerCheckHeader())
 237:pcmPlayer.c   ****             {
 238:pcmPlayer.c   ****                 break;
 239:pcmPlayer.c   ****             }
 240:pcmPlayer.c   ****             
 241:pcmPlayer.c   ****             if (!pcmPlayerSetSampleRate(sampleRate))
 242:pcmPlayer.c   ****             {
 243:pcmPlayer.c   ****                break;
 244:pcmPlayer.c   ****             }
 245:pcmPlayer.c   ****             
 246:pcmPlayer.c   ****             fileWav = true;
ARM GAS  C:\Users\DMYTRO~1.FED\AppData\Local\Temp\ccOkeSjq.s 			page 7


 247:pcmPlayer.c   ****         }
 248:pcmPlayer.c   ****      
 249:pcmPlayer.c   ****         result = true;
 250:pcmPlayer.c   ****         isOpen = true;
 251:pcmPlayer.c   ****         player_Init(&playerCb);      
 252:pcmPlayer.c   ****         pcmPlayerContinue();
 253:pcmPlayer.c   ****     } while (false);
 254:pcmPlayer.c   ****     
 255:pcmPlayer.c   ****     if (RES_OK != resultF)
 256:pcmPlayer.c   ****     {
 257:pcmPlayer.c   ****         cardErrorPrint(resultF);
 258:pcmPlayer.c   ****     }
 259:pcmPlayer.c   ****     
 260:pcmPlayer.c   ****     return result;
 261:pcmPlayer.c   **** }
 262:pcmPlayer.c   **** 
 263:pcmPlayer.c   **** static void pcmPlayerOnEnd(void)
 264:pcmPlayer.c   **** {
  96              		.loc 1 264 0
  97              		.cfi_startproc
  98              		@ args = 0, pretend = 0, frame = 0
  99              		@ frame_needed = 0, uses_anonymous_args = 0
 100 0000 10B5     		push	{r4, lr}
 101              		.cfi_def_cfa_offset 8
 102              		.cfi_offset 4, -8
 103              		.cfi_offset 14, -4
 265:pcmPlayer.c   ****     uint8_t resultF;
 266:pcmPlayer.c   ****     
 267:pcmPlayer.c   ****     uartPrintf("PCM: End\r\n");
 104              		.loc 1 267 0
 105 0002 0B48     		ldr	r0, .L8
 106 0004 FFF7FEFF 		bl	uartPrintf
 107              	.LVL5:
 268:pcmPlayer.c   ****     uartPrintf("PCM: Stop and close the file\r\n");
 108              		.loc 1 268 0
 109 0008 0A48     		ldr	r0, .L8+4
 110 000a FFF7FEFF 		bl	uartPrintf
 111              	.LVL6:
 269:pcmPlayer.c   ****     needStop = false;
 112              		.loc 1 269 0
 113 000e 0A4B     		ldr	r3, .L8+8
 114 0010 0022     		movs	r2, #0
 115 0012 1A70     		strb	r2, [r3]
 270:pcmPlayer.c   ****     if (isOpen)
 116              		.loc 1 270 0
 117 0014 5B78     		ldrb	r3, [r3, #1]
 118 0016 002B     		cmp	r3, #0
 119 0018 09D0     		beq	.L6
 271:pcmPlayer.c   ****     {
 272:pcmPlayer.c   ****         isOpen = false;
 120              		.loc 1 272 0
 121 001a 0748     		ldr	r0, .L8+8
 122 001c 0023     		movs	r3, #0
 123 001e 4370     		strb	r3, [r0, #1]
 273:pcmPlayer.c   ****         resultF = f_close(&fp);
 124              		.loc 1 273 0
 125 0020 0430     		adds	r0, r0, #4
ARM GAS  C:\Users\DMYTRO~1.FED\AppData\Local\Temp\ccOkeSjq.s 			page 8


 126 0022 FFF7FEFF 		bl	f_close
 127              	.LVL7:
 274:pcmPlayer.c   ****         if (RES_OK != resultF)
 128              		.loc 1 274 0
 129 0026 0028     		cmp	r0, #0
 130 0028 01D0     		beq	.L6
 275:pcmPlayer.c   ****         {
 276:pcmPlayer.c   ****             cardErrorPrint(resultF);
 131              		.loc 1 276 0
 132 002a FFF7FEFF 		bl	cardErrorPrint
 133              	.LVL8:
 134              	.L6:
 277:pcmPlayer.c   ****         }
 278:pcmPlayer.c   ****     }
 279:pcmPlayer.c   **** }
 135              		.loc 1 279 0
 136              		@ sp needed
 137 002e 10BD     		pop	{r4, pc}
 138              	.L9:
 139              		.align	2
 140              	.L8:
 141 0030 00000000 		.word	.LC0
 142 0034 0C000000 		.word	.LC2
 143 0038 00000000 		.word	.LANCHOR0
 144              		.cfi_endproc
 145              	.LFE7:
 146              		.size	pcmPlayerOnEnd, .-pcmPlayerOnEnd
 147              		.section	.text.pcmPlayerLoadNextCb,"ax",%progbits
 148              		.align	2
 149              		.code	16
 150              		.thumb_func
 151              		.type	pcmPlayerLoadNextCb, %function
 152              	pcmPlayerLoadNextCb:
 153              	.LFB8:
 280:pcmPlayer.c   **** 
 281:pcmPlayer.c   **** static void pcmPlayerLoadNextCb(uint8_t *buffer, uint32_t maxSize, uint32_t *obtainedSize)
 282:pcmPlayer.c   **** {
 154              		.loc 1 282 0
 155              		.cfi_startproc
 156              		@ args = 0, pretend = 0, frame = 0
 157              		@ frame_needed = 0, uses_anonymous_args = 0
 158              	.LVL9:
 159 0000 70B5     		push	{r4, r5, r6, lr}
 160              		.cfi_def_cfa_offset 16
 161              		.cfi_offset 4, -16
 162              		.cfi_offset 5, -12
 163              		.cfi_offset 6, -8
 164              		.cfi_offset 14, -4
 165 0002 1400     		movs	r4, r2
 283:pcmPlayer.c   ****     uint8_t resultF;
 284:pcmPlayer.c   ****     
 285:pcmPlayer.c   ****     ASSERT(isOpen);
 166              		.loc 1 285 0
 167 0004 144B     		ldr	r3, .L15
 168 0006 5B78     		ldrb	r3, [r3, #1]
 169 0008 002B     		cmp	r3, #0
 170 000a 06D1     		bne	.L11
ARM GAS  C:\Users\DMYTRO~1.FED\AppData\Local\Temp\ccOkeSjq.s 			page 9


 171              		.loc 1 285 0 is_stmt 0 discriminator 1
 172 000c 1E22     		movs	r2, #30
 173              	.LVL10:
 174 000e FF32     		adds	r2, r2, #255
 175 0010 1249     		ldr	r1, .L15+4
 176              	.LVL11:
 177 0012 1348     		ldr	r0, .L15+8
 178              	.LVL12:
 179 0014 FFF7FEFF 		bl	uartPrintf
 180              	.LVL13:
 181              	.L12:
 182 0018 FEE7     		b	.L12
 183              	.LVL14:
 184              	.L11:
 286:pcmPlayer.c   ****     if (!needStop)
 185              		.loc 1 286 0 is_stmt 1
 186 001a 0F4B     		ldr	r3, .L15
 187 001c 1B78     		ldrb	r3, [r3]
 188 001e 002B     		cmp	r3, #0
 189 0020 18D1     		bne	.L10
 287:pcmPlayer.c   ****     {
 288:pcmPlayer.c   ****         resultF = f_read(&fp, buffer, maxSize, (UINT *)obtainedSize);
 190              		.loc 1 288 0
 191 0022 1300     		movs	r3, r2
 192 0024 0A00     		movs	r2, r1
 193              	.LVL15:
 194 0026 0100     		movs	r1, r0
 195              	.LVL16:
 196 0028 0B48     		ldr	r0, .L15
 197              	.LVL17:
 198 002a 0430     		adds	r0, r0, #4
 199 002c FFF7FEFF 		bl	f_read
 200              	.LVL18:
 201 0030 051E     		subs	r5, r0, #0
 202              	.LVL19:
 289:pcmPlayer.c   ****         if (RES_OK != resultF)
 203              		.loc 1 289 0
 204 0032 07D0     		beq	.L14
 290:pcmPlayer.c   ****         {
 291:pcmPlayer.c   ****             uartPrintf("PCM: f_read failed\r\n");
 205              		.loc 1 291 0
 206 0034 0B48     		ldr	r0, .L15+12
 207              	.LVL20:
 208 0036 FFF7FEFF 		bl	uartPrintf
 209              	.LVL21:
 292:pcmPlayer.c   ****             cardErrorPrint(resultF);
 210              		.loc 1 292 0
 211 003a 2800     		movs	r0, r5
 212 003c FFF7FEFF 		bl	cardErrorPrint
 213              	.LVL22:
 293:pcmPlayer.c   ****             *obtainedSize = 0;
 214              		.loc 1 293 0
 215 0040 0023     		movs	r3, #0
 216 0042 2360     		str	r3, [r4]
 217              	.L14:
 294:pcmPlayer.c   ****         }
 295:pcmPlayer.c   ****         
ARM GAS  C:\Users\DMYTRO~1.FED\AppData\Local\Temp\ccOkeSjq.s 			page 10


 296:pcmPlayer.c   ****         if (0 == *obtainedSize)
 218              		.loc 1 296 0
 219 0044 2368     		ldr	r3, [r4]
 220 0046 002B     		cmp	r3, #0
 221 0048 04D1     		bne	.L10
 297:pcmPlayer.c   ****         {
 298:pcmPlayer.c   ****             needStop = true;
 222              		.loc 1 298 0
 223 004a 0122     		movs	r2, #1
 224 004c 024B     		ldr	r3, .L15
 225 004e 1A70     		strb	r2, [r3]
 299:pcmPlayer.c   ****             player_Stop();
 226              		.loc 1 299 0
 227 0050 FFF7FEFF 		bl	player_Stop
 228              	.LVL23:
 229              	.L10:
 300:pcmPlayer.c   ****         }
 301:pcmPlayer.c   ****     }
 302:pcmPlayer.c   **** }...
 230              		.loc 1 302 0
 231              		@ sp needed
 232              	.LVL24:
 233 0054 70BD     		pop	{r4, r5, r6, pc}
 234              	.L16:
 235 0056 C046     		.align	2
 236              	.L15:
 237 0058 00000000 		.word	.LANCHOR0
 238 005c 2C000000 		.word	.LC7
 239 0060 38000000 		.word	.LC9
 240 0064 64000000 		.word	.LC11
 241              		.cfi_endproc
 242              	.LFE8:
 243              		.size	pcmPlayerLoadNextCb, .-pcmPlayerLoadNextCb
 244              		.section	.text.pcmPlayerCheckHeader,"ax",%progbits
 245              		.align	2
 246              		.code	16
 247              		.thumb_func
 248              		.type	pcmPlayerCheckHeader, %function
 249              	pcmPlayerCheckHeader:
 250              	.LFB5:
 131:pcmPlayer.c   **** {
 251              		.loc 1 131 0
 252              		.cfi_startproc
 253              		@ args = 0, pretend = 0, frame = 48
 254              		@ frame_needed = 0, uses_anonymous_args = 0
 255 0000 70B5     		push	{r4, r5, r6, lr}
 256              		.cfi_def_cfa_offset 16
 257              		.cfi_offset 4, -16
 258              		.cfi_offset 5, -12
 259              		.cfi_offset 6, -8
 260              		.cfi_offset 14, -4
 261 0002 8CB0     		sub	sp, sp, #48
 262              		.cfi_def_cfa_offset 64
 263              	.LVL25:
 139:pcmPlayer.c   ****         resultF = f_read(&fp, &header, sizeof(pcmPlayer_WAVHdr_t), &read);
 264              		.loc 1 139 0
 265 0004 6B46     		mov	r3, sp
ARM GAS  C:\Users\DMYTRO~1.FED\AppData\Local\Temp\ccOkeSjq.s 			page 11


 266 0006 2C22     		movs	r2, #44
 267 0008 01A9     		add	r1, sp, #4
 268 000a 3C48     		ldr	r0, .L30
 269 000c 0430     		adds	r0, r0, #4
 270 000e FFF7FEFF 		bl	f_read
 271              	.LVL26:
 272 0012 0500     		movs	r5, r0
 273 0014 041E     		subs	r4, r0, #0
 274              	.LVL27:
 140:pcmPlayer.c   ****         if (RES_OK != resultF)
 275              		.loc 1 140 0
 276 0016 05D0     		beq	.L18
 142:pcmPlayer.c   ****             uartPrintf("PCM: Failed to read WAV header %d\r\n", resultF);
 277              		.loc 1 142 0
 278 0018 0100     		movs	r1, r0
 279 001a 3948     		ldr	r0, .L30+4
 280              	.LVL28:
 281 001c FFF7FEFF 		bl	uartPrintf
 282              	.LVL29:
 135:pcmPlayer.c   ****     bool    ret = false; 
 283              		.loc 1 135 0
 284 0020 0026     		movs	r6, #0
 143:pcmPlayer.c   ****             break;
 285              		.loc 1 143 0
 286 0022 63E0     		b	.L19
 287              	.LVL30:
 288              	.L18:
 146:pcmPlayer.c   ****         if (sizeof(pcmPlayer_WAVHdr_t) != read)
 289              		.loc 1 146 0
 290 0024 009B     		ldr	r3, [sp]
 291 0026 2C2B     		cmp	r3, #44
 292 0028 04D0     		beq	.L20
 148:pcmPlayer.c   ****             uartPrintf("PCM: Failed to read WAV header - incorrect length\r\n");
 293              		.loc 1 148 0
 294 002a 3648     		ldr	r0, .L30+8
 295              	.LVL31:
 296 002c FFF7FEFF 		bl	uartPrintf
 297              	.LVL32:
 135:pcmPlayer.c   ****     bool    ret = false; 
 298              		.loc 1 135 0
 299 0030 0026     		movs	r6, #0
 149:pcmPlayer.c   ****             break;
 300              		.loc 1 149 0
 301 0032 5BE0     		b	.L19
 302              	.LVL33:
 303              	.L20:
 152:pcmPlayer.c   ****         if (0 != memcmp(header.chunkId, riffStr, sizeof(header.chunkId)))
 304              		.loc 1 152 0
 305 0034 0422     		movs	r2, #4
 306 0036 3449     		ldr	r1, .L30+12
 307 0038 01A8     		add	r0, sp, #4
 308              	.LVL34:
 309 003a FFF7FEFF 		bl	memcmp
 310              	.LVL35:
 311 003e 0028     		cmp	r0, #0
 312 0040 04D0     		beq	.L21
 154:pcmPlayer.c   ****             uartPrintf("PCM: Failed to read WAV header - wrong chunk id\r\n");
ARM GAS  C:\Users\DMYTRO~1.FED\AppData\Local\Temp\ccOkeSjq.s 			page 12


 313              		.loc 1 154 0
 314 0042 3248     		ldr	r0, .L30+16
 315 0044 FFF7FEFF 		bl	uartPrintf
 316              	.LVL36:
 135:pcmPlayer.c   ****     bool    ret = false; 
 317              		.loc 1 135 0
 318 0048 0026     		movs	r6, #0
 155:pcmPlayer.c   ****             break;
 319              		.loc 1 155 0
 320 004a 4FE0     		b	.L19
 321              	.L21:
 158:pcmPlayer.c   ****         if (0 != memcmp(header.format, waveStr, sizeof(header.format)))
 322              		.loc 1 158 0
 323 004c 0422     		movs	r2, #4
 324 004e 2E49     		ldr	r1, .L30+12
 325 0050 0831     		adds	r1, r1, #8
 326 0052 03A8     		add	r0, sp, #12
 327 0054 FFF7FEFF 		bl	memcmp
 328              	.LVL37:
 329 0058 0028     		cmp	r0, #0
 330 005a 04D0     		beq	.L22
 160:pcmPlayer.c   ****             uartPrintf("PCM: Failed to read WAV header - wrong format id\r\n");
 331              		.loc 1 160 0
 332 005c 2C48     		ldr	r0, .L30+20
 333 005e FFF7FEFF 		bl	uartPrintf
 334              	.LVL38:
 135:pcmPlayer.c   ****     bool    ret = false; 
 335              		.loc 1 135 0
 336 0062 0026     		movs	r6, #0
 161:pcmPlayer.c   ****             break;
 337              		.loc 1 161 0
 338 0064 42E0     		b	.L19
 339              	.L22:
 164:pcmPlayer.c   ****         if (0 != memcmp(header.subchunk1Id, fmtStr, sizeof(header.subchunk1Id)))
 340              		.loc 1 164 0
 341 0066 0422     		movs	r2, #4
 342 0068 2749     		ldr	r1, .L30+12
 343 006a 1031     		adds	r1, r1, #16
 344 006c 04A8     		add	r0, sp, #16
 345 006e FFF7FEFF 		bl	memcmp
 346              	.LVL39:
 347 0072 0028     		cmp	r0, #0
 348 0074 04D0     		beq	.L23
 166:pcmPlayer.c   ****             uartPrintf("PCM: Failed to read WAV header - wrong subchunk1 id\r\n");
 349              		.loc 1 166 0
 350 0076 2748     		ldr	r0, .L30+24
 351 0078 FFF7FEFF 		bl	uartPrintf
 352              	.LVL40:
 135:pcmPlayer.c   ****     bool    ret = false; 
 353              		.loc 1 135 0
 354 007c 0026     		movs	r6, #0
 167:pcmPlayer.c   ****             break;
 355              		.loc 1 167 0
 356 007e 35E0     		b	.L19
 357              	.L23:
 170:pcmPlayer.c   ****         if (0 != memcmp(header.subchunk2Id, dataStr, sizeof(header.subchunk2Id)))
 358              		.loc 1 170 0
ARM GAS  C:\Users\DMYTRO~1.FED\AppData\Local\Temp\ccOkeSjq.s 			page 13


 359 0080 0422     		movs	r2, #4
 360 0082 2149     		ldr	r1, .L30+12
 361 0084 1831     		adds	r1, r1, #24
 362 0086 0AA8     		add	r0, sp, #40
 363 0088 FFF7FEFF 		bl	memcmp
 364              	.LVL41:
 365 008c 0028     		cmp	r0, #0
 366 008e 04D0     		beq	.L24
 172:pcmPlayer.c   ****             uartPrintf("PCM: Failed to read WAV header - wrong subchunk2 id\r\n");
 367              		.loc 1 172 0
 368 0090 2148     		ldr	r0, .L30+28
 369 0092 FFF7FEFF 		bl	uartPrintf
 370              	.LVL42:
 135:pcmPlayer.c   ****     bool    ret = false; 
 371              		.loc 1 135 0
 372 0096 0026     		movs	r6, #0
 173:pcmPlayer.c   ****             break;
 373              		.loc 1 173 0
 374 0098 28E0     		b	.L19
 375              	.L24:
 176:pcmPlayer.c   ****         if (AUDIO_FORMAT_PCM != header.audioFormat)
 376              		.loc 1 176 0
 377 009a 01AB     		add	r3, sp, #4
 378 009c 9B8A     		ldrh	r3, [r3, #20]
 379 009e 012B     		cmp	r3, #1
 380 00a0 04D0     		beq	.L25
 178:pcmPlayer.c   ****             uartPrintf("PCM: Only uncompress pcm supported. Sorry\r\n");
 381              		.loc 1 178 0
 382 00a2 1E48     		ldr	r0, .L30+32
 383 00a4 FFF7FEFF 		bl	uartPrintf
 384              	.LVL43:
 135:pcmPlayer.c   ****     bool    ret = false; 
 385              		.loc 1 135 0
 386 00a8 0026     		movs	r6, #0
 179:pcmPlayer.c   ****             break;
 387              		.loc 1 179 0
 388 00aa 1FE0     		b	.L19
 389              	.L25:
 182:pcmPlayer.c   ****         if (!pcmPlayerCheckSampleRate(&header))
 390              		.loc 1 182 0
 391 00ac 01A8     		add	r0, sp, #4
 392 00ae FFF7FEFF 		bl	pcmPlayerCheckSampleRate
 393              	.LVL44:
 394 00b2 0028     		cmp	r0, #0
 395 00b4 04D1     		bne	.L26
 184:pcmPlayer.c   ****             uartPrintf("PCM: Sample rate not supported\r\n");
 396              		.loc 1 184 0
 397 00b6 1A48     		ldr	r0, .L30+36
 398 00b8 FFF7FEFF 		bl	uartPrintf
 399              	.LVL45:
 135:pcmPlayer.c   ****     bool    ret = false; 
 400              		.loc 1 135 0
 401 00bc 0026     		movs	r6, #0
 185:pcmPlayer.c   ****             break;
 402              		.loc 1 185 0
 403 00be 15E0     		b	.L19
 404              	.L26:
ARM GAS  C:\Users\DMYTRO~1.FED\AppData\Local\Temp\ccOkeSjq.s 			page 14


 188:pcmPlayer.c   ****         if (1 < header.channels)
 405              		.loc 1 188 0
 406 00c0 01AB     		add	r3, sp, #4
 407 00c2 DB8A     		ldrh	r3, [r3, #22]
 408 00c4 012B     		cmp	r3, #1
 409 00c6 04D9     		bls	.L27
 190:pcmPlayer.c   ****             uartPrintf("PCM: Only 1 channel supported\r\n");
 410              		.loc 1 190 0
 411 00c8 1648     		ldr	r0, .L30+40
 412 00ca FFF7FEFF 		bl	uartPrintf
 413              	.LVL46:
 135:pcmPlayer.c   ****     bool    ret = false; 
 414              		.loc 1 135 0
 415 00ce 0026     		movs	r6, #0
 191:pcmPlayer.c   ****             break;
 416              		.loc 1 191 0
 417 00d0 0CE0     		b	.L19
 418              	.L27:
 194:pcmPlayer.c   ****         if (8 != header.bitsPerSample)
 419              		.loc 1 194 0
 420 00d2 01AB     		add	r3, sp, #4
 421 00d4 5B8C     		ldrh	r3, [r3, #34]
 422 00d6 082B     		cmp	r3, #8
 423 00d8 04D0     		beq	.L28
 196:pcmPlayer.c   ****             uartPrintf("PCM: Only 8 bit supported\r\n");
 424              		.loc 1 196 0
 425 00da 1348     		ldr	r0, .L30+44
 426 00dc FFF7FEFF 		bl	uartPrintf
 427              	.LVL47:
 135:pcmPlayer.c   ****     bool    ret = false; 
 428              		.loc 1 135 0
 429 00e0 0026     		movs	r6, #0
 197:pcmPlayer.c   ****             break;
 430              		.loc 1 197 0
 431 00e2 03E0     		b	.L19
 432              	.L28:
 200:pcmPlayer.c   ****         sampleRate = header.sampleRate;
 433              		.loc 1 200 0
 434 00e4 114B     		ldr	r3, .L30+48
 435 00e6 079A     		ldr	r2, [sp, #28]
 436 00e8 9A62     		str	r2, [r3, #40]
 437              	.LVL48:
 201:pcmPlayer.c   ****         ret = true;
 438              		.loc 1 201 0
 439 00ea 0126     		movs	r6, #1
 440              	.LVL49:
 441              	.L19:
 204:pcmPlayer.c   ****     if (RES_OK != resultF)
 442              		.loc 1 204 0
 443 00ec 002C     		cmp	r4, #0
 444 00ee 02D0     		beq	.L29
 206:pcmPlayer.c   ****         cardErrorPrint(resultF);
 445              		.loc 1 206 0
 446 00f0 2800     		movs	r0, r5
 447 00f2 FFF7FEFF 		bl	cardErrorPrint
 448              	.LVL50:
 449              	.L29:
ARM GAS  C:\Users\DMYTRO~1.FED\AppData\Local\Temp\ccOkeSjq.s 			page 15


 211:pcmPlayer.c   **** }
 450              		.loc 1 211 0
 451 00f6 3000     		movs	r0, r6
 452 00f8 0CB0     		add	sp, sp, #48
 453              		@ sp needed
 454              	.LVL51:
 455 00fa 70BD     		pop	{r4, r5, r6, pc}
 456              	.L31:
 457              		.align	2
 458              	.L30:
 459 00fc 00000000 		.word	.LANCHOR0
 460 0100 7C000000 		.word	.LC14
 461 0104 A0000000 		.word	.LC16
 462 0108 00000000 		.word	.LANCHOR1
 463 010c D4000000 		.word	.LC19
 464 0110 08010000 		.word	.LC21
 465 0114 3C010000 		.word	.LC23
 466 0118 74010000 		.word	.LC25
 467 011c AC010000 		.word	.LC27
 468 0120 D8010000 		.word	.LC29
 469 0124 FC010000 		.word	.LC31
 470 0128 1C020000 		.word	.LC33
 471 012c 00020000 		.word	.LANCHOR2
 472              		.cfi_endproc
 473              	.LFE5:
 474              		.size	pcmPlayerCheckHeader, .-pcmPlayerCheckHeader
 475              		.section	.text.pcmPlayerSetSampleRate,"ax",%progbits
 476              		.align	2
 477              		.code	16
 478              		.thumb_func
 479              		.type	pcmPlayerSetSampleRate, %function
 480              	pcmPlayerSetSampleRate:
 481              	.LFB3:
  77:pcmPlayer.c   **** {
 482              		.loc 1 77 0
 483              		.cfi_startproc
 484              		@ args = 0, pretend = 0, frame = 0
 485              		@ frame_needed = 0, uses_anonymous_args = 0
 486              	.LVL52:
 487 0000 10B5     		push	{r4, lr}
 488              		.cfi_def_cfa_offset 8
 489              		.cfi_offset 4, -8
 490              		.cfi_offset 14, -4
 491              	.LVL53:
  80:pcmPlayer.c   ****     switch (sampleRate)
 492              		.loc 1 80 0
 493 0002 FA23     		movs	r3, #250
 494 0004 9B01     		lsls	r3, r3, #6
 495 0006 9842     		cmp	r0, r3
 496 0008 1AD0     		beq	.L34
 497 000a 08D8     		bhi	.L35
 498 000c FA23     		movs	r3, #250
 499 000e 1B01     		lsls	r3, r3, #4
 500 0010 9842     		cmp	r0, r3
 501 0012 0DD0     		beq	.L36
 502 0014 FA23     		movs	r3, #250
 503 0016 5B01     		lsls	r3, r3, #5
ARM GAS  C:\Users\DMYTRO~1.FED\AppData\Local\Temp\ccOkeSjq.s 			page 16


 504 0018 9842     		cmp	r0, r3
 505 001a 0DD0     		beq	.L37
 506 001c 1CE0     		b	.L40
 507              	.L35:
 508 001e FA23     		movs	r3, #250
 509 0020 DB01     		lsls	r3, r3, #7
 510 0022 9842     		cmp	r0, r3
 511 0024 10D0     		beq	.L38
 512 0026 FA23     		movs	r3, #250
 513 0028 1B02     		lsls	r3, r3, #8
 514 002a 9842     		cmp	r0, r3
 515 002c 10D0     		beq	.L39
 516 002e 13E0     		b	.L40
 517              	.L36:
  83:pcmPlayer.c   ****             res = audio_SetSampleRate(AUDIO_SAMPLE_RATE_4K);
 518              		.loc 1 83 0
 519 0030 0020     		movs	r0, #0
 520              	.LVL54:
 521 0032 FFF7FEFF 		bl	audio_SetSampleRate
 522              	.LVL55:
  84:pcmPlayer.c   ****             break;
 523              		.loc 1 84 0
 524 0036 10E0     		b	.L33
 525              	.LVL56:
 526              	.L37:
  87:pcmPlayer.c   ****             res = audio_SetSampleRate(AUDIO_SAMPLE_RATE_8K);
 527              		.loc 1 87 0
 528 0038 0120     		movs	r0, #1
 529              	.LVL57:
 530 003a FFF7FEFF 		bl	audio_SetSampleRate
 531              	.LVL58:
  88:pcmPlayer.c   ****             break;
 532              		.loc 1 88 0
 533 003e 0CE0     		b	.L33
 534              	.LVL59:
 535              	.L34:
  91:pcmPlayer.c   ****             res = audio_SetSampleRate(AUDIO_SAMPLE_RATE_16K);
 536              		.loc 1 91 0
 537 0040 0220     		movs	r0, #2
 538              	.LVL60:
 539 0042 FFF7FEFF 		bl	audio_SetSampleRate
 540              	.LVL61:
  92:pcmPlayer.c   ****             break;
 541              		.loc 1 92 0
 542 0046 08E0     		b	.L33
 543              	.LVL62:
 544              	.L38:
  95:pcmPlayer.c   ****             res = audio_SetSampleRate(AUDIO_SAMPLE_RATE_32K);
 545              		.loc 1 95 0
 546 0048 0320     		movs	r0, #3
 547              	.LVL63:
 548 004a FFF7FEFF 		bl	audio_SetSampleRate
 549              	.LVL64:
  96:pcmPlayer.c   ****             break;
 550              		.loc 1 96 0
 551 004e 04E0     		b	.L33
 552              	.LVL65:
ARM GAS  C:\Users\DMYTRO~1.FED\AppData\Local\Temp\ccOkeSjq.s 			page 17


 553              	.L39:
  99:pcmPlayer.c   ****             res = audio_SetSampleRate(AUDIO_SAMPLE_RATE_64K);
 554              		.loc 1 99 0
 555 0050 0420     		movs	r0, #4
 556              	.LVL66:
 557 0052 FFF7FEFF 		bl	audio_SetSampleRate
 558              	.LVL67:
 100:pcmPlayer.c   ****             break;
 559              		.loc 1 100 0
 560 0056 00E0     		b	.L33
 561              	.LVL68:
 562              	.L40:
  78:pcmPlayer.c   ****     bool res = false;
 563              		.loc 1 78 0
 564 0058 0020     		movs	r0, #0
 565              	.LVL69:
 566              	.L33:
 107:pcmPlayer.c   **** }
 567              		.loc 1 107 0
 568              		@ sp needed
 569 005a 10BD     		pop	{r4, pc}
 570              		.cfi_endproc
 571              	.LFE3:
 572              		.size	pcmPlayerSetSampleRate, .-pcmPlayerSetSampleRate
 573              		.section	.text.pcmPlayerContinue,"ax",%progbits
 574              		.align	2
 575              		.code	16
 576              		.thumb_func
 577              		.type	pcmPlayerContinue, %function
 578              	pcmPlayerContinue:
 579              	.LFB2:
  65:pcmPlayer.c   **** {
 580              		.loc 1 65 0
 581              		.cfi_startproc
 582              		@ args = 0, pretend = 0, frame = 0
 583              		@ frame_needed = 0, uses_anonymous_args = 0
 584 0000 10B5     		push	{r4, lr}
 585              		.cfi_def_cfa_offset 8
 586              		.cfi_offset 4, -8
 587              		.cfi_offset 14, -4
  66:pcmPlayer.c   ****     uartPrintf("PCM: Play\\Continue\r\n");
 588              		.loc 1 66 0
 589 0002 0748     		ldr	r0, .L44
 590 0004 FFF7FEFF 		bl	uartPrintf
 591              	.LVL70:
  67:pcmPlayer.c   ****     if (isOpen)
 592              		.loc 1 67 0
 593 0008 064B     		ldr	r3, .L44+4
 594 000a 5B78     		ldrb	r3, [r3, #1]
 595 000c 002B     		cmp	r3, #0
 596 000e 02D0     		beq	.L42
  69:pcmPlayer.c   ****         player_Play();
 597              		.loc 1 69 0
 598 0010 FFF7FEFF 		bl	player_Play
 599              	.LVL71:
 600 0014 02E0     		b	.L41
 601              	.L42:
ARM GAS  C:\Users\DMYTRO~1.FED\AppData\Local\Temp\ccOkeSjq.s 			page 18


  72:pcmPlayer.c   ****         uartPrintf("PCM: Continue - not open\r\n");
 602              		.loc 1 72 0
 603 0016 0448     		ldr	r0, .L44+8
 604 0018 FFF7FEFF 		bl	uartPrintf
 605              	.LVL72:
 606              	.L41:
  74:pcmPlayer.c   **** }
 607              		.loc 1 74 0
 608              		@ sp needed
 609 001c 10BD     		pop	{r4, pc}
 610              	.L45:
 611 001e C046     		.align	2
 612              	.L44:
 613 0020 38020000 		.word	.LC36
 614 0024 00000000 		.word	.LANCHOR0
 615 0028 50020000 		.word	.LC39
 616              		.cfi_endproc
 617              	.LFE2:
 618              		.size	pcmPlayerContinue, .-pcmPlayerContinue
 619              		.section	.text.pcmPlayerPlayInt,"ax",%progbits
 620              		.align	2
 621              		.code	16
 622              		.thumb_func
 623              		.type	pcmPlayerPlayInt, %function
 624              	pcmPlayerPlayInt:
 625              	.LFB6:
 214:pcmPlayer.c   **** {
 626              		.loc 1 214 0
 627              		.cfi_startproc
 628              		@ args = 0, pretend = 0, frame = 0
 629              		@ frame_needed = 0, uses_anonymous_args = 0
 630              	.LVL73:
 631 0000 70B5     		push	{r4, r5, r6, lr}
 632              		.cfi_def_cfa_offset 16
 633              		.cfi_offset 4, -16
 634              		.cfi_offset 5, -12
 635              		.cfi_offset 6, -8
 636              		.cfi_offset 14, -4
 637 0002 0400     		movs	r4, r0
 638 0004 0E00     		movs	r6, r1
 639              	.LVL74:
 218:pcmPlayer.c   ****     uartPrintf("PCM: Play %s\r\n", fname);
 640              		.loc 1 218 0
 641 0006 0100     		movs	r1, r0
 642              	.LVL75:
 643 0008 1B48     		ldr	r0, .L54
 644              	.LVL76:
 645 000a FFF7FEFF 		bl	uartPrintf
 646              	.LVL77:
 219:pcmPlayer.c   ****     if (isOpen)
 647              		.loc 1 219 0
 648 000e 1B4B     		ldr	r3, .L54+4
 649 0010 5B78     		ldrb	r3, [r3, #1]
 650 0012 002B     		cmp	r3, #0
 651 0014 01D0     		beq	.L47
 221:pcmPlayer.c   ****         player_Stop();
 652              		.loc 1 221 0
ARM GAS  C:\Users\DMYTRO~1.FED\AppData\Local\Temp\ccOkeSjq.s 			page 19


 653 0016 FFF7FEFF 		bl	player_Stop
 654              	.LVL78:
 655              	.L47:
 227:pcmPlayer.c   ****         resultF = f_open(&fp, fname, FA_READ);
 656              		.loc 1 227 0
 657 001a 0122     		movs	r2, #1
 658 001c 2100     		movs	r1, r4
 659 001e 1748     		ldr	r0, .L54+4
 660 0020 0430     		adds	r0, r0, #4
 661 0022 FFF7FEFF 		bl	f_open
 662              	.LVL79:
 663 0026 0500     		movs	r5, r0
 664 0028 041E     		subs	r4, r0, #0
 665              	.LVL80:
 228:pcmPlayer.c   ****         if (RES_OK != resultF)
 666              		.loc 1 228 0
 667 002a 05D0     		beq	.L48
 230:pcmPlayer.c   ****             uartPrintf("PCM: Failed at open %d\r\n", resultF);
 668              		.loc 1 230 0
 669 002c 0100     		movs	r1, r0
 670 002e 1448     		ldr	r0, .L54+8
 671              	.LVL81:
 672 0030 FFF7FEFF 		bl	uartPrintf
 673              	.LVL82:
 216:pcmPlayer.c   ****     bool result = false;
 674              		.loc 1 216 0
 675 0034 0026     		movs	r6, #0
 231:pcmPlayer.c   ****             break;
 676              		.loc 1 231 0
 677 0036 18E0     		b	.L49
 678              	.LVL83:
 679              	.L48:
 234:pcmPlayer.c   ****         if (isWav)
 680              		.loc 1 234 0
 681 0038 002E     		cmp	r6, #0
 682 003a 09D0     		beq	.L50
 236:pcmPlayer.c   ****             if (!pcmPlayerCheckHeader())
 683              		.loc 1 236 0
 684 003c FFF7FEFF 		bl	pcmPlayerCheckHeader
 685              	.LVL84:
 686 0040 0028     		cmp	r0, #0
 687 0042 0FD0     		beq	.L52
 241:pcmPlayer.c   ****             if (!pcmPlayerSetSampleRate(sampleRate))
 688              		.loc 1 241 0
 689 0044 0F4B     		ldr	r3, .L54+12
 690 0046 986A     		ldr	r0, [r3, #40]
 691 0048 FFF7FEFF 		bl	pcmPlayerSetSampleRate
 692              	.LVL85:
 693 004c 0028     		cmp	r0, #0
 694 004e 0BD0     		beq	.L53
 695              	.L50:
 696              	.LVL86:
 250:pcmPlayer.c   ****         isOpen = true;
 697              		.loc 1 250 0
 698 0050 0122     		movs	r2, #1
 699 0052 0A4B     		ldr	r3, .L54+4
 700 0054 5A70     		strb	r2, [r3, #1]
ARM GAS  C:\Users\DMYTRO~1.FED\AppData\Local\Temp\ccOkeSjq.s 			page 20


 251:pcmPlayer.c   ****         player_Init(&playerCb);      
 701              		.loc 1 251 0
 702 0056 0C48     		ldr	r0, .L54+16
 703 0058 FFF7FEFF 		bl	player_Init
 704              	.LVL87:
 252:pcmPlayer.c   ****         pcmPlayerContinue();
 705              		.loc 1 252 0
 706 005c FFF7FEFF 		bl	pcmPlayerContinue
 707              	.LVL88:
 249:pcmPlayer.c   ****         result = true;
 708              		.loc 1 249 0
 709 0060 0126     		movs	r6, #1
 710 0062 02E0     		b	.L49
 711              	.LVL89:
 712              	.L52:
 216:pcmPlayer.c   ****     bool result = false;
 713              		.loc 1 216 0
 714 0064 0026     		movs	r6, #0
 715 0066 00E0     		b	.L49
 716              	.L53:
 717 0068 0026     		movs	r6, #0
 718              	.LVL90:
 719              	.L49:
 255:pcmPlayer.c   ****     if (RES_OK != resultF)
 720              		.loc 1 255 0
 721 006a 002C     		cmp	r4, #0
 722 006c 02D0     		beq	.L51
 257:pcmPlayer.c   ****         cardErrorPrint(resultF);
 723              		.loc 1 257 0
 724 006e 2800     		movs	r0, r5
 725 0070 FFF7FEFF 		bl	cardErrorPrint
 726              	.LVL91:
 727              	.L51:
 261:pcmPlayer.c   **** }
 728              		.loc 1 261 0
 729 0074 3000     		movs	r0, r6
 730              		@ sp needed
 731              	.LVL92:
 732 0076 70BD     		pop	{r4, r5, r6, pc}
 733              	.L55:
 734              		.align	2
 735              	.L54:
 736 0078 6C020000 		.word	.LC41
 737 007c 00000000 		.word	.LANCHOR0
 738 0080 7C020000 		.word	.LC44
 739 0084 00020000 		.word	.LANCHOR2
 740 0088 00000000 		.word	.LANCHOR3
 741              		.cfi_endproc
 742              	.LFE6:
 743              		.size	pcmPlayerPlayInt, .-pcmPlayerPlayInt
 744              		.section	.text.pcmPlayerPlayWav,"ax",%progbits
 745              		.align	2
 746              		.global	pcmPlayerPlayWav
 747              		.code	16
 748              		.thumb_func
 749              		.type	pcmPlayerPlayWav, %function
 750              	pcmPlayerPlayWav:
ARM GAS  C:\Users\DMYTRO~1.FED\AppData\Local\Temp\ccOkeSjq.s 			page 21


 751              	.LFB0:
  55:pcmPlayer.c   **** {    
 752              		.loc 1 55 0
 753              		.cfi_startproc
 754              		@ args = 0, pretend = 0, frame = 0
 755              		@ frame_needed = 0, uses_anonymous_args = 0
 756              	.LVL93:
 757 0000 10B5     		push	{r4, lr}
 758              		.cfi_def_cfa_offset 8
 759              		.cfi_offset 4, -8
 760              		.cfi_offset 14, -4
  56:pcmPlayer.c   ****     return pcmPlayerPlayInt(fname, true);
 761              		.loc 1 56 0
 762 0002 0121     		movs	r1, #1
 763 0004 FFF7FEFF 		bl	pcmPlayerPlayInt
 764              	.LVL94:
  57:pcmPlayer.c   **** }
 765              		.loc 1 57 0
 766              		@ sp needed
 767 0008 10BD     		pop	{r4, pc}
 768              		.cfi_endproc
 769              	.LFE0:
 770              		.size	pcmPlayerPlayWav, .-pcmPlayerPlayWav
 771 000a C046     		.section	.text.pcmPlayerPlay,"ax",%progbits
 772              		.align	2
 773              		.global	pcmPlayerPlay
 774              		.code	16
 775              		.thumb_func
 776              		.type	pcmPlayerPlay, %function
 777              	pcmPlayerPlay:
 778              	.LFB1:
  60:pcmPlayer.c   **** {
 779              		.loc 1 60 0
 780              		.cfi_startproc
 781              		@ args = 0, pretend = 0, frame = 0
 782              		@ frame_needed = 0, uses_anonymous_args = 0
 783              	.LVL95:
 784 0000 10B5     		push	{r4, lr}
 785              		.cfi_def_cfa_offset 8
 786              		.cfi_offset 4, -8
 787              		.cfi_offset 14, -4
  61:pcmPlayer.c   ****     return pcmPlayerPlayInt(fname, false);
 788              		.loc 1 61 0
 789 0002 0021     		movs	r1, #0
 790 0004 FFF7FEFF 		bl	pcmPlayerPlayInt
 791              	.LVL96:
  62:pcmPlayer.c   **** }
 792              		.loc 1 62 0
 793              		@ sp needed
 794 0008 10BD     		pop	{r4, pc}
 795              		.cfi_endproc
 796              	.LFE1:
 797              		.size	pcmPlayerPlay, .-pcmPlayerPlay
 798              		.global	dataStr
 799              		.global	fmtStr
 800              		.global	waveStr
 801              		.global	riffStr
ARM GAS  C:\Users\DMYTRO~1.FED\AppData\Local\Temp\ccOkeSjq.s 			page 22


 802 000a C046     		.section	.rodata
 803              		.align	2
 804              		.set	.LANCHOR1,. + 0
 805              		.type	riffStr, %object
 806              		.size	riffStr, 5
 807              	riffStr:
 808 0000 52494646 		.ascii	"RIFF\000"
 808      00
 809 0005 000000   		.space	3
 810              		.type	waveStr, %object
 811              		.size	waveStr, 5
 812              	waveStr:
 813 0008 57415645 		.ascii	"WAVE\000"
 813      00
 814 000d 000000   		.space	3
 815              		.type	fmtStr, %object
 816              		.size	fmtStr, 5
 817              	fmtStr:
 818 0010 666D7420 		.ascii	"fmt \000"
 818      00
 819 0015 000000   		.space	3
 820              		.type	dataStr, %object
 821              		.size	dataStr, 5
 822              	dataStr:
 823 0018 64617461 		.ascii	"data\000"
 823      00
 824              		.data
 825              		.align	2
 826              		.set	.LANCHOR3,. + 0
 827              		.type	playerCb, %object
 828              		.size	playerCb, 8
 829              	playerCb:
 830 0000 00000000 		.word	pcmPlayerLoadNextCb
 831 0004 00000000 		.word	pcmPlayerOnEnd
 832              		.section	.rodata.str1.4,"aMS",%progbits,1
 833              		.align	2
 834              	.LC0:
 835 0000 50434D3A 		.ascii	"PCM: End\015\012\000"
 835      20456E64 
 835      0D0A00
 836 000b 00       		.space	1
 837              	.LC2:
 838 000c 50434D3A 		.ascii	"PCM: Stop and close the file\015\012\000"
 838      2053746F 
 838      7020616E 
 838      6420636C 
 838      6F736520 
 839 002b 00       		.space	1
 840              	.LC7:
 841 002c 70636D50 		.ascii	"pcmPlayer.c\000"
 841      6C617965 
 841      722E6300 
 842              	.LC9:
 843 0038 52756E74 		.ascii	"RuntimeError: Assert in file: %s line: %d\015\012\000"
 843      696D6545 
 843      72726F72 
 843      3A204173 
ARM GAS  C:\Users\DMYTRO~1.FED\AppData\Local\Temp\ccOkeSjq.s 			page 23


 843      73657274 
 844              	.LC11:
 845 0064 50434D3A 		.ascii	"PCM: f_read failed\015\012\000"
 845      20665F72 
 845      65616420 
 845      6661696C 
 845      65640D0A 
 846 0079 000000   		.space	3
 847              	.LC14:
 848 007c 50434D3A 		.ascii	"PCM: Failed to read WAV header %d\015\012\000"
 848      20466169 
 848      6C656420 
 848      746F2072 
 848      65616420 
 849              	.LC16:
 850 00a0 50434D3A 		.ascii	"PCM: Failed to read WAV header - incorrect length\015"
 850      20466169 
 850      6C656420 
 850      746F2072 
 850      65616420 
 851 00d2 0A00     		.ascii	"\012\000"
 852              	.LC19:
 853 00d4 50434D3A 		.ascii	"PCM: Failed to read WAV header - wrong chunk id\015"
 853      20466169 
 853      6C656420 
 853      746F2072 
 853      65616420 
 854 0104 0A00     		.ascii	"\012\000"
 855 0106 0000     		.space	2
 856              	.LC21:
 857 0108 50434D3A 		.ascii	"PCM: Failed to read WAV header - wrong format id\015"
 857      20466169 
 857      6C656420 
 857      746F2072 
 857      65616420 
 858 0139 0A00     		.ascii	"\012\000"
 859 013b 00       		.space	1
 860              	.LC23:
 861 013c 50434D3A 		.ascii	"PCM: Failed to read WAV header - wrong subchunk1 id"
 861      20466169 
 861      6C656420 
 861      746F2072 
 861      65616420 
 862 016f 0D0A00   		.ascii	"\015\012\000"
 863 0172 0000     		.space	2
 864              	.LC25:
 865 0174 50434D3A 		.ascii	"PCM: Failed to read WAV header - wrong subchunk2 id"
 865      20466169 
 865      6C656420 
 865      746F2072 
 865      65616420 
 866 01a7 0D0A00   		.ascii	"\015\012\000"
 867 01aa 0000     		.space	2
 868              	.LC27:
 869 01ac 50434D3A 		.ascii	"PCM: Only uncompress pcm supported. Sorry\015\012\000"
 869      204F6E6C 
 869      7920756E 
ARM GAS  C:\Users\DMYTRO~1.FED\AppData\Local\Temp\ccOkeSjq.s 			page 24


 869      636F6D70 
 869      72657373 
 870              	.LC29:
 871 01d8 50434D3A 		.ascii	"PCM: Sample rate not supported\015\012\000"
 871      2053616D 
 871      706C6520 
 871      72617465 
 871      206E6F74 
 872 01f9 000000   		.space	3
 873              	.LC31:
 874 01fc 50434D3A 		.ascii	"PCM: Only 1 channel supported\015\012\000"
 874      204F6E6C 
 874      79203120 
 874      6368616E 
 874      6E656C20 
 875              	.LC33:
 876 021c 50434D3A 		.ascii	"PCM: Only 8 bit supported\015\012\000"
 876      204F6E6C 
 876      79203820 
 876      62697420 
 876      73757070 
 877              	.LC36:
 878 0238 50434D3A 		.ascii	"PCM: Play\\Continue\015\012\000"
 878      20506C61 
 878      795C436F 
 878      6E74696E 
 878      75650D0A 
 879 024d 000000   		.space	3
 880              	.LC39:
 881 0250 50434D3A 		.ascii	"PCM: Continue - not open\015\012\000"
 881      20436F6E 
 881      74696E75 
 881      65202D20 
 881      6E6F7420 
 882 026b 00       		.space	1
 883              	.LC41:
 884 026c 50434D3A 		.ascii	"PCM: Play %s\015\012\000"
 884      20506C61 
 884      79202573 
 884      0D0A00
 885 027b 00       		.space	1
 886              	.LC44:
 887 027c 50434D3A 		.ascii	"PCM: Failed at open %d\015\012\000"
 887      20466169 
 887      6C656420 
 887      6174206F 
 887      70656E20 
 888              		.bss
 889              		.align	2
 890              		.set	.LANCHOR0,. + 0
 891              		.set	.LANCHOR2,. + 512
 892              		.type	needStop, %object
 893              		.size	needStop, 1
 894              	needStop:
 895 0000 00       		.space	1
 896              		.type	isOpen, %object
 897              		.size	isOpen, 1
ARM GAS  C:\Users\DMYTRO~1.FED\AppData\Local\Temp\ccOkeSjq.s 			page 25


 898              	isOpen:
 899 0001 00       		.space	1
 900 0002 0000     		.space	2
 901              		.type	fp, %object
 902              		.size	fp, 548
 903              	fp:
 904 0004 00000000 		.space	548
 904      00000000 
 904      00000000 
 904      00000000 
 904      00000000 
 905              		.type	sampleRate, %object
 906              		.size	sampleRate, 4
 907              	sampleRate:
 908 0228 00000000 		.space	4
 909              		.text
 910              	.Letext0:
 911              		.file 2 "c:\\program files (x86)\\cypress\\psoc creator\\4.2\\psoc creator\\import\\gnu\\arm\\5.4.
 912              		.file 3 "c:\\program files (x86)\\cypress\\psoc creator\\4.2\\psoc creator\\import\\gnu\\arm\\5.4.
 913              		.file 4 "buffer.h"
 914              		.file 5 "player.h"
 915              		.file 6 "fatfs\\integer.h"
 916              		.file 7 "audio.h"
 917              		.file 8 "fatfs\\diskio.h"
 918              		.file 9 "fatfs\\ff.h"
 919              		.file 10 "uartPrint.h"
 920              		.file 11 "card.h"
 921              		.file 12 "c:\\program files (x86)\\cypress\\psoc creator\\4.2\\psoc creator\\import\\gnu\\arm\\5.4