ARM GAS  C:\Users\DMYTRO~1.FED\AppData\Local\Temp\cctdc708.s 			page 1


   1              		.syntax unified
   2              		.cpu cortex-m0plus
   3              		.fpu softvfp
   4              		.eabi_attribute 20, 1
   5              		.eabi_attribute 21, 1
   6              		.eabi_attribute 23, 3
   7              		.eabi_attribute 24, 1
   8              		.eabi_attribute 25, 1
   9              		.eabi_attribute 26, 1
  10              		.eabi_attribute 30, 1
  11              		.eabi_attribute 34, 0
  12              		.eabi_attribute 18, 4
  13              		.thumb
  14              		.syntax unified
  15              		.file	"sdcard.c"
  16              		.text
  17              	.Ltext0:
  18              		.cfi_sections	.debug_frame
  19              		.section	.text.rcvr_mmc,"ax",%progbits
  20              		.align	2
  21              		.code	16
  22              		.thumb_func
  23              		.type	rcvr_mmc, %function
  24              	rcvr_mmc:
  25              	.LFB34:
  26              		.file 1 "fatfs\\sdcard.c"
   1:fatfs/sdcard.c **** /*------------------------------------------------------------------------/
   2:fatfs/sdcard.c **** /  Foolproof MMCv3/SDv1/SDv2 (in SPI mode) control module
   3:fatfs/sdcard.c **** /-------------------------------------------------------------------------/
   4:fatfs/sdcard.c **** /
   5:fatfs/sdcard.c **** /  Copyright (C) 2013, ChaN, all right reserved.
   6:fatfs/sdcard.c **** /
   7:fatfs/sdcard.c **** / * This software is a free software and there is NO WARRANTY.
   8:fatfs/sdcard.c **** / * No restriction on use. You can use, modify and redistribute it for
   9:fatfs/sdcard.c **** /   personal, non-profit or commercial products UNDER YOUR RESPONSIBILITY.
  10:fatfs/sdcard.c **** / * Redistributions of source code must retain the above copyright notice.
  11:fatfs/sdcard.c **** /
  12:fatfs/sdcard.c **** /-------------------------------------------------------------------------/
  13:fatfs/sdcard.c ****   Features and Limitations:
  14:fatfs/sdcard.c **** 
  15:fatfs/sdcard.c ****   * Easy to Port Bit-banging SPI
  16:fatfs/sdcard.c ****     It uses only four GPIO pins. No complex peripheral needs to be used.
  17:fatfs/sdcard.c **** 
  18:fatfs/sdcard.c ****   * No Media Change Detection
  19:fatfs/sdcard.c ****     Application program needs to perform a f_mount() after media change.
  20:fatfs/sdcard.c **** 
  21:fatfs/sdcard.c **** /-------------------------------------------------------------------------*/
  22:fatfs/sdcard.c **** 
  23:fatfs/sdcard.c **** 
  24:fatfs/sdcard.c **** #include "diskio.h"		/* Common include file for FatFs and disk I/O layer */
  25:fatfs/sdcard.c **** 
  26:fatfs/sdcard.c **** 
  27:fatfs/sdcard.c **** /*-------------------------------------------------------------------------*/
  28:fatfs/sdcard.c **** /* Platform dependent macros and functions needed to be modified           */
  29:fatfs/sdcard.c **** /*-------------------------------------------------------------------------*/
  30:fatfs/sdcard.c **** 
  31:fatfs/sdcard.c **** #include <project.h>
ARM GAS  C:\Users\DMYTRO~1.FED\AppData\Local\Temp\cctdc708.s 			page 2


  32:fatfs/sdcard.c **** #include <cytypes.h>
  33:fatfs/sdcard.c **** 
  34:fatfs/sdcard.c ****     /* Put here the same name of the SPI bus module you have used in schematic. */
  35:fatfs/sdcard.c **** #define SPI_NAME                SPI  
  36:fatfs/sdcard.c ****     /* Put here function used to control SPI SS line.
  37:fatfs/sdcard.c ****        Example: 
  38:fatfs/sdcard.c ****         - if using Cypress API macros: SPI_ss0_m_Write
  39:fatfs/sdcard.c ****         - if using another gpio pint: SPI_SS_Write. */
  40:fatfs/sdcard.c **** #define mmSPI_SS_Write(value)   SPI_ss0_m_Write(value)
  41:fatfs/sdcard.c **** //#define mmSPI_SS_Write(value)     SPI_SS_Write(value)        
  42:fatfs/sdcard.c **** 
  43:fatfs/sdcard.c **** #define CS_DELAY_US             1
  44:fatfs/sdcard.c **** #define M_DELAY_US              1
  45:fatfs/sdcard.c **** #define DELAY(x)                CyDelayUs(x)
  46:fatfs/sdcard.c **** 
  47:fatfs/sdcard.c ****     /* Text substitution macros to avoid changing function names related to SPI API
  48:fatfs/sdcard.c ****        if SPI module name is changed in schematic. */
  49:fatfs/sdcard.c **** 
  50:fatfs/sdcard.c **** #define CONCATENATE(name, function)                 CONCAT(name, function)
  51:fatfs/sdcard.c **** #define CONCAT(name, function)                      name##function
  52:fatfs/sdcard.c **** 
  53:fatfs/sdcard.c **** #if (CY_PSOC4)
  54:fatfs/sdcard.c **** 
  55:fatfs/sdcard.c ****     #define mmSPI_SpiUartClearTxBuffer                  CONCATENATE(SPI_NAME, _SpiUartClearTxBuffer
  56:fatfs/sdcard.c ****     #define mmSPI_SpiUartClearRxBuffer                  CONCATENATE(SPI_NAME, _SpiUartClearRxBuffer
  57:fatfs/sdcard.c ****     #define mmSPI_SpiUartPutArray(a, b)                 CONCATENATE(SPI_NAME, _SpiUartPutArray(a, b
  58:fatfs/sdcard.c ****     #define mmSPI_SpiUartWriteTxData(value)             CONCATENATE(SPI_NAME, _SpiUartWriteTxData(v
  59:fatfs/sdcard.c ****     #define mmSPI_SpiUartReadRxData                     CONCATENATE(SPI_NAME, _SpiUartReadRxData)
  60:fatfs/sdcard.c ****     #define mmSPI_GetMasterInterruptSource              CONCATENATE(SPI_NAME, _GetMasterInterruptSo
  61:fatfs/sdcard.c ****     #define mmSPI_ClearMasterInterruptSource(value)     CONCATENATE(SPI_NAME, _ClearMasterInterrupt
  62:fatfs/sdcard.c ****     #define mmSPI_INTR_MASTER_SPI_DONE                  CONCATENATE(SPI_NAME, _INTR_MASTER_SPI_DONE
  63:fatfs/sdcard.c ****     #define mmSPI_SpiUartGetRxBufferSize                CONCATENATE(SPI_NAME, _SpiUartGetRxBufferSi
  64:fatfs/sdcard.c ****     #define mmSPI_SpiUartGetTxBufferSize                CONCATENATE(SPI_NAME, _SpiUartGetTxBufferSi
  65:fatfs/sdcard.c ****     #define mmSPI_SpiFullRXSize                         CONCATENATE(SPI_NAME, _SPI_RX_BUFFER_SIZE)
  66:fatfs/sdcard.c **** #endif    
  67:fatfs/sdcard.c **** 
  68:fatfs/sdcard.c **** #if (CY_PSOC5LP) 
  69:fatfs/sdcard.c ****     #define mmSPI_SpiUartClearTxBuffer                  CONCATENATE(SPI_NAME, _ClearTxBuffer)
  70:fatfs/sdcard.c ****     #define mmSPI_SpiUartClearRxBuffer                  CONCATENATE(SPI_NAME, _ClearRxBuffer)    
  71:fatfs/sdcard.c ****     #define mmSPI_SpiUartPutArray(a, b)                 CONCATENATE(SPI_NAME, _PutArray(a, b)) 
  72:fatfs/sdcard.c ****     #define mmSPI_SpiUartWriteTxData(value)             CONCATENATE(SPI_NAME, _WriteTxData(value))
  73:fatfs/sdcard.c ****     #define mmSPI_SpiUartReadRxData                     CONCATENATE(SPI_NAME, _ReadRxData)
  74:fatfs/sdcard.c ****     #define mmSPI_GetMasterInterruptSource              CONCATENATE(SPI_NAME, _GetMasterInterruptSo
  75:fatfs/sdcard.c ****     #define mmSPI_ClearMasterInterruptSource(value)     CONCATENATE(SPI_NAME, _ClearMasterInterrupt
  76:fatfs/sdcard.c ****     #define mmSPI_INTR_MASTER_SPI_DONE                  CONCATENATE(SPI_NAME, _INTR_MASTER_SPI_DONE
  77:fatfs/sdcard.c **** #endif 
  78:fatfs/sdcard.c **** 
  79:fatfs/sdcard.c ****     /* Delays. */
  80:fatfs/sdcard.c **** #define dly_us(n)               DELAY(n); /* Delay n microseconds. */
  81:fatfs/sdcard.c **** 
  82:fatfs/sdcard.c **** /*--------------------------------------------------------------------------
  83:fatfs/sdcard.c **** 
  84:fatfs/sdcard.c ****    Module Private Functions
  85:fatfs/sdcard.c **** 
  86:fatfs/sdcard.c **** ---------------------------------------------------------------------------*/
  87:fatfs/sdcard.c **** 
  88:fatfs/sdcard.c **** /* MMC/SD command (SPI mode) */
ARM GAS  C:\Users\DMYTRO~1.FED\AppData\Local\Temp\cctdc708.s 			page 3


  89:fatfs/sdcard.c **** #define CMD0	(0)			/* GO_IDLE_STATE */
  90:fatfs/sdcard.c **** #define CMD1	(1)			/* SEND_OP_COND */
  91:fatfs/sdcard.c **** #define	ACMD41	(0x80+41)	/* SEND_OP_COND (SDC) */
  92:fatfs/sdcard.c **** #define CMD8	(8)			/* SEND_IF_COND */
  93:fatfs/sdcard.c **** #define CMD9	(9)			/* SEND_CSD */
  94:fatfs/sdcard.c **** #define CMD10	(10)		/* SEND_CID */
  95:fatfs/sdcard.c **** #define CMD12	(12)		/* STOP_TRANSMISSION */
  96:fatfs/sdcard.c **** #define CMD13	(13)		/* SEND_STATUS */
  97:fatfs/sdcard.c **** #define ACMD13	(0x80+13)	/* SD_STATUS (SDC) */
  98:fatfs/sdcard.c **** #define CMD16	(16)		/* SET_BLOCKLEN */
  99:fatfs/sdcard.c **** #define CMD17	(17)		/* READ_SINGLE_BLOCK */
 100:fatfs/sdcard.c **** #define CMD18	(18)		/* READ_MULTIPLE_BLOCK */
 101:fatfs/sdcard.c **** #define CMD23	(23)		/* SET_BLOCK_COUNT */
 102:fatfs/sdcard.c **** #define	ACMD23	(0x80+23)	/* SET_WR_BLK_ERASE_COUNT (SDC) */
 103:fatfs/sdcard.c **** #define CMD24	(24)		/* WRITE_BLOCK */
 104:fatfs/sdcard.c **** #define CMD25	(25)		/* WRITE_MULTIPLE_BLOCK */
 105:fatfs/sdcard.c **** #define CMD32	(32)		/* ERASE_ER_BLK_START */
 106:fatfs/sdcard.c **** #define CMD33	(33)		/* ERASE_ER_BLK_END */
 107:fatfs/sdcard.c **** #define CMD38	(38)		/* ERASE */
 108:fatfs/sdcard.c **** #define CMD55	(55)		/* APP_CMD */
 109:fatfs/sdcard.c **** #define CMD58	(58)		/* READ_OCR */
 110:fatfs/sdcard.c **** 
 111:fatfs/sdcard.c **** 
 112:fatfs/sdcard.c **** static DSTATUS Stat = STA_NOINIT;	/* Disk status */
 113:fatfs/sdcard.c **** 
 114:fatfs/sdcard.c **** static BYTE CardType;			/* b0:MMC, b1:SDv1, b2:SDv2, b3:Block addressing */
 115:fatfs/sdcard.c **** 
 116:fatfs/sdcard.c **** /*-----------------------------------------------------------------------*/
 117:fatfs/sdcard.c **** /* Transmit bytes to the card                                            */
 118:fatfs/sdcard.c **** /*-----------------------------------------------------------------------*/
 119:fatfs/sdcard.c **** 
 120:fatfs/sdcard.c **** static void xmit_mmc(const BYTE* buff, UINT bc)
 121:fatfs/sdcard.c **** {
 122:fatfs/sdcard.c **** 
 123:fatfs/sdcard.c **** #if (CY_PSOC4)
 124:fatfs/sdcard.c ****     
 125:fatfs/sdcard.c ****     mmSPI_SpiUartClearTxBuffer();
 126:fatfs/sdcard.c ****     mmSPI_SpiUartClearRxBuffer();
 127:fatfs/sdcard.c ****     mmSPI_SpiUartPutArray(buff, bc);    
 128:fatfs/sdcard.c ****     while(0u == (mmSPI_GetMasterInterruptSource() & mmSPI_INTR_MASTER_SPI_DONE));
 129:fatfs/sdcard.c **** #endif
 130:fatfs/sdcard.c **** 
 131:fatfs/sdcard.c **** #if (CY_PSOC5LP)
 132:fatfs/sdcard.c ****     
 133:fatfs/sdcard.c ****     UINT loop;
 134:fatfs/sdcard.c ****     
 135:fatfs/sdcard.c ****     SPI_ClearTxBuffer();
 136:fatfs/sdcard.c ****     SPI_ClearRxBuffer();
 137:fatfs/sdcard.c ****     
 138:fatfs/sdcard.c ****     for (loop = 0; loop < bc; loop++)
 139:fatfs/sdcard.c ****         SPI_WriteTxData(buff[loop]);
 140:fatfs/sdcard.c ****     
 141:fatfs/sdcard.c ****     while (SPI_GetTxBufferSize()) {};
 142:fatfs/sdcard.c ****     
 143:fatfs/sdcard.c **** #endif    
 144:fatfs/sdcard.c **** }
 145:fatfs/sdcard.c **** 
ARM GAS  C:\Users\DMYTRO~1.FED\AppData\Local\Temp\cctdc708.s 			page 4


 146:fatfs/sdcard.c **** 
 147:fatfs/sdcard.c **** 
 148:fatfs/sdcard.c **** /*-----------------------------------------------------------------------*/
 149:fatfs/sdcard.c **** /* Receive bytes from the card                                           */
 150:fatfs/sdcard.c **** /*-----------------------------------------------------------------------*/
 151:fatfs/sdcard.c **** 
 152:fatfs/sdcard.c **** static void rcvr_mmc(BYTE *buff, UINT bc)
 153:fatfs/sdcard.c **** {
  27              		.loc 1 153 0
  28              		.cfi_startproc
  29              		@ args = 0, pretend = 0, frame = 0
  30              		@ frame_needed = 0, uses_anonymous_args = 0
  31              	.LVL0:
  32 0000 70B5     		push	{r4, r5, r6, lr}
  33              		.cfi_def_cfa_offset 16
  34              		.cfi_offset 4, -16
  35              		.cfi_offset 5, -12
  36              		.cfi_offset 6, -8
  37              		.cfi_offset 14, -4
  38 0002 0500     		movs	r5, r0
  39 0004 0C00     		movs	r4, r1
  40 0006 00E0     		b	.L3
  41              	.LVL1:
  42              	.L4:
 154:fatfs/sdcard.c **** 
 155:fatfs/sdcard.c ****    
 156:fatfs/sdcard.c **** #if (CY_PSOC4) 
 157:fatfs/sdcard.c ****   #if 0
 158:fatfs/sdcard.c ****     mmSPI_SpiUartClearTxBuffer();
 159:fatfs/sdcard.c ****     mmSPI_SpiUartClearRxBuffer();
 160:fatfs/sdcard.c ****   #endif 
 161:fatfs/sdcard.c ****     do
 162:fatfs/sdcard.c ****     {
 163:fatfs/sdcard.c ****         mmSPI_SpiUartWriteTxData(0xFF);
 164:fatfs/sdcard.c ****         while (!mmSPI_SpiUartGetRxBufferSize()) {};
 165:fatfs/sdcard.c ****         *buff++ = (BYTE)mmSPI_SpiUartReadRxData();
  43              		.loc 1 165 0
  44 0008 3500     		movs	r5, r6
  45              	.LVL2:
  46              	.L3:
 163:fatfs/sdcard.c ****         while (!mmSPI_SpiUartGetRxBufferSize()) {};
  47              		.loc 1 163 0
  48 000a FF20     		movs	r0, #255
  49 000c FFF7FEFF 		bl	SPI_SpiUartWriteTxData
  50              	.LVL3:
  51              	.L2:
 164:fatfs/sdcard.c ****         *buff++ = (BYTE)mmSPI_SpiUartReadRxData();
  52              		.loc 1 164 0 discriminator 1
  53 0010 FFF7FEFF 		bl	SPI_SpiUartGetRxBufferSize
  54              	.LVL4:
  55 0014 0028     		cmp	r0, #0
  56 0016 FBD0     		beq	.L2
  57              		.loc 1 165 0
  58 0018 6E1C     		adds	r6, r5, #1
  59              	.LVL5:
  60 001a FFF7FEFF 		bl	SPI_SpiUartReadRxData
  61              	.LVL6:
ARM GAS  C:\Users\DMYTRO~1.FED\AppData\Local\Temp\cctdc708.s 			page 5


  62 001e 2870     		strb	r0, [r5]
 166:fatfs/sdcard.c ****     } while (--bc);   
  63              		.loc 1 166 0
  64 0020 013C     		subs	r4, r4, #1
  65              	.LVL7:
  66 0022 002C     		cmp	r4, #0
  67 0024 F0D1     		bne	.L4
 167:fatfs/sdcard.c **** 
 168:fatfs/sdcard.c **** #endif    
 169:fatfs/sdcard.c ****     
 170:fatfs/sdcard.c **** #if (CY_PSOC5LP)
 171:fatfs/sdcard.c ****     
 172:fatfs/sdcard.c ****     SPI_ClearTxBuffer();
 173:fatfs/sdcard.c ****     SPI_ClearRxBuffer();
 174:fatfs/sdcard.c ****     
 175:fatfs/sdcard.c ****     do
 176:fatfs/sdcard.c ****     {
 177:fatfs/sdcard.c **** 
 178:fatfs/sdcard.c ****         SPI_WriteTxData(0xFF);
 179:fatfs/sdcard.c ****         while (SPI_GetTxBufferSize()) {};
 180:fatfs/sdcard.c ****         DELAY(M_DELAY_US); // <*> adjust, why?
 181:fatfs/sdcard.c ****         *buff++ = (BYTE)SPI_ReadRxData();
 182:fatfs/sdcard.c **** 
 183:fatfs/sdcard.c ****     } while (--bc);    
 184:fatfs/sdcard.c ****     
 185:fatfs/sdcard.c **** #endif        
 186:fatfs/sdcard.c **** 
 187:fatfs/sdcard.c **** }
  68              		.loc 1 187 0
  69              		@ sp needed
  70              	.LVL8:
  71              	.LVL9:
  72 0026 70BD     		pop	{r4, r5, r6, pc}
  73              		.cfi_endproc
  74              	.LFE34:
  75              		.size	rcvr_mmc, .-rcvr_mmc
  76              		.section	.text.wait_ready,"ax",%progbits
  77              		.align	2
  78              		.code	16
  79              		.thumb_func
  80              		.type	wait_ready, %function
  81              	wait_ready:
  82              	.LFB35:
 188:fatfs/sdcard.c **** 
 189:fatfs/sdcard.c **** 
 190:fatfs/sdcard.c **** 
 191:fatfs/sdcard.c **** /*-----------------------------------------------------------------------*/
 192:fatfs/sdcard.c **** /* Wait for card ready                                                   */
 193:fatfs/sdcard.c **** /*-----------------------------------------------------------------------*/
 194:fatfs/sdcard.c **** 
 195:fatfs/sdcard.c **** static int wait_ready(void)	/* 1:OK, 0:Timeout */
 196:fatfs/sdcard.c **** {
  83              		.loc 1 196 0
  84              		.cfi_startproc
  85              		@ args = 0, pretend = 0, frame = 8
  86              		@ frame_needed = 0, uses_anonymous_args = 0
  87 0000 30B5     		push	{r4, r5, lr}
ARM GAS  C:\Users\DMYTRO~1.FED\AppData\Local\Temp\cctdc708.s 			page 6


  88              		.cfi_def_cfa_offset 12
  89              		.cfi_offset 4, -12
  90              		.cfi_offset 5, -8
  91              		.cfi_offset 14, -4
  92 0002 83B0     		sub	sp, sp, #12
  93              		.cfi_def_cfa_offset 24
  94              	.LVL10:
 197:fatfs/sdcard.c **** 	BYTE d;
 198:fatfs/sdcard.c **** 	UINT tmr;
 199:fatfs/sdcard.c **** 
 200:fatfs/sdcard.c **** 	for (tmr = 5000; tmr; tmr--) {	/* Wait for ready in timeout of 500ms */
  95              		.loc 1 200 0
  96 0004 094C     		ldr	r4, .L9
  97 0006 09E0     		b	.L6
  98              	.LVL11:
  99              	.L8:
 201:fatfs/sdcard.c **** 		rcvr_mmc(&d, 1);
 100              		.loc 1 201 0
 101 0008 6B46     		mov	r3, sp
 102 000a DD1D     		adds	r5, r3, #7
 103 000c 0121     		movs	r1, #1
 104 000e 2800     		movs	r0, r5
 105 0010 FFF7FEFF 		bl	rcvr_mmc
 106              	.LVL12:
 202:fatfs/sdcard.c **** 		if (d == 0xFF) break;
 107              		.loc 1 202 0
 108 0014 2B78     		ldrb	r3, [r5]
 109 0016 FF2B     		cmp	r3, #255
 110 0018 02D0     		beq	.L7
 200:fatfs/sdcard.c **** 		rcvr_mmc(&d, 1);
 111              		.loc 1 200 0 discriminator 2
 112 001a 013C     		subs	r4, r4, #1
 113              	.LVL13:
 114              	.L6:
 200:fatfs/sdcard.c **** 		rcvr_mmc(&d, 1);
 115              		.loc 1 200 0 is_stmt 0 discriminator 1
 116 001c 002C     		cmp	r4, #0
 117 001e F3D1     		bne	.L8
 118              	.L7:
 203:fatfs/sdcard.c **** 		//dly_us(1);
 204:fatfs/sdcard.c **** 	}
 205:fatfs/sdcard.c **** 
 206:fatfs/sdcard.c **** 	return tmr ? 1 : 0;
 119              		.loc 1 206 0 is_stmt 1
 120 0020 601E     		subs	r0, r4, #1
 121 0022 8441     		sbcs	r4, r4, r0
 122              	.LVL14:
 123 0024 E0B2     		uxtb	r0, r4
 207:fatfs/sdcard.c **** }
 124              		.loc 1 207 0
 125 0026 03B0     		add	sp, sp, #12
 126              		@ sp needed
 127 0028 30BD     		pop	{r4, r5, pc}
 128              	.L10:
 129 002a C046     		.align	2
 130              	.L9:
 131 002c 88130000 		.word	5000
ARM GAS  C:\Users\DMYTRO~1.FED\AppData\Local\Temp\cctdc708.s 			page 7


 132              		.cfi_endproc
 133              	.LFE35:
 134              		.size	wait_ready, .-wait_ready
 135              		.section	.text.rcvr_datablock,"ax",%progbits
 136              		.align	2
 137              		.code	16
 138              		.thumb_func
 139              		.type	rcvr_datablock, %function
 140              	rcvr_datablock:
 141              	.LFB38:
 208:fatfs/sdcard.c **** 
 209:fatfs/sdcard.c **** /*-----------------------------------------------------------------------*/
 210:fatfs/sdcard.c **** /* Deselect the card and release SPI bus                                 */
 211:fatfs/sdcard.c **** /*-----------------------------------------------------------------------*/
 212:fatfs/sdcard.c **** 
 213:fatfs/sdcard.c **** static void deselect(void)
 214:fatfs/sdcard.c **** {
 215:fatfs/sdcard.c ****     SPI_ss0_m_Write(1);
 216:fatfs/sdcard.c **** }
 217:fatfs/sdcard.c **** 
 218:fatfs/sdcard.c **** /*-----------------------------------------------------------------------*/
 219:fatfs/sdcard.c **** /* Select the card and wait for ready                                    */
 220:fatfs/sdcard.c **** /*-----------------------------------------------------------------------*/
 221:fatfs/sdcard.c **** 
 222:fatfs/sdcard.c **** static int select(void)	/* 1:OK, 0:Timeout */
 223:fatfs/sdcard.c **** {
 224:fatfs/sdcard.c **** 
 225:fatfs/sdcard.c ****     SPI_ss0_m_Write(0);
 226:fatfs/sdcard.c **** 	if (wait_ready()) return 1;	/* Wait for card ready */
 227:fatfs/sdcard.c **** 
 228:fatfs/sdcard.c **** 	deselect();
 229:fatfs/sdcard.c **** 	return 0;			/* Failed */
 230:fatfs/sdcard.c **** }
 231:fatfs/sdcard.c **** 
 232:fatfs/sdcard.c **** /*-----------------------------------------------------------------------*/
 233:fatfs/sdcard.c **** /* Receive a data packet from the card                                   */
 234:fatfs/sdcard.c **** /*-----------------------------------------------------------------------*/
 235:fatfs/sdcard.c **** 
 236:fatfs/sdcard.c **** static int rcvr_datablock(BYTE *buff, UINT btr) 	/* 1:OK, 0:Failed */
 237:fatfs/sdcard.c **** {
 142              		.loc 1 237 0
 143              		.cfi_startproc
 144              		@ args = 0, pretend = 0, frame = 8
 145              		@ frame_needed = 0, uses_anonymous_args = 0
 146              	.LVL15:
 147 0000 F0B5     		push	{r4, r5, r6, r7, lr}
 148              		.cfi_def_cfa_offset 20
 149              		.cfi_offset 4, -20
 150              		.cfi_offset 5, -16
 151              		.cfi_offset 6, -12
 152              		.cfi_offset 7, -8
 153              		.cfi_offset 14, -4
 154 0002 83B0     		sub	sp, sp, #12
 155              		.cfi_def_cfa_offset 32
 156 0004 0600     		movs	r6, r0
 157 0006 0F00     		movs	r7, r1
 158              	.LVL16:
ARM GAS  C:\Users\DMYTRO~1.FED\AppData\Local\Temp\cctdc708.s 			page 8


 238:fatfs/sdcard.c **** 	BYTE d[2];
 239:fatfs/sdcard.c **** 	UINT tmr;
 240:fatfs/sdcard.c **** 
 241:fatfs/sdcard.c **** 	for (tmr = 1000; tmr; tmr--) {	/* Wait for data packet in timeout of 100ms */
 159              		.loc 1 241 0
 160 0008 FA25     		movs	r5, #250
 161 000a AD00     		lsls	r5, r5, #2
 162 000c 08E0     		b	.L12
 163              	.LVL17:
 164              	.L14:
 242:fatfs/sdcard.c **** 		rcvr_mmc(d, 1);
 165              		.loc 1 242 0
 166 000e 01AC     		add	r4, sp, #4
 167 0010 0121     		movs	r1, #1
 168 0012 2000     		movs	r0, r4
 169 0014 FFF7FEFF 		bl	rcvr_mmc
 170              	.LVL18:
 243:fatfs/sdcard.c **** 		if (d[0] != 0xFF) break;
 171              		.loc 1 243 0
 172 0018 2378     		ldrb	r3, [r4]
 173 001a FF2B     		cmp	r3, #255
 174 001c 02D1     		bne	.L13
 241:fatfs/sdcard.c **** 		rcvr_mmc(d, 1);
 175              		.loc 1 241 0 discriminator 2
 176 001e 013D     		subs	r5, r5, #1
 177              	.LVL19:
 178              	.L12:
 241:fatfs/sdcard.c **** 		rcvr_mmc(d, 1);
 179              		.loc 1 241 0 is_stmt 0 discriminator 1
 180 0020 002D     		cmp	r5, #0
 181 0022 F4D1     		bne	.L14
 182              	.L13:
 244:fatfs/sdcard.c **** 	}
 245:fatfs/sdcard.c **** 	if (d[0] != 0xFE) return 0;		/* If not valid data token, return with error */
 183              		.loc 1 245 0 is_stmt 1
 184 0024 01AB     		add	r3, sp, #4
 185 0026 1B78     		ldrb	r3, [r3]
 186 0028 FE2B     		cmp	r3, #254
 187 002a 09D1     		bne	.L16
 246:fatfs/sdcard.c **** 
 247:fatfs/sdcard.c **** 	rcvr_mmc(buff, btr);			/* Receive the data block into buffer */
 188              		.loc 1 247 0
 189 002c 3900     		movs	r1, r7
 190 002e 3000     		movs	r0, r6
 191 0030 FFF7FEFF 		bl	rcvr_mmc
 192              	.LVL20:
 248:fatfs/sdcard.c **** 	rcvr_mmc(d, 2);					/* Discard CRC */
 193              		.loc 1 248 0
 194 0034 0221     		movs	r1, #2
 195 0036 01A8     		add	r0, sp, #4
 196 0038 FFF7FEFF 		bl	rcvr_mmc
 197              	.LVL21:
 249:fatfs/sdcard.c **** 
 250:fatfs/sdcard.c **** 	return 1;						/* Return with success */
 198              		.loc 1 250 0
 199 003c 0120     		movs	r0, #1
 200 003e 00E0     		b	.L15
ARM GAS  C:\Users\DMYTRO~1.FED\AppData\Local\Temp\cctdc708.s 			page 9


 201              	.L16:
 245:fatfs/sdcard.c **** 
 202              		.loc 1 245 0
 203 0040 0020     		movs	r0, #0
 204              	.L15:
 251:fatfs/sdcard.c **** }
 205              		.loc 1 251 0
 206 0042 03B0     		add	sp, sp, #12
 207              		@ sp needed
 208              	.LVL22:
 209              	.LVL23:
 210              	.LVL24:
 211 0044 F0BD     		pop	{r4, r5, r6, r7, pc}
 212              		.cfi_endproc
 213              	.LFE38:
 214              		.size	rcvr_datablock, .-rcvr_datablock
 215 0046 C046     		.section	.text.deselect,"ax",%progbits
 216              		.align	2
 217              		.code	16
 218              		.thumb_func
 219              		.type	deselect, %function
 220              	deselect:
 221              	.LFB36:
 214:fatfs/sdcard.c ****     SPI_ss0_m_Write(1);
 222              		.loc 1 214 0
 223              		.cfi_startproc
 224              		@ args = 0, pretend = 0, frame = 0
 225              		@ frame_needed = 0, uses_anonymous_args = 0
 226 0000 10B5     		push	{r4, lr}
 227              		.cfi_def_cfa_offset 8
 228              		.cfi_offset 4, -8
 229              		.cfi_offset 14, -4
 215:fatfs/sdcard.c **** }
 230              		.loc 1 215 0
 231 0002 0120     		movs	r0, #1
 232 0004 FFF7FEFF 		bl	SPI_ss0_m_Write
 233              	.LVL25:
 216:fatfs/sdcard.c **** 
 234              		.loc 1 216 0
 235              		@ sp needed
 236 0008 10BD     		pop	{r4, pc}
 237              		.cfi_endproc
 238              	.LFE36:
 239              		.size	deselect, .-deselect
 240              		.section	.text.select,"ax",%progbits
 241              		.align	2
 242              		.code	16
 243              		.thumb_func
 244              		.type	select, %function
 245              	select:
 246              	.LFB37:
 223:fatfs/sdcard.c **** 
 247              		.loc 1 223 0
 248              		.cfi_startproc
 249              		@ args = 0, pretend = 0, frame = 0
 250              		@ frame_needed = 0, uses_anonymous_args = 0
 251 0000 10B5     		push	{r4, lr}
ARM GAS  C:\Users\DMYTRO~1.FED\AppData\Local\Temp\cctdc708.s 			page 10


 252              		.cfi_def_cfa_offset 8
 253              		.cfi_offset 4, -8
 254              		.cfi_offset 14, -4
 225:fatfs/sdcard.c **** 	if (wait_ready()) return 1;	/* Wait for card ready */
 255              		.loc 1 225 0
 256 0002 0020     		movs	r0, #0
 257 0004 FFF7FEFF 		bl	SPI_ss0_m_Write
 258              	.LVL26:
 226:fatfs/sdcard.c **** 
 259              		.loc 1 226 0
 260 0008 FFF7FEFF 		bl	wait_ready
 261              	.LVL27:
 262 000c 041E     		subs	r4, r0, #0
 263 000e 02D1     		bne	.L20
 228:fatfs/sdcard.c **** 	return 0;			/* Failed */
 264              		.loc 1 228 0
 265 0010 FFF7FEFF 		bl	deselect
 266              	.LVL28:
 229:fatfs/sdcard.c **** }
 267              		.loc 1 229 0
 268 0014 00E0     		b	.L19
 269              	.L20:
 226:fatfs/sdcard.c **** 
 270              		.loc 1 226 0
 271 0016 0124     		movs	r4, #1
 272              	.L19:
 230:fatfs/sdcard.c **** 
 273              		.loc 1 230 0
 274 0018 2000     		movs	r0, r4
 275              		@ sp needed
 276 001a 10BD     		pop	{r4, pc}
 277              		.cfi_endproc
 278              	.LFE37:
 279              		.size	select, .-select
 280              		.section	.text.xmit_mmc,"ax",%progbits
 281              		.align	2
 282              		.code	16
 283              		.thumb_func
 284              		.type	xmit_mmc, %function
 285              	xmit_mmc:
 286              	.LFB33:
 121:fatfs/sdcard.c **** 
 287              		.loc 1 121 0
 288              		.cfi_startproc
 289              		@ args = 0, pretend = 0, frame = 0
 290              		@ frame_needed = 0, uses_anonymous_args = 0
 291              	.LVL29:
 292 0000 70B5     		push	{r4, r5, r6, lr}
 293              		.cfi_def_cfa_offset 16
 294              		.cfi_offset 4, -16
 295              		.cfi_offset 5, -12
 296              		.cfi_offset 6, -8
 297              		.cfi_offset 14, -4
 298 0002 0400     		movs	r4, r0
 299 0004 0D00     		movs	r5, r1
 125:fatfs/sdcard.c ****     mmSPI_SpiUartClearRxBuffer();
 300              		.loc 1 125 0
ARM GAS  C:\Users\DMYTRO~1.FED\AppData\Local\Temp\cctdc708.s 			page 11


 301 0006 FFF7FEFF 		bl	SPI_SpiUartClearTxBuffer
 302              	.LVL30:
 126:fatfs/sdcard.c ****     mmSPI_SpiUartPutArray(buff, bc);    
 303              		.loc 1 126 0
 304 000a FFF7FEFF 		bl	SPI_SpiUartClearRxBuffer
 305              	.LVL31:
 127:fatfs/sdcard.c ****     while(0u == (mmSPI_GetMasterInterruptSource() & mmSPI_INTR_MASTER_SPI_DONE));
 306              		.loc 1 127 0
 307 000e 2900     		movs	r1, r5
 308 0010 2000     		movs	r0, r4
 309 0012 FFF7FEFF 		bl	SPI_SpiUartPutArray
 310              	.LVL32:
 311              	.L22:
 128:fatfs/sdcard.c **** #endif
 312              		.loc 1 128 0 discriminator 1
 313 0016 024B     		ldr	r3, .L23
 314 0018 1B68     		ldr	r3, [r3]
 315 001a 9B05     		lsls	r3, r3, #22
 316 001c FBD5     		bpl	.L22
 144:fatfs/sdcard.c **** 
 317              		.loc 1 144 0
 318              		@ sp needed
 319              	.LVL33:
 320              	.LVL34:
 321 001e 70BD     		pop	{r4, r5, r6, pc}
 322              	.L24:
 323              		.align	2
 324              	.L23:
 325 0020 000F0840 		.word	1074269952
 326              		.cfi_endproc
 327              	.LFE33:
 328              		.size	xmit_mmc, .-xmit_mmc
 329              		.section	.text.send_cmd,"ax",%progbits
 330              		.align	2
 331              		.code	16
 332              		.thumb_func
 333              		.type	send_cmd, %function
 334              	send_cmd:
 335              	.LFB40:
 252:fatfs/sdcard.c **** 
 253:fatfs/sdcard.c **** /*-----------------------------------------------------------------------*/
 254:fatfs/sdcard.c **** /* Send a data packet to the card                                        */
 255:fatfs/sdcard.c **** /*-----------------------------------------------------------------------*/
 256:fatfs/sdcard.c **** 
 257:fatfs/sdcard.c **** static int xmit_datablock(const BYTE *buff, BYTE token)	/* 1:OK, 0:Failed */
 258:fatfs/sdcard.c **** {
 259:fatfs/sdcard.c **** 	BYTE d[2];
 260:fatfs/sdcard.c **** 
 261:fatfs/sdcard.c **** 	if (!wait_ready()) return 0;
 262:fatfs/sdcard.c **** 
 263:fatfs/sdcard.c **** 	d[0] = token;
 264:fatfs/sdcard.c **** 	xmit_mmc(d, 1);				/* Xmit a token */
 265:fatfs/sdcard.c ****   	if (token != 0xFD) {		/* Is it data token? */
 266:fatfs/sdcard.c **** 		xmit_mmc(buff, 512);	/* Xmit the 512 byte data block to MMC */
 267:fatfs/sdcard.c **** 		rcvr_mmc(d, 2);			/* Xmit dummy CRC (0xFF,0xFF) */
 268:fatfs/sdcard.c **** 		rcvr_mmc(d, 1);			/* Receive data response */
 269:fatfs/sdcard.c **** 		if ((d[0] & 0x1F) != 0x05)	/* If not accepted, return with error */
ARM GAS  C:\Users\DMYTRO~1.FED\AppData\Local\Temp\cctdc708.s 			page 12


 270:fatfs/sdcard.c **** 			return 0;
 271:fatfs/sdcard.c **** 	}
 272:fatfs/sdcard.c **** 
 273:fatfs/sdcard.c **** 	return 1;
 274:fatfs/sdcard.c **** }
 275:fatfs/sdcard.c **** 
 276:fatfs/sdcard.c **** /*-----------------------------------------------------------------------*/
 277:fatfs/sdcard.c **** /* Send a command packet to the card                                     */
 278:fatfs/sdcard.c **** /*-----------------------------------------------------------------------*/
 279:fatfs/sdcard.c **** 
 280:fatfs/sdcard.c **** static BYTE send_cmd(BYTE cmd,	DWORD arg)		/* Returns command response (bit7==1:Send failed)*/
 281:fatfs/sdcard.c **** {
 336              		.loc 1 281 0
 337              		.cfi_startproc
 338              		@ args = 0, pretend = 0, frame = 8
 339              		@ frame_needed = 0, uses_anonymous_args = 0
 340              	.LVL35:
 341 0000 30B5     		push	{r4, r5, lr}
 342              		.cfi_def_cfa_offset 12
 343              		.cfi_offset 4, -12
 344              		.cfi_offset 5, -8
 345              		.cfi_offset 14, -4
 346 0002 83B0     		sub	sp, sp, #12
 347              		.cfi_def_cfa_offset 24
 348 0004 0400     		movs	r4, r0
 349 0006 0D00     		movs	r5, r1
 282:fatfs/sdcard.c **** 	BYTE n, d, buf[6];
 283:fatfs/sdcard.c **** 
 284:fatfs/sdcard.c **** 
 285:fatfs/sdcard.c **** 	if (cmd & 0x80) {	/* ACMD<n> is the command sequense of CMD55-CMD<n> */
 350              		.loc 1 285 0
 351 0008 43B2     		sxtb	r3, r0
 352 000a 002B     		cmp	r3, #0
 353 000c 07DA     		bge	.L26
 286:fatfs/sdcard.c **** 		cmd &= 0x7F;
 354              		.loc 1 286 0
 355 000e 7F23     		movs	r3, #127
 356 0010 1C40     		ands	r4, r3
 357              	.LVL36:
 287:fatfs/sdcard.c **** 		n = send_cmd(CMD55, 0);
 358              		.loc 1 287 0
 359 0012 0021     		movs	r1, #0
 360              	.LVL37:
 361 0014 3720     		movs	r0, #55
 362 0016 FFF7F3FF 		bl	send_cmd
 363              	.LVL38:
 288:fatfs/sdcard.c **** 		if (n > 1) return n;
 364              		.loc 1 288 0
 365 001a 0128     		cmp	r0, #1
 366 001c 38D8     		bhi	.L27
 367              	.LVL39:
 368              	.L26:
 289:fatfs/sdcard.c **** 	}
 290:fatfs/sdcard.c **** 
 291:fatfs/sdcard.c **** 	/* Select the card and wait for ready except to stop multiple block read */
 292:fatfs/sdcard.c **** 	if (cmd != CMD12) {
 369              		.loc 1 292 0
ARM GAS  C:\Users\DMYTRO~1.FED\AppData\Local\Temp\cctdc708.s 			page 13


 370 001e 0C2C     		cmp	r4, #12
 371 0020 05D0     		beq	.L28
 293:fatfs/sdcard.c **** 		deselect();
 372              		.loc 1 293 0
 373 0022 FFF7FEFF 		bl	deselect
 374              	.LVL40:
 294:fatfs/sdcard.c **** 		if (!select()) return 0xFF;
 375              		.loc 1 294 0
 376 0026 FFF7FEFF 		bl	select
 377              	.LVL41:
 378 002a 0028     		cmp	r0, #0
 379 002c 2FD0     		beq	.L34
 380              	.L28:
 295:fatfs/sdcard.c **** 	}
 296:fatfs/sdcard.c **** 
 297:fatfs/sdcard.c **** 	/* Send a command packet */
 298:fatfs/sdcard.c **** 	buf[0] = 0x40 | cmd;			/* Start + Command index */
 381              		.loc 1 298 0
 382 002e 4023     		movs	r3, #64
 383 0030 2343     		orrs	r3, r4
 384 0032 6A46     		mov	r2, sp
 385 0034 1370     		strb	r3, [r2]
 299:fatfs/sdcard.c **** 	buf[1] = (BYTE)(arg >> 24);		/* Argument[31..24] */
 386              		.loc 1 299 0
 387 0036 2B0E     		lsrs	r3, r5, #24
 388 0038 5370     		strb	r3, [r2, #1]
 300:fatfs/sdcard.c **** 	buf[2] = (BYTE)(arg >> 16);		/* Argument[23..16] */
 389              		.loc 1 300 0
 390 003a 2B0C     		lsrs	r3, r5, #16
 391 003c 9370     		strb	r3, [r2, #2]
 301:fatfs/sdcard.c **** 	buf[3] = (BYTE)(arg >> 8);		/* Argument[15..8] */
 392              		.loc 1 301 0
 393 003e 2B0A     		lsrs	r3, r5, #8
 394 0040 D370     		strb	r3, [r2, #3]
 302:fatfs/sdcard.c **** 	buf[4] = (BYTE)arg;				/* Argument[7..0] */
 395              		.loc 1 302 0
 396 0042 1571     		strb	r5, [r2, #4]
 397              	.LVL42:
 303:fatfs/sdcard.c **** 	n = 0x01;						/* Dummy CRC + Stop */
 304:fatfs/sdcard.c **** 	if (cmd == CMD0) n = 0x95;		/* (valid CRC for CMD0(0)) */
 398              		.loc 1 304 0
 399 0044 002C     		cmp	r4, #0
 400 0046 01D0     		beq	.L35
 303:fatfs/sdcard.c **** 	n = 0x01;						/* Dummy CRC + Stop */
 401              		.loc 1 303 0
 402 0048 0123     		movs	r3, #1
 403 004a 00E0     		b	.L29
 404              	.L35:
 405              		.loc 1 304 0
 406 004c 9523     		movs	r3, #149
 407              	.L29:
 408              	.LVL43:
 305:fatfs/sdcard.c **** 	if (cmd == CMD8) n = 0x87;		/* (valid CRC for CMD8(0x1AA)) */
 409              		.loc 1 305 0
 410 004e 082C     		cmp	r4, #8
 411 0050 00D1     		bne	.L30
 412 0052 8723     		movs	r3, #135
ARM GAS  C:\Users\DMYTRO~1.FED\AppData\Local\Temp\cctdc708.s 			page 14


 413              	.LVL44:
 414              	.L30:
 306:fatfs/sdcard.c **** 	buf[5] = n;
 415              		.loc 1 306 0
 416 0054 6A46     		mov	r2, sp
 417 0056 5371     		strb	r3, [r2, #5]
 307:fatfs/sdcard.c **** 	xmit_mmc(buf, 6);
 418              		.loc 1 307 0
 419 0058 0621     		movs	r1, #6
 420 005a 6846     		mov	r0, sp
 421 005c FFF7FEFF 		bl	xmit_mmc
 422              	.LVL45:
 308:fatfs/sdcard.c ****     
 309:fatfs/sdcard.c **** 
 310:fatfs/sdcard.c **** 	/* Receive command response */
 311:fatfs/sdcard.c **** 	if (cmd == CMD12) rcvr_mmc(&d, 1);	/* Skip a stuff byte when stop reading */
 423              		.loc 1 311 0
 424 0060 0C2C     		cmp	r4, #12
 425 0062 04D1     		bne	.L31
 426              		.loc 1 311 0 is_stmt 0 discriminator 1
 427 0064 0121     		movs	r1, #1
 428 0066 6B46     		mov	r3, sp
 429 0068 D81D     		adds	r0, r3, #7
 430 006a FFF7FEFF 		bl	rcvr_mmc
 431              	.LVL46:
 432              	.L31:
 305:fatfs/sdcard.c **** 	buf[5] = n;
 433              		.loc 1 305 0 is_stmt 1 discriminator 2
 434 006e 1424     		movs	r4, #20
 435              	.LVL47:
 436              	.L32:
 312:fatfs/sdcard.c **** 	n = 20;								/* Wait for a valid response in timeout of 10 attempts */
 313:fatfs/sdcard.c **** 	do
 314:fatfs/sdcard.c ****     {
 315:fatfs/sdcard.c **** 		rcvr_mmc(&d, 1);
 437              		.loc 1 315 0 discriminator 2
 438 0070 6B46     		mov	r3, sp
 439 0072 DD1D     		adds	r5, r3, #7
 440 0074 0121     		movs	r1, #1
 441 0076 2800     		movs	r0, r5
 442 0078 FFF7FEFF 		bl	rcvr_mmc
 443              	.LVL48:
 316:fatfs/sdcard.c ****     }
 317:fatfs/sdcard.c **** 	while ((d & 0x80) && --n);
 444              		.loc 1 317 0 discriminator 2
 445 007c 2878     		ldrb	r0, [r5]
 446 007e 43B2     		sxtb	r3, r0
 447 0080 002B     		cmp	r3, #0
 448 0082 05DA     		bge	.L27
 449              		.loc 1 317 0 is_stmt 0 discriminator 1
 450 0084 013C     		subs	r4, r4, #1
 451              	.LVL49:
 452 0086 E4B2     		uxtb	r4, r4
 453              	.LVL50:
 454 0088 002C     		cmp	r4, #0
 455 008a F1D1     		bne	.L32
 456 008c 00E0     		b	.L27
ARM GAS  C:\Users\DMYTRO~1.FED\AppData\Local\Temp\cctdc708.s 			page 15


 457              	.LVL51:
 458              	.L34:
 294:fatfs/sdcard.c **** 	}
 459              		.loc 1 294 0 is_stmt 1
 460 008e FF20     		movs	r0, #255
 461              	.LVL52:
 462              	.L27:
 318:fatfs/sdcard.c **** 
 319:fatfs/sdcard.c **** 	return d;			/* Return with the response value */
 320:fatfs/sdcard.c **** }
 463              		.loc 1 320 0
 464 0090 03B0     		add	sp, sp, #12
 465              		@ sp needed
 466 0092 30BD     		pop	{r4, r5, pc}
 467              		.cfi_endproc
 468              	.LFE40:
 469              		.size	send_cmd, .-send_cmd
 470              		.section	.text.xmit_datablock,"ax",%progbits
 471              		.align	2
 472              		.code	16
 473              		.thumb_func
 474              		.type	xmit_datablock, %function
 475              	xmit_datablock:
 476              	.LFB39:
 258:fatfs/sdcard.c **** 	BYTE d[2];
 477              		.loc 1 258 0
 478              		.cfi_startproc
 479              		@ args = 0, pretend = 0, frame = 8
 480              		@ frame_needed = 0, uses_anonymous_args = 0
 481              	.LVL53:
 482 0000 30B5     		push	{r4, r5, lr}
 483              		.cfi_def_cfa_offset 12
 484              		.cfi_offset 4, -12
 485              		.cfi_offset 5, -8
 486              		.cfi_offset 14, -4
 487 0002 83B0     		sub	sp, sp, #12
 488              		.cfi_def_cfa_offset 24
 489 0004 0500     		movs	r5, r0
 490 0006 0C00     		movs	r4, r1
 261:fatfs/sdcard.c **** 
 491              		.loc 1 261 0
 492 0008 FFF7FEFF 		bl	wait_ready
 493              	.LVL54:
 494 000c 0028     		cmp	r0, #0
 495 000e 1ED0     		beq	.L38
 263:fatfs/sdcard.c **** 	xmit_mmc(d, 1);				/* Xmit a token */
 496              		.loc 1 263 0
 497 0010 01A8     		add	r0, sp, #4
 498 0012 0470     		strb	r4, [r0]
 264:fatfs/sdcard.c ****   	if (token != 0xFD) {		/* Is it data token? */
 499              		.loc 1 264 0
 500 0014 0121     		movs	r1, #1
 501 0016 FFF7FEFF 		bl	xmit_mmc
 502              	.LVL55:
 265:fatfs/sdcard.c **** 		xmit_mmc(buff, 512);	/* Xmit the 512 byte data block to MMC */
 503              		.loc 1 265 0
 504 001a FD2C     		cmp	r4, #253
ARM GAS  C:\Users\DMYTRO~1.FED\AppData\Local\Temp\cctdc708.s 			page 16


 505 001c 14D0     		beq	.L39
 266:fatfs/sdcard.c **** 		rcvr_mmc(d, 2);			/* Xmit dummy CRC (0xFF,0xFF) */
 506              		.loc 1 266 0
 507 001e 8021     		movs	r1, #128
 508 0020 8900     		lsls	r1, r1, #2
 509 0022 2800     		movs	r0, r5
 510 0024 FFF7FEFF 		bl	xmit_mmc
 511              	.LVL56:
 267:fatfs/sdcard.c **** 		rcvr_mmc(d, 1);			/* Receive data response */
 512              		.loc 1 267 0
 513 0028 01AC     		add	r4, sp, #4
 514 002a 0221     		movs	r1, #2
 515 002c 2000     		movs	r0, r4
 516 002e FFF7FEFF 		bl	rcvr_mmc
 517              	.LVL57:
 268:fatfs/sdcard.c **** 		if ((d[0] & 0x1F) != 0x05)	/* If not accepted, return with error */
 518              		.loc 1 268 0
 519 0032 0121     		movs	r1, #1
 520 0034 2000     		movs	r0, r4
 521 0036 FFF7FEFF 		bl	rcvr_mmc
 522              	.LVL58:
 269:fatfs/sdcard.c **** 			return 0;
 523              		.loc 1 269 0
 524 003a 2378     		ldrb	r3, [r4]
 525 003c 1F22     		movs	r2, #31
 526 003e 1340     		ands	r3, r2
 527 0040 052B     		cmp	r3, #5
 528 0042 03D0     		beq	.L40
 270:fatfs/sdcard.c **** 	}
 529              		.loc 1 270 0
 530 0044 0020     		movs	r0, #0
 531 0046 02E0     		b	.L38
 532              	.L39:
 273:fatfs/sdcard.c **** }
 533              		.loc 1 273 0
 534 0048 0120     		movs	r0, #1
 535 004a 00E0     		b	.L38
 536              	.L40:
 537 004c 0120     		movs	r0, #1
 538              	.L38:
 274:fatfs/sdcard.c **** 
 539              		.loc 1 274 0
 540 004e 03B0     		add	sp, sp, #12
 541              		@ sp needed
 542              	.LVL59:
 543 0050 30BD     		pop	{r4, r5, pc}
 544              		.cfi_endproc
 545              	.LFE39:
 546              		.size	xmit_datablock, .-xmit_datablock
 547 0052 C046     		.section	.text.disk_status,"ax",%progbits
 548              		.align	2
 549              		.global	disk_status
 550              		.code	16
 551              		.thumb_func
 552              		.type	disk_status, %function
 553              	disk_status:
 554              	.LFB41:
ARM GAS  C:\Users\DMYTRO~1.FED\AppData\Local\Temp\cctdc708.s 			page 17


 321:fatfs/sdcard.c **** 
 322:fatfs/sdcard.c **** /*--------------------------------------------------------------------------
 323:fatfs/sdcard.c **** 
 324:fatfs/sdcard.c ****    Public Functions
 325:fatfs/sdcard.c **** 
 326:fatfs/sdcard.c **** ---------------------------------------------------------------------------*/
 327:fatfs/sdcard.c **** 
 328:fatfs/sdcard.c **** /*-----------------------------------------------------------------------*/
 329:fatfs/sdcard.c **** /* Get Disk Status                                                       */
 330:fatfs/sdcard.c **** /*-----------------------------------------------------------------------*/
 331:fatfs/sdcard.c **** 
 332:fatfs/sdcard.c **** DSTATUS disk_status(BYTE drv) /* Drive number (always 0) */
 333:fatfs/sdcard.c **** {
 555              		.loc 1 333 0
 556              		.cfi_startproc
 557              		@ args = 0, pretend = 0, frame = 0
 558              		@ frame_needed = 0, uses_anonymous_args = 0
 559              		@ link register save eliminated.
 560              	.LVL60:
 334:fatfs/sdcard.c **** 	if (drv) return STA_NOINIT;
 561              		.loc 1 334 0
 562 0000 0028     		cmp	r0, #0
 563 0002 02D1     		bne	.L43
 335:fatfs/sdcard.c **** 
 336:fatfs/sdcard.c **** 	return Stat;
 564              		.loc 1 336 0
 565 0004 024B     		ldr	r3, .L44
 566 0006 1878     		ldrb	r0, [r3]
 567              	.LVL61:
 568 0008 00E0     		b	.L42
 569              	.LVL62:
 570              	.L43:
 334:fatfs/sdcard.c **** 	if (drv) return STA_NOINIT;
 571              		.loc 1 334 0
 572 000a 0120     		movs	r0, #1
 573              	.LVL63:
 574              	.L42:
 337:fatfs/sdcard.c **** }
 575              		.loc 1 337 0
 576              		@ sp needed
 577 000c 7047     		bx	lr
 578              	.L45:
 579 000e C046     		.align	2
 580              	.L44:
 581 0010 00000000 		.word	.LANCHOR0
 582              		.cfi_endproc
 583              	.LFE41:
 584              		.size	disk_status, .-disk_status
 585              		.section	.text.disk_initialize,"ax",%progbits
 586              		.align	2
 587              		.global	disk_initialize
 588              		.code	16
 589              		.thumb_func
 590              		.type	disk_initialize, %function
 591              	disk_initialize:
 592              	.LFB42:
 338:fatfs/sdcard.c **** 
ARM GAS  C:\Users\DMYTRO~1.FED\AppData\Local\Temp\cctdc708.s 			page 18


 339:fatfs/sdcard.c **** /*-----------------------------------------------------------------------*/
 340:fatfs/sdcard.c **** /* Initialize Disk Drive                                                 */
 341:fatfs/sdcard.c **** /*-----------------------------------------------------------------------*/
 342:fatfs/sdcard.c **** 
 343:fatfs/sdcard.c **** DSTATUS disk_initialize(BYTE drv) /* Physical drive nmuber (0) */
 344:fatfs/sdcard.c **** {
 593              		.loc 1 344 0
 594              		.cfi_startproc
 595              		@ args = 0, pretend = 0, frame = 8
 596              		@ frame_needed = 0, uses_anonymous_args = 0
 597              	.LVL64:
 598 0000 70B5     		push	{r4, r5, r6, lr}
 599              		.cfi_def_cfa_offset 16
 600              		.cfi_offset 4, -16
 601              		.cfi_offset 5, -12
 602              		.cfi_offset 6, -8
 603              		.cfi_offset 14, -4
 604 0002 82B0     		sub	sp, sp, #8
 605              		.cfi_def_cfa_offset 24
 345:fatfs/sdcard.c **** 	BYTE n, ty, cmd, buf[4];
 346:fatfs/sdcard.c **** 	UINT tmr;
 347:fatfs/sdcard.c **** 	DSTATUS s;
 348:fatfs/sdcard.c **** 
 349:fatfs/sdcard.c **** 	if (drv) return RES_NOTRDY;
 606              		.loc 1 349 0
 607 0004 0028     		cmp	r0, #0
 608 0006 00D0     		beq	.LCB552
 609 0008 84E0     		b	.L59	@long jump
 610              	.LCB552:
 611 000a 0A24     		movs	r4, #10
 612 000c 05E0     		b	.L48
 613              	.LVL65:
 614              	.L49:
 350:fatfs/sdcard.c **** 
 351:fatfs/sdcard.c **** 	//dly_us(10000);			/* 10ms */
 352:fatfs/sdcard.c **** 
 353:fatfs/sdcard.c **** 	for (n = 10; n; n--) rcvr_mmc(buf, 1);	/* Apply 80 dummy clocks and the card gets ready to receive
 615              		.loc 1 353 0 discriminator 3
 616 000e 0121     		movs	r1, #1
 617 0010 01A8     		add	r0, sp, #4
 618 0012 FFF7FEFF 		bl	rcvr_mmc
 619              	.LVL66:
 620 0016 013C     		subs	r4, r4, #1
 621              	.LVL67:
 622 0018 E4B2     		uxtb	r4, r4
 623              	.LVL68:
 624              	.L48:
 625              		.loc 1 353 0 is_stmt 0 discriminator 1
 626 001a 002C     		cmp	r4, #0
 627 001c F7D1     		bne	.L49
 628              	.LVL69:
 354:fatfs/sdcard.c **** 
 355:fatfs/sdcard.c **** 	ty = 0;
 356:fatfs/sdcard.c **** 	if (send_cmd(CMD0, 0) == 1) {			/* Enter Idle state */
 629              		.loc 1 356 0 is_stmt 1
 630 001e 0021     		movs	r1, #0
 631 0020 0020     		movs	r0, #0
ARM GAS  C:\Users\DMYTRO~1.FED\AppData\Local\Temp\cctdc708.s 			page 19


 632 0022 FFF7FEFF 		bl	send_cmd
 633              	.LVL70:
 634 0026 0128     		cmp	r0, #1
 635 0028 5CD1     		bne	.L60
 357:fatfs/sdcard.c **** 		if (send_cmd(CMD8, 0x1AA) == 1) {	/* SDv2? */
 636              		.loc 1 357 0
 637 002a D521     		movs	r1, #213
 638 002c 4900     		lsls	r1, r1, #1
 639 002e 0730     		adds	r0, r0, #7
 640 0030 FFF7FEFF 		bl	send_cmd
 641              	.LVL71:
 642 0034 0128     		cmp	r0, #1
 643 0036 30D1     		bne	.L51
 358:fatfs/sdcard.c **** 			rcvr_mmc(buf, 4);							/* Get trailing return value of R7 resp */
 644              		.loc 1 358 0
 645 0038 01AC     		add	r4, sp, #4
 646              	.LVL72:
 647 003a 0421     		movs	r1, #4
 648 003c 2000     		movs	r0, r4
 649 003e FFF7FEFF 		bl	rcvr_mmc
 650              	.LVL73:
 359:fatfs/sdcard.c **** 			if (buf[2] == 0x01 && buf[3] == 0xAA) {		/* The card can work at vdd range of 2.7-3.6V */
 651              		.loc 1 359 0
 652 0042 A378     		ldrb	r3, [r4, #2]
 653 0044 012B     		cmp	r3, #1
 654 0046 4FD1     		bne	.L61
 655              		.loc 1 359 0 is_stmt 0 discriminator 1
 656 0048 01AB     		add	r3, sp, #4
 657 004a DB78     		ldrb	r3, [r3, #3]
 658 004c AA2B     		cmp	r3, #170
 659 004e 0ED0     		beq	.L62
 355:fatfs/sdcard.c **** 	if (send_cmd(CMD0, 0) == 1) {			/* Enter Idle state */
 660              		.loc 1 355 0 is_stmt 1
 661 0050 0024     		movs	r4, #0
 662 0052 54E0     		b	.L50
 663              	.LVL74:
 664              	.L54:
 360:fatfs/sdcard.c **** 				for (tmr = 1000; tmr; tmr--) {			/* Wait for leaving idle state (ACMD41 with HCS bit) */
 361:fatfs/sdcard.c **** 					if (send_cmd(ACMD41, 1UL << 30) == 0) break;
 665              		.loc 1 361 0
 666 0054 8021     		movs	r1, #128
 667 0056 C905     		lsls	r1, r1, #23
 668 0058 A920     		movs	r0, #169
 669 005a FFF7FEFF 		bl	send_cmd
 670              	.LVL75:
 671 005e 0028     		cmp	r0, #0
 672 0060 09D0     		beq	.L53
 362:fatfs/sdcard.c **** 					dly_us(1000);
 673              		.loc 1 362 0 discriminator 2
 674 0062 FA20     		movs	r0, #250
 675 0064 8000     		lsls	r0, r0, #2
 676 0066 FFF7FEFF 		bl	CyDelayUs
 677              	.LVL76:
 360:fatfs/sdcard.c **** 				for (tmr = 1000; tmr; tmr--) {			/* Wait for leaving idle state (ACMD41 with HCS bit) */
 678              		.loc 1 360 0 discriminator 2
 679 006a 013C     		subs	r4, r4, #1
 680              	.LVL77:
ARM GAS  C:\Users\DMYTRO~1.FED\AppData\Local\Temp\cctdc708.s 			page 20


 681 006c 01E0     		b	.L52
 682              	.LVL78:
 683              	.L62:
 684 006e FA24     		movs	r4, #250
 685 0070 A400     		lsls	r4, r4, #2
 686              	.L52:
 687              	.LVL79:
 360:fatfs/sdcard.c **** 				for (tmr = 1000; tmr; tmr--) {			/* Wait for leaving idle state (ACMD41 with HCS bit) */
 688              		.loc 1 360 0 is_stmt 0 discriminator 1
 689 0072 002C     		cmp	r4, #0
 690 0074 EED1     		bne	.L54
 691              	.L53:
 363:fatfs/sdcard.c **** 				}
 364:fatfs/sdcard.c **** 				if (tmr && send_cmd(CMD58, 0) == 0) {	/* Check CCS bit in the OCR */
 692              		.loc 1 364 0 is_stmt 1
 693 0076 002C     		cmp	r4, #0
 694 0078 38D0     		beq	.L63
 695              		.loc 1 364 0 is_stmt 0 discriminator 1
 696 007a 0021     		movs	r1, #0
 697 007c 3A20     		movs	r0, #58
 698 007e FFF7FEFF 		bl	send_cmd
 699              	.LVL80:
 700 0082 0028     		cmp	r0, #0
 701 0084 34D1     		bne	.L64
 365:fatfs/sdcard.c **** 					rcvr_mmc(buf, 4);
 702              		.loc 1 365 0 is_stmt 1
 703 0086 01AC     		add	r4, sp, #4
 704              	.LVL81:
 705 0088 0421     		movs	r1, #4
 706 008a 2000     		movs	r0, r4
 707 008c FFF7FEFF 		bl	rcvr_mmc
 708              	.LVL82:
 366:fatfs/sdcard.c **** 					ty = (buf[0] & 0x40) ? CT_SD2 | CT_BLOCK : CT_SD2;	/* SDv2 */
 709              		.loc 1 366 0
 710 0090 2378     		ldrb	r3, [r4]
 711 0092 5B06     		lsls	r3, r3, #25
 712 0094 2ED5     		bpl	.L65
 713 0096 0C24     		movs	r4, #12
 714 0098 31E0     		b	.L50
 715              	.LVL83:
 716              	.L51:
 367:fatfs/sdcard.c **** 				}
 368:fatfs/sdcard.c **** 			}
 369:fatfs/sdcard.c **** 		} else {							/* SDv1 or MMCv3 */
 370:fatfs/sdcard.c **** 			if (send_cmd(ACMD41, 0) <= 1) 	{
 717              		.loc 1 370 0
 718 009a 0021     		movs	r1, #0
 719 009c A920     		movs	r0, #169
 720 009e FFF7FEFF 		bl	send_cmd
 721              	.LVL84:
 722 00a2 0128     		cmp	r0, #1
 723 00a4 02D8     		bhi	.L66
 371:fatfs/sdcard.c **** 				ty = CT_SD1; cmd = ACMD41;	/* SDv1 */
 724              		.loc 1 371 0
 725 00a6 A926     		movs	r6, #169
 726 00a8 0224     		movs	r4, #2
 727              	.LVL85:
ARM GAS  C:\Users\DMYTRO~1.FED\AppData\Local\Temp\cctdc708.s 			page 21


 728 00aa 01E0     		b	.L55
 729              	.LVL86:
 730              	.L66:
 372:fatfs/sdcard.c **** 			} else {
 373:fatfs/sdcard.c **** 				ty = CT_MMC; cmd = CMD1;	/* MMCv3 */
 731              		.loc 1 373 0
 732 00ac 0126     		movs	r6, #1
 733 00ae 0124     		movs	r4, #1
 734              	.LVL87:
 735              	.L55:
 374:fatfs/sdcard.c **** 			}
 375:fatfs/sdcard.c **** 			for (tmr = 1000; tmr; tmr--) {			/* Wait for leaving idle state */
 736              		.loc 1 375 0
 737 00b0 FA25     		movs	r5, #250
 738 00b2 AD00     		lsls	r5, r5, #2
 739 00b4 0AE0     		b	.L56
 740              	.LVL88:
 741              	.L58:
 376:fatfs/sdcard.c **** 				if (send_cmd(cmd, 0) == 0) break;
 742              		.loc 1 376 0
 743 00b6 0021     		movs	r1, #0
 744 00b8 3000     		movs	r0, r6
 745 00ba FFF7FEFF 		bl	send_cmd
 746              	.LVL89:
 747 00be 0028     		cmp	r0, #0
 748 00c0 06D0     		beq	.L57
 377:fatfs/sdcard.c **** 				dly_us(1000);
 749              		.loc 1 377 0 discriminator 2
 750 00c2 FA20     		movs	r0, #250
 751 00c4 8000     		lsls	r0, r0, #2
 752 00c6 FFF7FEFF 		bl	CyDelayUs
 753              	.LVL90:
 375:fatfs/sdcard.c **** 				if (send_cmd(cmd, 0) == 0) break;
 754              		.loc 1 375 0 discriminator 2
 755 00ca 013D     		subs	r5, r5, #1
 756              	.LVL91:
 757              	.L56:
 375:fatfs/sdcard.c **** 				if (send_cmd(cmd, 0) == 0) break;
 758              		.loc 1 375 0 is_stmt 0 discriminator 1
 759 00cc 002D     		cmp	r5, #0
 760 00ce F2D1     		bne	.L58
 761              	.L57:
 378:fatfs/sdcard.c **** 			}
 379:fatfs/sdcard.c **** 			if (!tmr || send_cmd(CMD16, 512) != 0)	/* Set R/W block length to 512 */
 762              		.loc 1 379 0 is_stmt 1
 763 00d0 002D     		cmp	r5, #0
 764 00d2 11D0     		beq	.L67
 765              		.loc 1 379 0 is_stmt 0 discriminator 1
 766 00d4 8021     		movs	r1, #128
 767 00d6 8900     		lsls	r1, r1, #2
 768 00d8 1020     		movs	r0, #16
 769 00da FFF7FEFF 		bl	send_cmd
 770              	.LVL92:
 771 00de 0028     		cmp	r0, #0
 772 00e0 0CD1     		bne	.L68
 773 00e2 0CE0     		b	.L50
 774              	.LVL93:
ARM GAS  C:\Users\DMYTRO~1.FED\AppData\Local\Temp\cctdc708.s 			page 22


 775              	.L60:
 355:fatfs/sdcard.c **** 	if (send_cmd(CMD0, 0) == 1) {			/* Enter Idle state */
 776              		.loc 1 355 0 is_stmt 1
 777 00e4 0024     		movs	r4, #0
 778              	.LVL94:
 779 00e6 0AE0     		b	.L50
 780              	.L61:
 781 00e8 0024     		movs	r4, #0
 782 00ea 08E0     		b	.L50
 783              	.LVL95:
 784              	.L63:
 785 00ec 0024     		movs	r4, #0
 786              	.LVL96:
 787 00ee 06E0     		b	.L50
 788              	.LVL97:
 789              	.L64:
 790 00f0 0024     		movs	r4, #0
 791              	.LVL98:
 792 00f2 04E0     		b	.L50
 793              	.L65:
 366:fatfs/sdcard.c **** 				}
 794              		.loc 1 366 0
 795 00f4 0424     		movs	r4, #4
 796 00f6 02E0     		b	.L50
 797              	.LVL99:
 798              	.L67:
 380:fatfs/sdcard.c **** 				ty = 0;
 799              		.loc 1 380 0
 800 00f8 0024     		movs	r4, #0
 801              	.LVL100:
 802 00fa 00E0     		b	.L50
 803              	.LVL101:
 804              	.L68:
 805 00fc 0024     		movs	r4, #0
 806              	.LVL102:
 807              	.L50:
 381:fatfs/sdcard.c **** 		}
 382:fatfs/sdcard.c **** 	}
 383:fatfs/sdcard.c **** 	CardType = ty;
 808              		.loc 1 383 0
 809 00fe 074B     		ldr	r3, .L69
 810 0100 1C70     		strb	r4, [r3]
 384:fatfs/sdcard.c **** 	s = ty ? 0 : STA_NOINIT;
 811              		.loc 1 384 0
 812 0102 6042     		rsbs	r0, r4, #0
 813 0104 6041     		adcs	r0, r0, r4
 814              	.LVL103:
 815 0106 C4B2     		uxtb	r4, r0
 816              	.LVL104:
 385:fatfs/sdcard.c **** 	Stat = s;
 817              		.loc 1 385 0
 818 0108 054B     		ldr	r3, .L69+4
 819 010a 1C70     		strb	r4, [r3]
 386:fatfs/sdcard.c **** 
 387:fatfs/sdcard.c **** 	deselect();
 820              		.loc 1 387 0
 821 010c FFF7FEFF 		bl	deselect
ARM GAS  C:\Users\DMYTRO~1.FED\AppData\Local\Temp\cctdc708.s 			page 23


 822              	.LVL105:
 388:fatfs/sdcard.c **** 
 389:fatfs/sdcard.c **** 	return s;
 823              		.loc 1 389 0
 824 0110 2000     		movs	r0, r4
 825 0112 00E0     		b	.L47
 826              	.LVL106:
 827              	.L59:
 349:fatfs/sdcard.c **** 
 828              		.loc 1 349 0
 829 0114 0320     		movs	r0, #3
 830              	.LVL107:
 831              	.L47:
 390:fatfs/sdcard.c **** }
 832              		.loc 1 390 0
 833 0116 02B0     		add	sp, sp, #8
 834              		@ sp needed
 835 0118 70BD     		pop	{r4, r5, r6, pc}
 836              	.L70:
 837 011a C046     		.align	2
 838              	.L69:
 839 011c 00000000 		.word	.LANCHOR1
 840 0120 00000000 		.word	.LANCHOR0
 841              		.cfi_endproc
 842              	.LFE42:
 843              		.size	disk_initialize, .-disk_initialize
 844              		.section	.text.disk_read,"ax",%progbits
 845              		.align	2
 846              		.global	disk_read
 847              		.code	16
 848              		.thumb_func
 849              		.type	disk_read, %function
 850              	disk_read:
 851              	.LFB43:
 391:fatfs/sdcard.c **** 
 392:fatfs/sdcard.c **** /*-----------------------------------------------------------------------*/
 393:fatfs/sdcard.c **** /* Read Sector(s)                                                        */
 394:fatfs/sdcard.c **** /*-----------------------------------------------------------------------*/
 395:fatfs/sdcard.c **** 
 396:fatfs/sdcard.c **** DRESULT disk_read(BYTE drv,	BYTE *buff,	DWORD sector, UINT count) /* Physical drive nmuber (0) */
 397:fatfs/sdcard.c **** {
 852              		.loc 1 397 0
 853              		.cfi_startproc
 854              		@ args = 0, pretend = 0, frame = 0
 855              		@ frame_needed = 0, uses_anonymous_args = 0
 856              	.LVL108:
 857 0000 F8B5     		push	{r3, r4, r5, r6, r7, lr}
 858              		.cfi_def_cfa_offset 24
 859              		.cfi_offset 3, -24
 860              		.cfi_offset 4, -20
 861              		.cfi_offset 5, -16
 862              		.cfi_offset 6, -12
 863              		.cfi_offset 7, -8
 864              		.cfi_offset 14, -4
 865 0002 0D00     		movs	r5, r1
 866 0004 1700     		movs	r7, r2
 867 0006 1C00     		movs	r4, r3
ARM GAS  C:\Users\DMYTRO~1.FED\AppData\Local\Temp\cctdc708.s 			page 24


 398:fatfs/sdcard.c **** 	BYTE cmd;
 399:fatfs/sdcard.c **** 
 400:fatfs/sdcard.c **** 	if (disk_status(drv) & STA_NOINIT) return RES_NOTRDY;
 868              		.loc 1 400 0
 869 0008 FFF7FEFF 		bl	disk_status
 870              	.LVL109:
 871 000c C307     		lsls	r3, r0, #31
 872 000e 29D4     		bmi	.L78
 401:fatfs/sdcard.c **** 	if (!(CardType & CT_BLOCK)) sector *= 512;	/* Convert LBA to byte address if needed */
 873              		.loc 1 401 0
 874 0010 154B     		ldr	r3, .L80
 875 0012 1B78     		ldrb	r3, [r3]
 876 0014 1B07     		lsls	r3, r3, #28
 877 0016 00D4     		bmi	.L73
 878              		.loc 1 401 0 is_stmt 0 discriminator 1
 879 0018 7F02     		lsls	r7, r7, #9
 880              	.LVL110:
 881              	.L73:
 402:fatfs/sdcard.c **** 
 403:fatfs/sdcard.c **** 	cmd = count > 1 ? CMD18 : CMD17;			/*  READ_MULTIPLE_BLOCK : READ_SINGLE_BLOCK */
 882              		.loc 1 403 0 is_stmt 1
 883 001a 012C     		cmp	r4, #1
 884 001c 01D9     		bls	.L79
 885 001e 1226     		movs	r6, #18
 886 0020 00E0     		b	.L74
 887              	.L79:
 888 0022 1126     		movs	r6, #17
 889              	.L74:
 890              	.LVL111:
 404:fatfs/sdcard.c **** 	if (send_cmd(cmd, sector) == 0) {
 891              		.loc 1 404 0 discriminator 4
 892 0024 3900     		movs	r1, r7
 893 0026 3000     		movs	r0, r6
 894 0028 FFF7FEFF 		bl	send_cmd
 895              	.LVL112:
 896 002c 0028     		cmp	r0, #0
 897 002e 13D1     		bne	.L75
 898              	.L77:
 405:fatfs/sdcard.c **** 		do {
 406:fatfs/sdcard.c **** 			if (!rcvr_datablock(buff, 512)) break;
 899              		.loc 1 406 0
 900 0030 8021     		movs	r1, #128
 901 0032 8900     		lsls	r1, r1, #2
 902 0034 2800     		movs	r0, r5
 903 0036 FFF7FEFF 		bl	rcvr_datablock
 904              	.LVL113:
 905 003a 0028     		cmp	r0, #0
 906 003c 06D0     		beq	.L76
 407:fatfs/sdcard.c **** 			buff += 512;
 907              		.loc 1 407 0
 908 003e 8023     		movs	r3, #128
 909 0040 9B00     		lsls	r3, r3, #2
 910 0042 9C46     		mov	ip, r3
 911 0044 6544     		add	r5, r5, ip
 912              	.LVL114:
 408:fatfs/sdcard.c **** 		} while (--count);
 913              		.loc 1 408 0
ARM GAS  C:\Users\DMYTRO~1.FED\AppData\Local\Temp\cctdc708.s 			page 25


 914 0046 013C     		subs	r4, r4, #1
 915              	.LVL115:
 916 0048 002C     		cmp	r4, #0
 917 004a F1D1     		bne	.L77
 918              	.L76:
 409:fatfs/sdcard.c **** 		if (cmd == CMD18) send_cmd(CMD12, 0);	/* STOP_TRANSMISSION */
 919              		.loc 1 409 0
 920 004c 122E     		cmp	r6, #18
 921 004e 03D1     		bne	.L75
 922              		.loc 1 409 0 is_stmt 0 discriminator 1
 923 0050 0021     		movs	r1, #0
 924 0052 0C20     		movs	r0, #12
 925 0054 FFF7FEFF 		bl	send_cmd
 926              	.LVL116:
 927              	.L75:
 410:fatfs/sdcard.c **** 	}
 411:fatfs/sdcard.c **** 	deselect();
 928              		.loc 1 411 0 is_stmt 1
 929 0058 FFF7FEFF 		bl	deselect
 930              	.LVL117:
 412:fatfs/sdcard.c **** 
 413:fatfs/sdcard.c **** 	return count ? RES_ERROR : RES_OK;
 931              		.loc 1 413 0
 932 005c 601E     		subs	r0, r4, #1
 933 005e 8441     		sbcs	r4, r4, r0
 934              	.LVL118:
 935 0060 E0B2     		uxtb	r0, r4
 936 0062 00E0     		b	.L72
 937              	.LVL119:
 938              	.L78:
 400:fatfs/sdcard.c **** 	if (!(CardType & CT_BLOCK)) sector *= 512;	/* Convert LBA to byte address if needed */
 939              		.loc 1 400 0
 940 0064 0320     		movs	r0, #3
 941              	.LVL120:
 942              	.L72:
 414:fatfs/sdcard.c **** }
 943              		.loc 1 414 0
 944              		@ sp needed
 945              	.LVL121:
 946              	.LVL122:
 947 0066 F8BD     		pop	{r3, r4, r5, r6, r7, pc}
 948              	.L81:
 949              		.align	2
 950              	.L80:
 951 0068 00000000 		.word	.LANCHOR1
 952              		.cfi_endproc
 953              	.LFE43:
 954              		.size	disk_read, .-disk_read
 955              		.section	.text.disk_write,"ax",%progbits
 956              		.align	2
 957              		.global	disk_write
 958              		.code	16
 959              		.thumb_func
 960              		.type	disk_write, %function
 961              	disk_write:
 962              	.LFB44:
 415:fatfs/sdcard.c **** 
ARM GAS  C:\Users\DMYTRO~1.FED\AppData\Local\Temp\cctdc708.s 			page 26


 416:fatfs/sdcard.c **** /*-----------------------------------------------------------------------*/
 417:fatfs/sdcard.c **** /* Write Sector(s)                                                       */
 418:fatfs/sdcard.c **** /*-----------------------------------------------------------------------*/
 419:fatfs/sdcard.c **** 
 420:fatfs/sdcard.c **** DRESULT disk_write (
 421:fatfs/sdcard.c **** 	BYTE drv,			/* Physical drive nmuber (0) */
 422:fatfs/sdcard.c **** 	const BYTE *buff,	/* Pointer to the data to be written */
 423:fatfs/sdcard.c **** 	DWORD sector,		/* Start sector number (LBA) */
 424:fatfs/sdcard.c **** 	UINT count			/* Sector count (1..128) */
 425:fatfs/sdcard.c **** )
 426:fatfs/sdcard.c **** {
 963              		.loc 1 426 0
 964              		.cfi_startproc
 965              		@ args = 0, pretend = 0, frame = 0
 966              		@ frame_needed = 0, uses_anonymous_args = 0
 967              	.LVL123:
 968 0000 70B5     		push	{r4, r5, r6, lr}
 969              		.cfi_def_cfa_offset 16
 970              		.cfi_offset 4, -16
 971              		.cfi_offset 5, -12
 972              		.cfi_offset 6, -8
 973              		.cfi_offset 14, -4
 974 0002 0D00     		movs	r5, r1
 975 0004 1600     		movs	r6, r2
 976 0006 1C00     		movs	r4, r3
 427:fatfs/sdcard.c **** 	if (disk_status(drv) & STA_NOINIT) return RES_NOTRDY;
 977              		.loc 1 427 0
 978 0008 FFF7FEFF 		bl	disk_status
 979              	.LVL124:
 980 000c C307     		lsls	r3, r0, #31
 981 000e 3DD4     		bmi	.L90
 428:fatfs/sdcard.c **** 	if (!(CardType & CT_BLOCK)) sector *= 512;	/* Convert LBA to byte address if needed */
 982              		.loc 1 428 0
 983 0010 1F4B     		ldr	r3, .L93
 984 0012 1B78     		ldrb	r3, [r3]
 985 0014 1A07     		lsls	r2, r3, #28
 986 0016 00D4     		bmi	.L84
 987              		.loc 1 428 0 is_stmt 0 discriminator 1
 988 0018 7602     		lsls	r6, r6, #9
 989              	.LVL125:
 990              	.L84:
 429:fatfs/sdcard.c **** 
 430:fatfs/sdcard.c **** 	if (count == 1) {	/* Single block write */
 991              		.loc 1 430 0 is_stmt 1
 992 001a 012C     		cmp	r4, #1
 993 001c 0CD1     		bne	.L85
 431:fatfs/sdcard.c **** 		if ((send_cmd(CMD24, sector) == 0)	/* WRITE_BLOCK */
 994              		.loc 1 431 0
 995 001e 3100     		movs	r1, r6
 996 0020 1820     		movs	r0, #24
 997 0022 FFF7FEFF 		bl	send_cmd
 998              	.LVL126:
 999 0026 0028     		cmp	r0, #0
 1000 0028 2AD1     		bne	.L86
 432:fatfs/sdcard.c **** 			&& xmit_datablock(buff, 0xFE))
 1001              		.loc 1 432 0
 1002 002a FE21     		movs	r1, #254
ARM GAS  C:\Users\DMYTRO~1.FED\AppData\Local\Temp\cctdc708.s 			page 27


 1003 002c 2800     		movs	r0, r5
 1004 002e FFF7FEFF 		bl	xmit_datablock
 1005              	.LVL127:
 1006 0032 0028     		cmp	r0, #0
 1007 0034 21D1     		bne	.L91
 1008 0036 23E0     		b	.L86
 1009              	.L85:
 433:fatfs/sdcard.c **** 			count = 0;
 434:fatfs/sdcard.c **** 	}
 435:fatfs/sdcard.c **** 	else {				/* Multiple block write */
 436:fatfs/sdcard.c **** 		if (CardType & CT_SDC) send_cmd(ACMD23, count);
 1010              		.loc 1 436 0
 1011 0038 0622     		movs	r2, #6
 1012 003a 1A42     		tst	r2, r3
 1013 003c 03D0     		beq	.L87
 1014              		.loc 1 436 0 is_stmt 0 discriminator 1
 1015 003e 2100     		movs	r1, r4
 1016 0040 9720     		movs	r0, #151
 1017 0042 FFF7FEFF 		bl	send_cmd
 1018              	.LVL128:
 1019              	.L87:
 437:fatfs/sdcard.c **** 		if (send_cmd(CMD25, sector) == 0) {	/* WRITE_MULTIPLE_BLOCK */
 1020              		.loc 1 437 0 is_stmt 1
 1021 0046 3100     		movs	r1, r6
 1022 0048 1920     		movs	r0, #25
 1023 004a FFF7FEFF 		bl	send_cmd
 1024              	.LVL129:
 1025 004e 0028     		cmp	r0, #0
 1026 0050 16D1     		bne	.L86
 1027              	.L89:
 438:fatfs/sdcard.c **** 			do {
 439:fatfs/sdcard.c **** 				if (!xmit_datablock(buff, 0xFC)) break;
 1028              		.loc 1 439 0
 1029 0052 FC21     		movs	r1, #252
 1030 0054 2800     		movs	r0, r5
 1031 0056 FFF7FEFF 		bl	xmit_datablock
 1032              	.LVL130:
 1033 005a 0028     		cmp	r0, #0
 1034 005c 06D0     		beq	.L88
 440:fatfs/sdcard.c **** 				buff += 512;
 1035              		.loc 1 440 0
 1036 005e 8023     		movs	r3, #128
 1037 0060 9B00     		lsls	r3, r3, #2
 1038 0062 9C46     		mov	ip, r3
 1039 0064 6544     		add	r5, r5, ip
 1040              	.LVL131:
 441:fatfs/sdcard.c **** 			} while (--count);
 1041              		.loc 1 441 0
 1042 0066 013C     		subs	r4, r4, #1
 1043              	.LVL132:
 1044 0068 002C     		cmp	r4, #0
 1045 006a F2D1     		bne	.L89
 1046              	.L88:
 442:fatfs/sdcard.c **** 			if (!xmit_datablock(0, 0xFD))	/* STOP_TRAN token */
 1047              		.loc 1 442 0
 1048 006c FD21     		movs	r1, #253
 1049 006e 0020     		movs	r0, #0
ARM GAS  C:\Users\DMYTRO~1.FED\AppData\Local\Temp\cctdc708.s 			page 28


 1050 0070 FFF7FEFF 		bl	xmit_datablock
 1051              	.LVL133:
 1052 0074 0028     		cmp	r0, #0
 1053 0076 02D0     		beq	.L92
 1054 0078 02E0     		b	.L86
 1055              	.L91:
 433:fatfs/sdcard.c **** 	}
 1056              		.loc 1 433 0
 1057 007a 0024     		movs	r4, #0
 1058              	.LVL134:
 1059 007c 00E0     		b	.L86
 1060              	.LVL135:
 1061              	.L92:
 443:fatfs/sdcard.c **** 				count = 1;
 1062              		.loc 1 443 0
 1063 007e 0124     		movs	r4, #1
 1064              	.LVL136:
 1065              	.L86:
 444:fatfs/sdcard.c **** 		}
 445:fatfs/sdcard.c **** 	}
 446:fatfs/sdcard.c **** 	deselect();
 1066              		.loc 1 446 0
 1067 0080 FFF7FEFF 		bl	deselect
 1068              	.LVL137:
 447:fatfs/sdcard.c **** 
 448:fatfs/sdcard.c **** 	return count ? RES_ERROR : RES_OK;
 1069              		.loc 1 448 0
 1070 0084 601E     		subs	r0, r4, #1
 1071 0086 8441     		sbcs	r4, r4, r0
 1072              	.LVL138:
 1073 0088 E0B2     		uxtb	r0, r4
 1074 008a 00E0     		b	.L83
 1075              	.LVL139:
 1076              	.L90:
 427:fatfs/sdcard.c **** 	if (!(CardType & CT_BLOCK)) sector *= 512;	/* Convert LBA to byte address if needed */
 1077              		.loc 1 427 0
 1078 008c 0320     		movs	r0, #3
 1079              	.LVL140:
 1080              	.L83:
 449:fatfs/sdcard.c **** }
 1081              		.loc 1 449 0
 1082              		@ sp needed
 1083              	.LVL141:
 1084              	.LVL142:
 1085 008e 70BD     		pop	{r4, r5, r6, pc}
 1086              	.L94:
 1087              		.align	2
 1088              	.L93:
 1089 0090 00000000 		.word	.LANCHOR1
 1090              		.cfi_endproc
 1091              	.LFE44:
 1092              		.size	disk_write, .-disk_write
 1093              		.section	.text.disk_ioctl,"ax",%progbits
 1094              		.align	2
 1095              		.global	disk_ioctl
 1096              		.code	16
 1097              		.thumb_func
ARM GAS  C:\Users\DMYTRO~1.FED\AppData\Local\Temp\cctdc708.s 			page 29


 1098              		.type	disk_ioctl, %function
 1099              	disk_ioctl:
 1100              	.LFB45:
 450:fatfs/sdcard.c **** 
 451:fatfs/sdcard.c **** 
 452:fatfs/sdcard.c **** /*-----------------------------------------------------------------------*/
 453:fatfs/sdcard.c **** /* Miscellaneous Functions                                               */
 454:fatfs/sdcard.c **** /*-----------------------------------------------------------------------*/
 455:fatfs/sdcard.c **** 
 456:fatfs/sdcard.c **** DRESULT disk_ioctl (
 457:fatfs/sdcard.c **** 	BYTE drv,		/* Physical drive nmuber (0) */
 458:fatfs/sdcard.c **** 	BYTE ctrl,		/* Control code */
 459:fatfs/sdcard.c **** 	void *buff		/* Buffer to send/receive control data */
 460:fatfs/sdcard.c **** )
 461:fatfs/sdcard.c **** {
 1101              		.loc 1 461 0
 1102              		.cfi_startproc
 1103              		@ args = 0, pretend = 0, frame = 16
 1104              		@ frame_needed = 0, uses_anonymous_args = 0
 1105              	.LVL143:
 1106 0000 30B5     		push	{r4, r5, lr}
 1107              		.cfi_def_cfa_offset 12
 1108              		.cfi_offset 4, -12
 1109              		.cfi_offset 5, -8
 1110              		.cfi_offset 14, -4
 1111 0002 85B0     		sub	sp, sp, #20
 1112              		.cfi_def_cfa_offset 32
 1113 0004 0C00     		movs	r4, r1
 1114 0006 1500     		movs	r5, r2
 462:fatfs/sdcard.c **** 	DRESULT res;
 463:fatfs/sdcard.c **** 	BYTE n, csd[16];
 464:fatfs/sdcard.c **** 	DWORD cs;
 465:fatfs/sdcard.c **** 
 466:fatfs/sdcard.c **** 
 467:fatfs/sdcard.c **** 	if (disk_status(drv) & STA_NOINIT) return RES_NOTRDY;	/* Check if card is in the socket */
 1115              		.loc 1 467 0
 1116 0008 FFF7FEFF 		bl	disk_status
 1117              	.LVL144:
 1118 000c C307     		lsls	r3, r0, #31
 1119 000e 5ED4     		bmi	.L102
 1120              	.LVL145:
 468:fatfs/sdcard.c **** 
 469:fatfs/sdcard.c **** 	res = RES_ERROR;
 470:fatfs/sdcard.c **** 	switch (ctrl) {
 1121              		.loc 1 470 0
 1122 0010 012C     		cmp	r4, #1
 1123 0012 0AD0     		beq	.L98
 1124 0014 002C     		cmp	r4, #0
 1125 0016 02D0     		beq	.L99
 1126 0018 032C     		cmp	r4, #3
 1127 001a 49D0     		beq	.L100
 1128 001c 4CE0     		b	.L107
 1129              	.L99:
 471:fatfs/sdcard.c **** 		case CTRL_SYNC :		/* Make sure that no pending write process */
 472:fatfs/sdcard.c **** 			if (select()) res = RES_OK;
 1130              		.loc 1 472 0
 1131 001e FFF7FEFF 		bl	select
ARM GAS  C:\Users\DMYTRO~1.FED\AppData\Local\Temp\cctdc708.s 			page 30


 1132              	.LVL146:
 1133 0022 0028     		cmp	r0, #0
 1134 0024 4AD1     		bne	.L104
 469:fatfs/sdcard.c **** 	switch (ctrl) {
 1135              		.loc 1 469 0
 1136 0026 0124     		movs	r4, #1
 1137 0028 4DE0     		b	.L97
 1138              	.L98:
 473:fatfs/sdcard.c **** 			break;
 474:fatfs/sdcard.c **** 
 475:fatfs/sdcard.c **** 		case GET_SECTOR_COUNT :	/* Get number of sectors on the disk (DWORD) */
 476:fatfs/sdcard.c **** 			if ((send_cmd(CMD9, 0) == 0) && rcvr_datablock(csd, 16)) {
 1139              		.loc 1 476 0
 1140 002a 0021     		movs	r1, #0
 1141 002c 0920     		movs	r0, #9
 1142 002e FFF7FEFF 		bl	send_cmd
 1143              	.LVL147:
 1144 0032 0028     		cmp	r0, #0
 1145 0034 44D1     		bne	.L105
 1146              		.loc 1 476 0 is_stmt 0 discriminator 1
 1147 0036 1021     		movs	r1, #16
 1148 0038 6846     		mov	r0, sp
 1149 003a FFF7FEFF 		bl	rcvr_datablock
 1150              	.LVL148:
 1151 003e 0028     		cmp	r0, #0
 1152 0040 40D0     		beq	.L106
 477:fatfs/sdcard.c **** 				if ((csd[0] >> 6) == 1) {	/* SDC ver 2.00 */
 1153              		.loc 1 477 0 is_stmt 1
 1154 0042 6B46     		mov	r3, sp
 1155 0044 1B78     		ldrb	r3, [r3]
 1156 0046 9B09     		lsrs	r3, r3, #6
 1157 0048 012B     		cmp	r3, #1
 1158 004a 10D1     		bne	.L101
 478:fatfs/sdcard.c **** 					cs = csd[9] + ((WORD)csd[8] << 8) + ((DWORD)(csd[7] & 63) << 16) + 1;
 1159              		.loc 1 478 0
 1160 004c 6B46     		mov	r3, sp
 1161 004e 5A7A     		ldrb	r2, [r3, #9]
 1162 0050 197A     		ldrb	r1, [r3, #8]
 1163 0052 0B02     		lsls	r3, r1, #8
 1164 0054 D118     		adds	r1, r2, r3
 1165 0056 6B46     		mov	r3, sp
 1166 0058 DB79     		ldrb	r3, [r3, #7]
 1167 005a 1B04     		lsls	r3, r3, #16
 1168 005c FC22     		movs	r2, #252
 1169 005e 9203     		lsls	r2, r2, #14
 1170 0060 1340     		ands	r3, r2
 1171 0062 CB18     		adds	r3, r1, r3
 1172 0064 0133     		adds	r3, r3, #1
 1173              	.LVL149:
 479:fatfs/sdcard.c **** 					*(DWORD*)buff = cs << 10;
 1174              		.loc 1 479 0
 1175 0066 9B02     		lsls	r3, r3, #10
 1176              	.LVL150:
 1177 0068 2B60     		str	r3, [r5]
 1178              	.LVL151:
 480:fatfs/sdcard.c **** 				} else {					/* SDC ver 1.XX or MMC */
 481:fatfs/sdcard.c **** 					n = (csd[5] & 15) + ((csd[10] & 128) >> 7) + ((csd[9] & 3) << 1) + 2;
ARM GAS  C:\Users\DMYTRO~1.FED\AppData\Local\Temp\cctdc708.s 			page 31


 482:fatfs/sdcard.c **** 					cs = (csd[8] >> 6) + ((WORD)csd[7] << 2) + ((WORD)(csd[6] & 3) << 10) + 1;
 483:fatfs/sdcard.c **** 					*(DWORD*)buff = cs << (n - 9);
 484:fatfs/sdcard.c **** 				}
 485:fatfs/sdcard.c **** 				res = RES_OK;
 1179              		.loc 1 485 0
 1180 006a 0024     		movs	r4, #0
 1181 006c 2BE0     		b	.L97
 1182              	.L101:
 481:fatfs/sdcard.c **** 					cs = (csd[8] >> 6) + ((WORD)csd[7] << 2) + ((WORD)(csd[6] & 3) << 10) + 1;
 1183              		.loc 1 481 0
 1184 006e 6B46     		mov	r3, sp
 1185 0070 5879     		ldrb	r0, [r3, #5]
 1186 0072 997A     		ldrb	r1, [r3, #10]
 1187 0074 CC09     		lsrs	r4, r1, #7
 1188 0076 5A7A     		ldrb	r2, [r3, #9]
 1189 0078 5200     		lsls	r2, r2, #1
 1190 007a 0F23     		movs	r3, #15
 1191 007c 0340     		ands	r3, r0
 1192 007e E118     		adds	r1, r4, r3
 1193 0080 0623     		movs	r3, #6
 1194 0082 1340     		ands	r3, r2
 1195 0084 CB18     		adds	r3, r1, r3
 1196 0086 0233     		adds	r3, r3, #2
 1197 0088 DBB2     		uxtb	r3, r3
 1198              	.LVL152:
 482:fatfs/sdcard.c **** 					*(DWORD*)buff = cs << (n - 9);
 1199              		.loc 1 482 0
 1200 008a 6A46     		mov	r2, sp
 1201 008c 107A     		ldrb	r0, [r2, #8]
 1202 008e 8109     		lsrs	r1, r0, #6
 1203 0090 D079     		ldrb	r0, [r2, #7]
 1204 0092 8200     		lsls	r2, r0, #2
 1205 0094 8818     		adds	r0, r1, r2
 1206 0096 6A46     		mov	r2, sp
 1207 0098 9279     		ldrb	r2, [r2, #6]
 1208 009a 9202     		lsls	r2, r2, #10
 1209 009c C021     		movs	r1, #192
 1210 009e 0901     		lsls	r1, r1, #4
 1211 00a0 0A40     		ands	r2, r1
 1212 00a2 8218     		adds	r2, r0, r2
 1213 00a4 0132     		adds	r2, r2, #1
 1214              	.LVL153:
 483:fatfs/sdcard.c **** 				}
 1215              		.loc 1 483 0
 1216 00a6 093B     		subs	r3, r3, #9
 1217              	.LVL154:
 1218 00a8 9A40     		lsls	r2, r2, r3
 1219              	.LVL155:
 1220 00aa 2A60     		str	r2, [r5]
 1221              	.LVL156:
 1222              		.loc 1 485 0
 1223 00ac 0024     		movs	r4, #0
 1224 00ae 0AE0     		b	.L97
 1225              	.LVL157:
 1226              	.L100:
 486:fatfs/sdcard.c **** 			}
 487:fatfs/sdcard.c **** 			break;
ARM GAS  C:\Users\DMYTRO~1.FED\AppData\Local\Temp\cctdc708.s 			page 32


 488:fatfs/sdcard.c **** 
 489:fatfs/sdcard.c **** 		case GET_BLOCK_SIZE :	/* Get erase block size in unit of sector (DWORD) */
 490:fatfs/sdcard.c **** 			*(DWORD*)buff = 128;
 1227              		.loc 1 490 0
 1228 00b0 8023     		movs	r3, #128
 1229 00b2 2B60     		str	r3, [r5]
 1230              	.LVL158:
 491:fatfs/sdcard.c **** 			res = RES_OK;
 1231              		.loc 1 491 0
 1232 00b4 0024     		movs	r4, #0
 492:fatfs/sdcard.c **** 			break;
 1233              		.loc 1 492 0
 1234 00b6 06E0     		b	.L97
 1235              	.LVL159:
 1236              	.L107:
 493:fatfs/sdcard.c **** 
 494:fatfs/sdcard.c **** 		default:
 495:fatfs/sdcard.c **** 			res = RES_PARERR;
 1237              		.loc 1 495 0
 1238 00b8 0424     		movs	r4, #4
 1239 00ba 04E0     		b	.L97
 1240              	.L104:
 472:fatfs/sdcard.c **** 			break;
 1241              		.loc 1 472 0
 1242 00bc 0024     		movs	r4, #0
 1243 00be 02E0     		b	.L97
 1244              	.L105:
 469:fatfs/sdcard.c **** 	switch (ctrl) {
 1245              		.loc 1 469 0
 1246 00c0 0124     		movs	r4, #1
 1247 00c2 00E0     		b	.L97
 1248              	.L106:
 1249 00c4 0124     		movs	r4, #1
 1250              	.LVL160:
 1251              	.L97:
 496:fatfs/sdcard.c **** 	}
 497:fatfs/sdcard.c **** 
 498:fatfs/sdcard.c **** 	deselect();
 1252              		.loc 1 498 0
 1253 00c6 FFF7FEFF 		bl	deselect
 1254              	.LVL161:
 499:fatfs/sdcard.c **** 
 500:fatfs/sdcard.c **** 	return res;
 1255              		.loc 1 500 0
 1256 00ca 2000     		movs	r0, r4
 1257 00cc 00E0     		b	.L96
 1258              	.LVL162:
 1259              	.L102:
 467:fatfs/sdcard.c **** 
 1260              		.loc 1 467 0
 1261 00ce 0320     		movs	r0, #3
 1262              	.L96:
 501:fatfs/sdcard.c **** }
 1263              		.loc 1 501 0
 1264 00d0 05B0     		add	sp, sp, #20
 1265              		@ sp needed
 1266              	.LVL163:
ARM GAS  C:\Users\DMYTRO~1.FED\AppData\Local\Temp\cctdc708.s 			page 33


 1267 00d2 30BD     		pop	{r4, r5, pc}
 1268              		.cfi_endproc
 1269              	.LFE45:
 1270              		.size	disk_ioctl, .-disk_ioctl
 1271              		.data
 1272              		.set	.LANCHOR0,. + 0
 1273              		.type	Stat, %object
 1274              		.size	Stat, 1
 1275              	Stat:
 1276 0000 01       		.byte	1
 1277              		.bss
 1278              		.set	.LANCHOR1,. + 0
 1279              		.type	CardType, %object
 1280              		.size	CardType, 1
 1281              	CardType:
 1282 0000 00       		.space	1
 1283              		.text
 1284              	.Letext0:
 1285              		.file 2 "fatfs\\integer.h"
 1286              		.file 3 "fatfs\\diskio.h"
 1287              		.file 4 "Generated_Source\\PSoC4/cytypes.h"
 1288              		.file 5 "Generated_Source\\PSoC4/SPI_SPI_UART.h"
 1289              		.file 6 "Generated_Source\\PSoC4/SPI_ss0_m.h"
 1290              		.file 7 "Generated_Source\\PSoC4/CyLib.h"