ARM GAS  C:\Users\DMYTRO~1.FED\AppData\Local\Temp\ccgAidvu.s 			page 1


   1              		.syntax unified
   2              		.cpu cortex-m0plus
   3              		.fpu softvfp
   4              		.eabi_attribute 20, 1
   5              		.eabi_attribute 21, 1
   6              		.eabi_attribute 23, 3
   7              		.eabi_attribute 24, 1
   8              		.eabi_attribute 25, 1
   9              		.eabi_attribute 26, 1
  10              		.eabi_attribute 30, 1
  11              		.eabi_attribute 34, 0
  12              		.eabi_attribute 18, 4
  13              		.thumb
  14              		.syntax unified
  15              		.file	"testPlayer.c"
  16              		.text
  17              	.Ltext0:
  18              		.cfi_sections	.debug_frame
  19              		.section	.text.testplayer_audio_Cb,"ax",%progbits
  20              		.align	2
  21              		.code	16
  22              		.thumb_func
  23              		.type	testplayer_audio_Cb, %function
  24              	testplayer_audio_Cb:
  25              	.LFB0:
  26              		.file 1 "testPlayer.c"
   1:testPlayer.c  **** /** @file
   2:testPlayer.c  ****  *  @brief Source file for test purpose player
   3:testPlayer.c  ****  */
   4:testPlayer.c  **** #include "testPlayer.h"
   5:testPlayer.c  **** #include "audio.h"
   6:testPlayer.c  **** #include "assert.h"
   7:testPlayer.c  **** 
   8:testPlayer.c  **** static bool    isPlay = false;
   9:testPlayer.c  **** static uint8_t phase = 0;
  10:testPlayer.c  **** static testPlayerMode_t curMode = TEST_PLAY_SINE;
  11:testPlayer.c  **** 
  12:testPlayer.c  **** static uint32_t curArg = 0;
  13:testPlayer.c  **** static uint16_t s_noteFreqEx16k[ 12 ] = { 0xFCDF, 0xEEAE, 0xE147, 0xD4A3, 0xC8B4, 0xBD70, 0xB2CE, 0
  14:testPlayer.c  **** static uint8_t  sine_ar[] = {0x88,0xd8,0xff,0xd9,0x80,0x27,0x01,0x28};
  15:testPlayer.c  **** static uint16_t tempC = 0;
  16:testPlayer.c  **** 
  17:testPlayer.c  **** static void testplayer_audio_Cb(void)
  18:testPlayer.c  **** {
  27              		.loc 1 18 0
  28              		.cfi_startproc
  29              		@ args = 0, pretend = 0, frame = 0
  30              		@ frame_needed = 0, uses_anonymous_args = 0
  31 0000 10B5     		push	{r4, lr}
  32              		.cfi_def_cfa_offset 8
  33              		.cfi_offset 4, -8
  34              		.cfi_offset 14, -4
  19:testPlayer.c  ****     if (isPlay)
  35              		.loc 1 19 0
  36 0002 154B     		ldr	r3, .L7
  37 0004 1B78     		ldrb	r3, [r3]
  38 0006 002B     		cmp	r3, #0
ARM GAS  C:\Users\DMYTRO~1.FED\AppData\Local\Temp\ccgAidvu.s 			page 2


  39 0008 25D0     		beq	.L1
  20:testPlayer.c  ****     {
  21:testPlayer.c  ****         switch (curMode)
  40              		.loc 1 21 0
  41 000a 134B     		ldr	r3, .L7
  42 000c 5B78     		ldrb	r3, [r3, #1]
  43 000e 002B     		cmp	r3, #0
  44 0010 02D0     		beq	.L4
  45 0012 012B     		cmp	r3, #1
  46 0014 0FD0     		beq	.L5
  47 0016 1CE0     		b	.L6
  48              	.L4:
  22:testPlayer.c  ****         {
  23:testPlayer.c  ****             case TEST_PLAY_SINE:
  24:testPlayer.c  ****                 audio_Play(sine_ar[phase++]);
  49              		.loc 1 24 0
  50 0018 0F4C     		ldr	r4, .L7
  51 001a A378     		ldrb	r3, [r4, #2]
  52 001c 5A1C     		adds	r2, r3, #1
  53 001e A270     		strb	r2, [r4, #2]
  54 0020 0E4A     		ldr	r2, .L7+4
  55 0022 D05C     		ldrb	r0, [r2, r3]
  56 0024 FFF7FEFF 		bl	audio_Play
  57              	.LVL0:
  25:testPlayer.c  ****                 if (phase == sizeof(sine_ar))
  58              		.loc 1 25 0
  59 0028 A378     		ldrb	r3, [r4, #2]
  60 002a 082B     		cmp	r3, #8
  61 002c 13D1     		bne	.L1
  26:testPlayer.c  ****                 {
  27:testPlayer.c  ****                     phase = 0;
  62              		.loc 1 27 0
  63 002e 0022     		movs	r2, #0
  64 0030 094B     		ldr	r3, .L7
  65 0032 9A70     		strb	r2, [r3, #2]
  66 0034 0FE0     		b	.L1
  67              	.L5:
  28:testPlayer.c  ****                 }
  29:testPlayer.c  ****                 break;
  30:testPlayer.c  ****             
  31:testPlayer.c  ****             case TEST_PLAY_NOTE:
  32:testPlayer.c  ****                 tempC += s_noteFreqEx16k[curArg];
  68              		.loc 1 32 0
  69 0036 084A     		ldr	r2, .L7
  70 0038 5368     		ldr	r3, [r2, #4]
  71 003a 5B00     		lsls	r3, r3, #1
  72 003c 0749     		ldr	r1, .L7+4
  73 003e CB18     		adds	r3, r1, r3
  74 0040 1889     		ldrh	r0, [r3, #8]
  75 0042 1389     		ldrh	r3, [r2, #8]
  76 0044 C018     		adds	r0, r0, r3
  77 0046 80B2     		uxth	r0, r0
  78 0048 1081     		strh	r0, [r2, #8]
  33:testPlayer.c  ****                 audio_Play(((tempC >> 15) & 0x01));
  79              		.loc 1 33 0
  80 004a C00B     		lsrs	r0, r0, #15
  81 004c FFF7FEFF 		bl	audio_Play
ARM GAS  C:\Users\DMYTRO~1.FED\AppData\Local\Temp\ccgAidvu.s 			page 3


  82              	.LVL1:
  34:testPlayer.c  ****                 break;
  83              		.loc 1 34 0
  84 0050 01E0     		b	.L1
  85              	.L6:
  35:testPlayer.c  ****         
  36:testPlayer.c  ****             default:
  37:testPlayer.c  ****                 audio_Stop();
  86              		.loc 1 37 0
  87 0052 FFF7FEFF 		bl	audio_Stop
  88              	.LVL2:
  89              	.L1:
  38:testPlayer.c  ****                 break;
  39:testPlayer.c  ****         }
  40:testPlayer.c  ****     }
  41:testPlayer.c  **** }
  90              		.loc 1 41 0
  91              		@ sp needed
  92 0056 10BD     		pop	{r4, pc}
  93              	.L8:
  94              		.align	2
  95              	.L7:
  96 0058 00000000 		.word	.LANCHOR0
  97 005c 00000000 		.word	.LANCHOR1
  98              		.cfi_endproc
  99              	.LFE0:
 100              		.size	testplayer_audio_Cb, .-testplayer_audio_Cb
 101              		.section	.text.testPlayerStop,"ax",%progbits
 102              		.align	2
 103              		.global	testPlayerStop
 104              		.code	16
 105              		.thumb_func
 106              		.type	testPlayerStop, %function
 107              	testPlayerStop:
 108              	.LFB1:
  42:testPlayer.c  **** 
  43:testPlayer.c  **** void testPlayerStop(void)
  44:testPlayer.c  **** {
 109              		.loc 1 44 0
 110              		.cfi_startproc
 111              		@ args = 0, pretend = 0, frame = 0
 112              		@ frame_needed = 0, uses_anonymous_args = 0
 113 0000 10B5     		push	{r4, lr}
 114              		.cfi_def_cfa_offset 8
 115              		.cfi_offset 4, -8
 116              		.cfi_offset 14, -4
  45:testPlayer.c  ****     isPlay = false;
 117              		.loc 1 45 0
 118 0002 0022     		movs	r2, #0
 119 0004 024B     		ldr	r3, .L10
 120 0006 1A70     		strb	r2, [r3]
  46:testPlayer.c  ****     audio_Stop();
 121              		.loc 1 46 0
 122 0008 FFF7FEFF 		bl	audio_Stop
 123              	.LVL3:
  47:testPlayer.c  **** }
 124              		.loc 1 47 0
ARM GAS  C:\Users\DMYTRO~1.FED\AppData\Local\Temp\ccgAidvu.s 			page 4


 125              		@ sp needed
 126 000c 10BD     		pop	{r4, pc}
 127              	.L11:
 128 000e C046     		.align	2
 129              	.L10:
 130 0010 00000000 		.word	.LANCHOR0
 131              		.cfi_endproc
 132              	.LFE1:
 133              		.size	testPlayerStop, .-testPlayerStop
 134              		.section	.text.testPlayerStart,"ax",%progbits
 135              		.align	2
 136              		.global	testPlayerStart
 137              		.code	16
 138              		.thumb_func
 139              		.type	testPlayerStart, %function
 140              	testPlayerStart:
 141              	.LFB2:
  48:testPlayer.c  **** 
  49:testPlayer.c  **** void testPlayerStart(void)
  50:testPlayer.c  **** {
 142              		.loc 1 50 0
 143              		.cfi_startproc
 144              		@ args = 0, pretend = 0, frame = 0
 145              		@ frame_needed = 0, uses_anonymous_args = 0
 146 0000 10B5     		push	{r4, lr}
 147              		.cfi_def_cfa_offset 8
 148              		.cfi_offset 4, -8
 149              		.cfi_offset 14, -4
  51:testPlayer.c  ****     isPlay = true;
 150              		.loc 1 51 0
 151 0002 0122     		movs	r2, #1
 152 0004 074B     		ldr	r3, .L15
 153 0006 1A70     		strb	r2, [r3]
  52:testPlayer.c  ****     ASSERT(true == audio_SetCallback(testplayer_audio_Cb));
 154              		.loc 1 52 0
 155 0008 0748     		ldr	r0, .L15+4
 156 000a FFF7FEFF 		bl	audio_SetCallback
 157              	.LVL4:
 158 000e 0028     		cmp	r0, #0
 159 0010 05D1     		bne	.L13
 160              		.loc 1 52 0 is_stmt 0 discriminator 1
 161 0012 3422     		movs	r2, #52
 162 0014 0549     		ldr	r1, .L15+8
 163 0016 0648     		ldr	r0, .L15+12
 164 0018 FFF7FEFF 		bl	uartPrintf
 165              	.LVL5:
 166              	.L14:
 167 001c FEE7     		b	.L14
 168              	.L13:
  53:testPlayer.c  ****     audio_Start();
 169              		.loc 1 53 0 is_stmt 1
 170 001e FFF7FEFF 		bl	audio_Start
 171              	.LVL6:
  54:testPlayer.c  **** }
 172              		.loc 1 54 0
 173              		@ sp needed
 174 0022 10BD     		pop	{r4, pc}
ARM GAS  C:\Users\DMYTRO~1.FED\AppData\Local\Temp\ccgAidvu.s 			page 5


 175              	.L16:
 176              		.align	2
 177              	.L15:
 178 0024 00000000 		.word	.LANCHOR0
 179 0028 00000000 		.word	testplayer_audio_Cb
 180 002c 00000000 		.word	.LC5
 181 0030 10000000 		.word	.LC7
 182              		.cfi_endproc
 183              	.LFE2:
 184              		.size	testPlayerStart, .-testPlayerStart
 185              		.section	.text.testPlayerPlay,"ax",%progbits
 186              		.align	2
 187              		.global	testPlayerPlay
 188              		.code	16
 189              		.thumb_func
 190              		.type	testPlayerPlay, %function
 191              	testPlayerPlay:
 192              	.LFB3:
  55:testPlayer.c  **** 
  56:testPlayer.c  **** bool testPlayerPlay(testPlayerMode_t mode, uint8_t arg)
  57:testPlayer.c  **** {
 193              		.loc 1 57 0
 194              		.cfi_startproc
 195              		@ args = 0, pretend = 0, frame = 0
 196              		@ frame_needed = 0, uses_anonymous_args = 0
 197              	.LVL7:
 198 0000 10B5     		push	{r4, lr}
 199              		.cfi_def_cfa_offset 8
 200              		.cfi_offset 4, -8
 201              		.cfi_offset 14, -4
 202              	.LVL8:
  58:testPlayer.c  ****     bool result = false;
  59:testPlayer.c  ****     
  60:testPlayer.c  ****     if (mode < TEST_PLAY_MODE_COUNT)
 203              		.loc 1 60 0
 204 0002 0128     		cmp	r0, #1
 205 0004 06D8     		bhi	.L19
  61:testPlayer.c  ****     {
  62:testPlayer.c  ****         curMode = mode;
 206              		.loc 1 62 0
 207 0006 044B     		ldr	r3, .L20
 208 0008 5870     		strb	r0, [r3, #1]
 209              	.LVL9:
  63:testPlayer.c  ****         result = true;
  64:testPlayer.c  ****         curArg = arg;   
 210              		.loc 1 64 0
 211 000a 5960     		str	r1, [r3, #4]
  65:testPlayer.c  ****         testPlayerStart();
 212              		.loc 1 65 0
 213 000c FFF7FEFF 		bl	testPlayerStart
 214              	.LVL10:
  63:testPlayer.c  ****         result = true;
 215              		.loc 1 63 0
 216 0010 0120     		movs	r0, #1
 217 0012 00E0     		b	.L18
 218              	.LVL11:
 219              	.L19:
ARM GAS  C:\Users\DMYTRO~1.FED\AppData\Local\Temp\ccgAidvu.s 			page 6


  58:testPlayer.c  ****     
 220              		.loc 1 58 0
 221 0014 0020     		movs	r0, #0
 222              	.LVL12:
 223              	.L18:
  66:testPlayer.c  ****     }
  67:testPlayer.c  ****     
  68:testPlayer.c  ****     return result;
  69:testPlayer.c  **** }...
 224              		.loc 1 69 0
 225              		@ sp needed
 226 0016 10BD     		pop	{r4, pc}
 227              	.L21:
 228              		.align	2
 229              	.L20:
 230 0018 00000000 		.word	.LANCHOR0
 231              		.cfi_endproc
 232              	.LFE3:
 233              		.size	testPlayerPlay, .-testPlayerPlay
 234              		.section	.rodata
 235              		.align	2
 236              		.set	.LANCHOR1,. + 0
 237              		.type	sine_ar, %object
 238              		.size	sine_ar, 8
 239              	sine_ar:
 240 0000 88       		.byte	-120
 241 0001 D8       		.byte	-40
 242 0002 FF       		.byte	-1
 243 0003 D9       		.byte	-39
 244 0004 80       		.byte	-128
 245 0005 27       		.byte	39
 246 0006 01       		.byte	1
 247 0007 28       		.byte	40
 248              		.type	s_noteFreqEx16k, %object
 249              		.size	s_noteFreqEx16k, 24
 250              	s_noteFreqEx16k:
 251 0008 DFFC     		.short	-801
 252 000a AEEE     		.short	-4434
 253 000c 47E1     		.short	-7865
 254 000e A3D4     		.short	-11101
 255 0010 B4C8     		.short	-14156
 256 0012 70BD     		.short	-17040
 257 0014 CEB2     		.short	-19762
 258 0016 C4A8     		.short	-22332
 259 0018 4B9F     		.short	-24757
 260 001a 5C96     		.short	-27044
 261 001c EB8D     		.short	-29205
 262 001e F385     		.short	-31245
 263              		.section	.rodata.str1.4,"aMS",%progbits,1
 264              		.align	2
 265              	.LC5:
 266 0000 74657374 		.ascii	"testPlayer.c\000"
 266      506C6179 
 266      65722E63 
 266      00
 267 000d 000000   		.space	3
 268              	.LC7:
ARM GAS  C:\Users\DMYTRO~1.FED\AppData\Local\Temp\ccgAidvu.s 			page 7


 269 0010 52756E74 		.ascii	"RuntimeError: Assert in file: %s line: %d\015\012\000"
 269      696D6545 
 269      72726F72 
 269      3A204173 
 269      73657274 
 270              		.bss
 271              		.align	2
 272              		.set	.LANCHOR0,. + 0
 273              		.type	isPlay, %object
 274              		.size	isPlay, 1
 275              	isPlay:
 276 0000 00       		.space	1
 277              		.type	curMode, %object
 278              		.size	curMode, 1
 279              	curMode:
 280 0001 00       		.space	1
 281              		.type	phase, %object
 282              		.size	phase, 1
 283              	phase:
 284 0002 00       		.space	1
 285 0003 00       		.space	1
 286              		.type	curArg, %object
 287              		.size	curArg, 4
 288              	curArg:
 289 0004 00000000 		.space	4
 290              		.type	tempC, %object
 291              		.size	tempC, 2
 292              	tempC:
 293 0008 0000     		.space	2
 294              		.text
 295              	.Letext0:
 296              		.file 2 "c:\\program files (x86)\\cypress\\psoc creator\\4.2\\psoc creator\\import\\gnu\\arm\\5.4.
 297              		.file 3 "c:\\program files (x86)\\cypress\\psoc creator\\4.2\\psoc creator\\import\\gnu\\arm\\5.4.
 298              		.file 4 "testPlayer.h"
 299              		.file 5 "audio.h"
 300              		.file 6 "uartPrint.h"