ARM GAS  C:\Users\DMYTRO~1.FED\AppData\Local\Temp\cc4h0FXc.s 			page 1


   1              		.syntax unified
   2              		.cpu cortex-m0plus
   3              		.fpu softvfp
   4              		.eabi_attribute 20, 1
   5              		.eabi_attribute 21, 1
   6              		.eabi_attribute 23, 3
   7              		.eabi_attribute 24, 1
   8              		.eabi_attribute 25, 1
   9              		.eabi_attribute 26, 1
  10              		.eabi_attribute 30, 1
  11              		.eabi_attribute 34, 0
  12              		.eabi_attribute 18, 4
  13              		.thumb
  14              		.syntax unified
  15              		.file	"userControls.c"
  16              		.text
  17              	.Ltext0:
  18              		.cfi_sections	.debug_frame
  19              		.section	.text.Isr_UC_Btn_Handler,"ax",%progbits
  20              		.align	2
  21              		.global	Isr_UC_Btn_Handler
  22              		.code	16
  23              		.thumb_func
  24              		.type	Isr_UC_Btn_Handler, %function
  25              	Isr_UC_Btn_Handler:
  26              	.LFB34:
  27              		.file 1 "userControls.c"
   1:userControls.c **** /** @file
   2:userControls.c ****  *  @brief Source file for button handlers
   3:userControls.c ****  */
   4:userControls.c **** #include <stdbool.h>
   5:userControls.c **** #include "project.h"
   6:userControls.c **** #include "assert.h"
   7:userControls.c **** #include "userControls.h"
   8:userControls.c **** #include "sysTickTimer.h"
   9:userControls.c **** 
  10:userControls.c **** #define BUTTON_PRESS   0
  11:userControls.c **** #define BUTTON_RELEASE 1U
  12:userControls.c **** 
  13:userControls.c **** #define BUTTON_LONG_PRESS_MS        3000U 
  14:userControls.c **** #define BUTTON_MIDDLE_PRESS_MS      1000U 
  15:userControls.c **** 
  16:userControls.c **** 
  17:userControls.c **** typedef struct
  18:userControls.c **** {
  19:userControls.c ****     bool                isInit;
  20:userControls.c ****     bool                isIRQ;
  21:userControls.c ****     bool                longPressSend;
  22:userControls.c ****     uint32_t            timeStampPrev;
  23:userControls.c ****     uint32_t            timeStampCur;
  24:userControls.c ****     uint8_t             curState;
  25:userControls.c ****     uint8_t             prevState;
  26:userControls.c ****     onBtnChange_t       onBtnChangeCb;
  27:userControls.c **** } userControl_t;
  28:userControls.c **** 
  29:userControls.c **** static userControl_t userControl = {.isInit = false};
  30:userControls.c **** 
ARM GAS  C:\Users\DMYTRO~1.FED\AppData\Local\Temp\cc4h0FXc.s 			page 2


  31:userControls.c **** CY_ISR(Isr_UC_Btn_Handler)
  32:userControls.c **** {
  28              		.loc 1 32 0
  29              		.cfi_startproc
  30              		@ args = 0, pretend = 0, frame = 0
  31              		@ frame_needed = 0, uses_anonymous_args = 0
  32 0000 10B5     		push	{r4, lr}
  33              		.cfi_def_cfa_offset 8
  34              		.cfi_offset 4, -8
  35              		.cfi_offset 14, -4
  33:userControls.c ****     Button_ClearInterrupt();
  36              		.loc 1 33 0
  37 0002 FFF7FEFF 		bl	Button_ClearInterrupt
  38              	.LVL0:
  34:userControls.c ****     
  35:userControls.c ****     userControl.isIRQ = true;
  39              		.loc 1 35 0
  40 0006 0122     		movs	r2, #1
  41 0008 024B     		ldr	r3, .L2
  42 000a 5A70     		strb	r2, [r3, #1]
  36:userControls.c ****     Isr_UC_Btn_ClearPending();
  43              		.loc 1 36 0
  44 000c FFF7FEFF 		bl	Isr_UC_Btn_ClearPending
  45              	.LVL1:
  37:userControls.c **** }
  46              		.loc 1 37 0
  47              		@ sp needed
  48 0010 10BD     		pop	{r4, pc}
  49              	.L3:
  50 0012 C046     		.align	2
  51              	.L2:
  52 0014 00000000 		.word	.LANCHOR0
  53              		.cfi_endproc
  54              	.LFE34:
  55              		.size	Isr_UC_Btn_Handler, .-Isr_UC_Btn_Handler
  56              		.section	.text.userControl_Init,"ax",%progbits
  57              		.align	2
  58              		.global	userControl_Init
  59              		.code	16
  60              		.thumb_func
  61              		.type	userControl_Init, %function
  62              	userControl_Init:
  63              	.LFB35:
  38:userControls.c **** 
  39:userControls.c **** void userControl_Init(onBtnChange_t btn_cb)
  40:userControls.c **** {
  64              		.loc 1 40 0
  65              		.cfi_startproc
  66              		@ args = 0, pretend = 0, frame = 0
  67              		@ frame_needed = 0, uses_anonymous_args = 0
  68              	.LVL2:
  69 0000 10B5     		push	{r4, lr}
  70              		.cfi_def_cfa_offset 8
  71              		.cfi_offset 4, -8
  72              		.cfi_offset 14, -4
  41:userControls.c ****     ASSERT(NULL != btn_cb);
  73              		.loc 1 41 0
ARM GAS  C:\Users\DMYTRO~1.FED\AppData\Local\Temp\cc4h0FXc.s 			page 3


  74 0002 0028     		cmp	r0, #0
  75 0004 05D1     		bne	.L5
  76              		.loc 1 41 0 is_stmt 0 discriminator 1
  77 0006 2922     		movs	r2, #41
  78 0008 0849     		ldr	r1, .L7
  79 000a 0948     		ldr	r0, .L7+4
  80              	.LVL3:
  81 000c FFF7FEFF 		bl	uartPrintf
  82              	.LVL4:
  83              	.L6:
  84 0010 FEE7     		b	.L6
  85              	.LVL5:
  86              	.L5:
  42:userControls.c **** 
  43:userControls.c ****     userControl.isInit = true;
  87              		.loc 1 43 0 is_stmt 1
  88 0012 084B     		ldr	r3, .L7+8
  89 0014 0122     		movs	r2, #1
  90 0016 1A70     		strb	r2, [r3]
  44:userControls.c ****     userControl.onBtnChangeCb = btn_cb;
  91              		.loc 1 44 0
  92 0018 1861     		str	r0, [r3, #16]
  45:userControls.c ****     userControl.isIRQ = false;
  93              		.loc 1 45 0
  94 001a 0021     		movs	r1, #0
  95 001c 5970     		strb	r1, [r3, #1]
  46:userControls.c ****     userControl.prevState = BUTTON_RELEASE;
  96              		.loc 1 46 0
  97 001e 5A73     		strb	r2, [r3, #13]
  47:userControls.c ****     userControl.curState  = BUTTON_RELEASE;
  98              		.loc 1 47 0
  99 0020 1A73     		strb	r2, [r3, #12]
  48:userControls.c ****     userControl.timeStampPrev = 0;
 100              		.loc 1 48 0
 101 0022 5960     		str	r1, [r3, #4]
  49:userControls.c ****     Isr_UC_Btn_StartEx(Isr_UC_Btn_Handler);
 102              		.loc 1 49 0
 103 0024 0448     		ldr	r0, .L7+12
 104              	.LVL6:
 105 0026 FFF7FEFF 		bl	Isr_UC_Btn_StartEx
 106              	.LVL7:
  50:userControls.c **** }
 107              		.loc 1 50 0
 108              		@ sp needed
 109 002a 10BD     		pop	{r4, pc}
 110              	.L8:
 111              		.align	2
 112              	.L7:
 113 002c 00000000 		.word	.LC1
 114 0030 10000000 		.word	.LC3
 115 0034 00000000 		.word	.LANCHOR0
 116 0038 00000000 		.word	Isr_UC_Btn_Handler
 117              		.cfi_endproc
 118              	.LFE35:
 119              		.size	userControl_Init, .-userControl_Init
 120              		.section	.text.userControl_Run,"ax",%progbits
 121              		.align	2
ARM GAS  C:\Users\DMYTRO~1.FED\AppData\Local\Temp\cc4h0FXc.s 			page 4


 122              		.global	userControl_Run
 123              		.code	16
 124              		.thumb_func
 125              		.type	userControl_Run, %function
 126              	userControl_Run:
 127              	.LFB36:
  51:userControls.c **** 
  52:userControls.c **** void userControl_Run(void)
  53:userControls.c **** {
 128              		.loc 1 53 0
 129              		.cfi_startproc
 130              		@ args = 0, pretend = 0, frame = 0
 131              		@ frame_needed = 0, uses_anonymous_args = 0
 132 0000 10B5     		push	{r4, lr}
 133              		.cfi_def_cfa_offset 8
 134              		.cfi_offset 4, -8
 135              		.cfi_offset 14, -4
  54:userControls.c ****    ASSERT(userControl.isInit);
 136              		.loc 1 54 0
 137 0002 204B     		ldr	r3, .L15
 138 0004 1B78     		ldrb	r3, [r3]
 139 0006 002B     		cmp	r3, #0
 140 0008 05D1     		bne	.L10
 141              		.loc 1 54 0 is_stmt 0 discriminator 1
 142 000a 3622     		movs	r2, #54
 143 000c 1E49     		ldr	r1, .L15+4
 144 000e 1F48     		ldr	r0, .L15+8
 145 0010 FFF7FEFF 		bl	uartPrintf
 146              	.LVL8:
 147              	.L11:
 148 0014 FEE7     		b	.L11
 149              	.L10:
  55:userControls.c **** 
  56:userControls.c ****    /* No bounce problem observed, skip debouncing for now. */
  57:userControls.c ****    if (userControl.isIRQ)
 150              		.loc 1 57 0 is_stmt 1
 151 0016 1B4B     		ldr	r3, .L15
 152 0018 5B78     		ldrb	r3, [r3, #1]
 153 001a 002B     		cmp	r3, #0
 154 001c 30D0     		beq	.L9
  58:userControls.c ****    {
  59:userControls.c ****         userControl.isIRQ = false;
 155              		.loc 1 59 0
 156 001e 194C     		ldr	r4, .L15
 157 0020 0023     		movs	r3, #0
 158 0022 6370     		strb	r3, [r4, #1]
  60:userControls.c ****         
  61:userControls.c ****         userControl.timeStampPrev = userControl.timeStampCur;
 159              		.loc 1 61 0
 160 0024 A368     		ldr	r3, [r4, #8]
 161 0026 6360     		str	r3, [r4, #4]
  62:userControls.c ****         userControl.prevState = userControl.curState;
 162              		.loc 1 62 0
 163 0028 237B     		ldrb	r3, [r4, #12]
 164 002a 6373     		strb	r3, [r4, #13]
  63:userControls.c ****     
  64:userControls.c ****         userControl.curState = Button_Read();
ARM GAS  C:\Users\DMYTRO~1.FED\AppData\Local\Temp\cc4h0FXc.s 			page 5


 165              		.loc 1 64 0
 166 002c FFF7FEFF 		bl	Button_Read
 167              	.LVL9:
 168 0030 2073     		strb	r0, [r4, #12]
  65:userControls.c ****         userControl.timeStampCur = sysTickTimer_GetTimeMs();
 169              		.loc 1 65 0
 170 0032 FFF7FEFF 		bl	sysTickTimer_GetTimeMs
 171              	.LVL10:
 172 0036 A060     		str	r0, [r4, #8]
  66:userControls.c ****         
  67:userControls.c ****         if ((userControl.prevState != userControl.curState) && (userControl.prevState == BUTTON_PRE
 173              		.loc 1 67 0
 174 0038 637B     		ldrb	r3, [r4, #13]
 175 003a 227B     		ldrb	r2, [r4, #12]
 176 003c 9342     		cmp	r3, r2
 177 003e 1FD0     		beq	.L9
 178              		.loc 1 67 0 is_stmt 0 discriminator 1
 179 0040 002B     		cmp	r3, #0
 180 0042 1DD1     		bne	.L9
  68:userControls.c ****         {
  69:userControls.c ****             do
  70:userControls.c ****             {
  71:userControls.c ****                 if (sysTickTimer_IsTimePassedMs(userControl.timeStampPrev, BUTTON_LONG_PRESS_MS))
 181              		.loc 1 71 0 is_stmt 1
 182 0044 0F4B     		ldr	r3, .L15
 183 0046 5C68     		ldr	r4, [r3, #4]
 184              	.LVL11:
 185              	.LBB6:
 186              	.LBB7:
 187              		.file 2 "sysTickTimer.h"
   1:sysTickTimer.h **** /** @file
   2:sysTickTimer.h ****  *  @brief Header file for timers utility
   3:sysTickTimer.h ****  */
   4:sysTickTimer.h **** #ifndef SYSTICKTIMER_H
   5:sysTickTimer.h **** #define SYSTICKTIMER_H
   6:sysTickTimer.h **** #include <stdint.h>
   7:sysTickTimer.h **** #include <stdbool.h>
   8:sysTickTimer.h ****  /**
   9:sysTickTimer.h ****  * @defgroup sysTickTimer
  10:sysTickTimer.h ****  *
  11:sysTickTimer.h ****  * The utility to measure time
  12:sysTickTimer.h ****  *
  13:sysTickTimer.h ****  * sysTickTimer component API
  14:sysTickTimer.h ****  * Used for time measurement
  15:sysTickTimer.h ****  * Period of the timer 1ms
  16:sysTickTimer.h ****  * @{
  17:sysTickTimer.h ****  */ 
  18:sysTickTimer.h **** 
  19:sysTickTimer.h **** /**
  20:sysTickTimer.h ****  * @brief Configures sysTick Timer
  21:sysTickTimer.h ****  * Should be called before any actions with module
  22:sysTickTimer.h ****  *
  23:sysTickTimer.h ****  * @return none
  24:sysTickTimer.h ****  */
  25:sysTickTimer.h **** void sysTickTimer_Init(void);
  26:sysTickTimer.h **** 
  27:sysTickTimer.h **** /**
ARM GAS  C:\Users\DMYTRO~1.FED\AppData\Local\Temp\cc4h0FXc.s 			page 6


  28:sysTickTimer.h ****  * @brief Reading of sysTick Timer counter
  29:sysTickTimer.h ****  * Miliseconds that are passed from moment of call of 
  30:sysTickTimer.h ****  * the init function
  31:sysTickTimer.h ****  *
  32:sysTickTimer.h ****  * @return actual sysTick Timer value
  33:sysTickTimer.h ****  */
  34:sysTickTimer.h **** uint32_t sysTickTimer_GetTimeMs(void);
  35:sysTickTimer.h **** 
  36:sysTickTimer.h **** /**
  37:sysTickTimer.h ****  * @brief Time period passing check
  38:sysTickTimer.h ****  *
  39:sysTickTimer.h ****  * @param[in]  savedTime the time when checking started
  40:sysTickTimer.h ****  * @param[in]  period  required period
  41:sysTickTimer.h ****  *
  42:sysTickTimer.h ****  * @return true if the period is passed, false - if it is not passed
  43:sysTickTimer.h ****  */
  44:sysTickTimer.h **** inline bool sysTickTimer_IsTimePassedMs(uint32_t savedTime, uint32_t period)
  45:sysTickTimer.h **** {
  46:sysTickTimer.h ****     return ((sysTickTimer_GetTimeMs() - savedTime) >= period);
 188              		.loc 2 46 0
 189 0048 FFF7FEFF 		bl	sysTickTimer_GetTimeMs
 190              	.LVL12:
 191 004c 001B     		subs	r0, r0, r4
 192              	.LVL13:
 193              	.LBE7:
 194              	.LBE6:
 195              		.loc 1 71 0
 196 004e 104B     		ldr	r3, .L15+12
 197 0050 9842     		cmp	r0, r3
 198 0052 04D9     		bls	.L13
  72:userControls.c ****                 {
  73:userControls.c ****                     userControl.onBtnChangeCb(BTN_LONG_PRESS);
 199              		.loc 1 73 0
 200 0054 0B4B     		ldr	r3, .L15
 201 0056 1B69     		ldr	r3, [r3, #16]
 202 0058 0020     		movs	r0, #0
 203 005a 9847     		blx	r3
 204              	.LVL14:
  74:userControls.c ****                     break;
 205              		.loc 1 74 0
 206 005c 10E0     		b	.L9
 207              	.L13:
  75:userControls.c ****                 }
  76:userControls.c ****                 
  77:userControls.c ****                 if (sysTickTimer_IsTimePassedMs(userControl.timeStampPrev, BUTTON_MIDDLE_PRESS_MS))
 208              		.loc 1 77 0
 209 005e 094B     		ldr	r3, .L15
 210 0060 5C68     		ldr	r4, [r3, #4]
 211              	.LVL15:
 212              	.LBB8:
 213              	.LBB9:
 214              		.loc 2 46 0
 215 0062 FFF7FEFF 		bl	sysTickTimer_GetTimeMs
 216              	.LVL16:
 217 0066 001B     		subs	r0, r0, r4
 218              	.LVL17:
 219              	.LBE9:
ARM GAS  C:\Users\DMYTRO~1.FED\AppData\Local\Temp\cc4h0FXc.s 			page 7


 220              	.LBE8:
 221              		.loc 1 77 0
 222 0068 0A4B     		ldr	r3, .L15+16
 223 006a 9842     		cmp	r0, r3
 224 006c 04D9     		bls	.L14
  78:userControls.c ****                 {
  79:userControls.c ****                     userControl.onBtnChangeCb(BTN_MIDDLE_PRESS);
 225              		.loc 1 79 0
 226 006e 054B     		ldr	r3, .L15
 227 0070 1B69     		ldr	r3, [r3, #16]
 228 0072 0220     		movs	r0, #2
 229 0074 9847     		blx	r3
 230              	.LVL18:
  80:userControls.c ****                     break;
 231              		.loc 1 80 0
 232 0076 03E0     		b	.L9
 233              	.L14:
  81:userControls.c ****                 }
  82:userControls.c **** 
  83:userControls.c ****                userControl.onBtnChangeCb(BTN_SHORT_PRESS);
 234              		.loc 1 83 0
 235 0078 024B     		ldr	r3, .L15
 236 007a 1B69     		ldr	r3, [r3, #16]
 237 007c 0120     		movs	r0, #1
 238 007e 9847     		blx	r3
 239              	.LVL19:
 240              	.L9:
  84:userControls.c ****             } while(false);
  85:userControls.c ****         }
  86:userControls.c ****     }
  87:userControls.c **** }...
 241              		.loc 1 87 0
 242              		@ sp needed
 243 0080 10BD     		pop	{r4, pc}
 244              	.L16:
 245 0082 C046     		.align	2
 246              	.L15:
 247 0084 00000000 		.word	.LANCHOR0
 248 0088 00000000 		.word	.LC1
 249 008c 10000000 		.word	.LC3
 250 0090 B70B0000 		.word	2999
 251 0094 E7030000 		.word	999
 252              		.cfi_endproc
 253              	.LFE36:
 254              		.size	userControl_Run, .-userControl_Run
 255              		.section	.rodata.str1.4,"aMS",%progbits,1
 256              		.align	2
 257              	.LC1:
 258 0000 75736572 		.ascii	"userControls.c\000"
 258      436F6E74 
 258      726F6C73 
 258      2E6300
 259 000f 00       		.space	1
 260              	.LC3:
 261 0010 52756E74 		.ascii	"RuntimeError: Assert in file: %s line: %d\015\012\000"
 261      696D6545 
 261      72726F72 
ARM GAS  C:\Users\DMYTRO~1.FED\AppData\Local\Temp\cc4h0FXc.s 			page 8


 261      3A204173 
 261      73657274 
 262              		.bss
 263              		.align	2
 264              		.set	.LANCHOR0,. + 0
 265              		.type	userControl, %object
 266              		.size	userControl, 20
 267              	userControl:
 268 0000 00000000 		.space	20
 268      00000000 
 268      00000000 
 268      00000000 
 268      00000000 
 269              		.text
 270              	.Letext0:
 271              		.file 3 "c:\\program files (x86)\\cypress\\psoc creator\\4.2\\psoc creator\\import\\gnu\\arm\\5.4.
 272              		.file 4 "c:\\program files (x86)\\cypress\\psoc creator\\4.2\\psoc creator\\import\\gnu\\arm\\5.4.
 273              		.file 5 "userControls.h"
 274              		.file 6 "Generated_Source\\PSoC4/Button.h"
 275              		.file 7 "Generated_Source\\PSoC4/Isr_UC_Btn.h"
 276              		.file 8 "uartPrint.h"